
CamPayloadArduino.elf:     file format elf32-avr

Sections:
Idx Name          Size      VMA       LMA       File off  Algn
  0 .data         00000192  00800100  00006e62  00006ef6  2**0
                  CONTENTS, ALLOC, LOAD, DATA
  1 .text         00006e62  00000000  00000000  00000094  2**1
                  CONTENTS, ALLOC, LOAD, READONLY, CODE
  2 .bss          00000336  00800292  00800292  00007088  2**0
                  ALLOC

Disassembly of section .text:

00000000 <.text>:
       0:	0c 94 6c 00 	jmp	0xd8	;  0xd8
       4:	0c 94 94 00 	jmp	0x128	;  0x128
       8:	0c 94 94 00 	jmp	0x128	;  0x128
       c:	0c 94 94 00 	jmp	0x128	;  0x128
      10:	0c 94 94 00 	jmp	0x128	;  0x128
      14:	0c 94 94 00 	jmp	0x128	;  0x128
      18:	0c 94 94 00 	jmp	0x128	;  0x128
      1c:	0c 94 94 00 	jmp	0x128	;  0x128
      20:	0c 94 94 00 	jmp	0x128	;  0x128
      24:	0c 94 94 00 	jmp	0x128	;  0x128
      28:	0c 94 94 00 	jmp	0x128	;  0x128
      2c:	0c 94 94 00 	jmp	0x128	;  0x128
      30:	0c 94 94 00 	jmp	0x128	;  0x128
      34:	0c 94 94 00 	jmp	0x128	;  0x128
      38:	0c 94 94 00 	jmp	0x128	;  0x128
      3c:	0c 94 94 00 	jmp	0x128	;  0x128
      40:	0c 94 cd 2c 	jmp	0x599a	;  0x599a
      44:	0c 94 94 00 	jmp	0x128	;  0x128
      48:	0c 94 31 20 	jmp	0x4062	;  0x4062
      4c:	0c 94 94 00 	jmp	0x128	;  0x128
      50:	0c 94 94 00 	jmp	0x128	;  0x128
      54:	0c 94 94 00 	jmp	0x128	;  0x128
      58:	0c 94 94 00 	jmp	0x128	;  0x128
      5c:	0c 94 94 00 	jmp	0x128	;  0x128
      60:	0c 94 94 00 	jmp	0x128	;  0x128
      64:	0c 94 94 00 	jmp	0x128	;  0x128
      68:	7c 3c       	cpi	r23, 0xCC	; 204
      6a:	3e 5e       	subi	r19, 0xEE	; 238
      6c:	2b 3d       	cpi	r18, 0xDB	; 219
      6e:	3f 2f       	mov	r19, r31
      70:	5b 5d       	subi	r21, 0xDB	; 219
      72:	3b 2c       	mov	r3, r11
      74:	2a 22       	and	r2, r26
      76:	5c 00       	.word	0x005c	; ????
      78:	00 00       	nop
      7a:	00 00       	nop
      7c:	24 00       	.word	0x0024	; ????
      7e:	27 00       	.word	0x0027	; ????
      80:	2a 00       	.word	0x002a	; ????
      82:	00 00       	nop
      84:	00 00       	nop
      86:	25 00       	.word	0x0025	; ????
      88:	28 00       	.word	0x0028	; ????
      8a:	2b 00       	.word	0x002b	; ????
      8c:	00 00       	nop
      8e:	00 00       	nop
      90:	23 00       	.word	0x0023	; ????
      92:	26 00       	.word	0x0026	; ????
      94:	29 00       	.word	0x0029	; ????
      96:	04 04       	cpc	r0, r4
      98:	04 04       	cpc	r0, r4
      9a:	04 04       	cpc	r0, r4
      9c:	04 04       	cpc	r0, r4
      9e:	02 02       	muls	r16, r18
      a0:	02 02       	muls	r16, r18
      a2:	02 02       	muls	r16, r18
      a4:	03 03       	mulsu	r16, r19
      a6:	03 03       	mulsu	r16, r19
      a8:	03 03       	mulsu	r16, r19
      aa:	01 02       	muls	r16, r17
      ac:	04 08       	sbc	r0, r4
      ae:	10 20       	and	r1, r0
      b0:	40 80       	ld	r4, Z
      b2:	01 02       	muls	r16, r17
      b4:	04 08       	sbc	r0, r4
      b6:	10 20       	and	r1, r0
      b8:	01 02       	muls	r16, r17
      ba:	04 08       	sbc	r0, r4
      bc:	10 20       	and	r1, r0
      be:	00 00       	nop
      c0:	00 07       	cpc	r16, r16
      c2:	00 02       	muls	r16, r16
      c4:	01 00       	.word	0x0001	; ????
      c6:	00 03       	mulsu	r16, r16
      c8:	04 06       	cpc	r0, r20
	...
      d2:	d0 1a       	sub	r13, r16
      d4:	18 1d       	adc	r17, r8
      d6:	b3 21       	and	r27, r3
      d8:	11 24       	eor	r1, r1
      da:	1f be       	out	0x3f, r1	; 63
      dc:	cf ef       	ldi	r28, 0xFF	; 255
      de:	d8 e0       	ldi	r29, 0x08	; 8
      e0:	de bf       	out	0x3e, r29	; 62
      e2:	cd bf       	out	0x3d, r28	; 61
      e4:	12 e0       	ldi	r17, 0x02	; 2
      e6:	a0 e0       	ldi	r26, 0x00	; 0
      e8:	b1 e0       	ldi	r27, 0x01	; 1
      ea:	e2 e6       	ldi	r30, 0x62	; 98
      ec:	fe e6       	ldi	r31, 0x6E	; 110
      ee:	02 c0       	rjmp	.+4      	;  0xf4
      f0:	05 90       	lpm	r0, Z+
      f2:	0d 92       	st	X+, r0
      f4:	a2 39       	cpi	r26, 0x92	; 146
      f6:	b1 07       	cpc	r27, r17
      f8:	d9 f7       	brne	.-10     	;  0xf0
      fa:	15 e0       	ldi	r17, 0x05	; 5
      fc:	a2 e9       	ldi	r26, 0x92	; 146
      fe:	b2 e0       	ldi	r27, 0x02	; 2
     100:	01 c0       	rjmp	.+2      	;  0x104
     102:	1d 92       	st	X+, r1
     104:	a8 3c       	cpi	r26, 0xC8	; 200
     106:	b1 07       	cpc	r27, r17
     108:	e1 f7       	brne	.-8      	;  0x102
     10a:	10 e0       	ldi	r17, 0x00	; 0
     10c:	c8 ed       	ldi	r28, 0xD8	; 216
     10e:	d0 e0       	ldi	r29, 0x00	; 0
     110:	04 c0       	rjmp	.+8      	;  0x11a
     112:	22 97       	sbiw	r28, 0x02	; 2
     114:	fe 01       	movw	r30, r28
     116:	0e 94 14 31 	call	0x6228	;  0x6228
     11a:	c2 3d       	cpi	r28, 0xD2	; 210
     11c:	d1 07       	cpc	r29, r17
     11e:	c9 f7       	brne	.-14     	;  0x112
     120:	0e 94 28 20 	call	0x4050	;  0x4050
     124:	0c 94 2f 37 	jmp	0x6e5e	;  0x6e5e
     128:	0c 94 00 00 	jmp	0	;  0x0
     12c:	fc 01       	movw	r30, r24
     12e:	60 83       	st	Z, r22
     130:	41 83       	std	Z+1, r20	; 0x01
     132:	12 82       	std	Z+2, r1	; 0x02
     134:	13 82       	std	Z+3, r1	; 0x03
     136:	14 82       	std	Z+4, r1	; 0x04
     138:	15 82       	std	Z+5, r1	; 0x05
     13a:	08 95       	ret
     13c:	fc 01       	movw	r30, r24
     13e:	60 83       	st	Z, r22
     140:	41 83       	std	Z+1, r20	; 0x01
     142:	12 82       	std	Z+2, r1	; 0x02
     144:	13 82       	std	Z+3, r1	; 0x03
     146:	14 82       	std	Z+4, r1	; 0x04
     148:	15 82       	std	Z+5, r1	; 0x05
     14a:	08 95       	ret
     14c:	af 92       	push	r10
     14e:	bf 92       	push	r11
     150:	df 92       	push	r13
     152:	ef 92       	push	r14
     154:	ff 92       	push	r15
     156:	0f 93       	push	r16
     158:	1f 93       	push	r17
     15a:	cf 93       	push	r28
     15c:	df 93       	push	r29
     15e:	ec 01       	movw	r28, r24
     160:	b6 2e       	mov	r11, r22
     162:	8a 81       	ldd	r24, Y+2	; 0x02
     164:	9b 81       	ldd	r25, Y+3	; 0x03
     166:	ac 81       	ldd	r26, Y+4	; 0x04
     168:	bd 81       	ldd	r27, Y+5	; 0x05
     16a:	00 97       	sbiw	r24, 0x00	; 0
     16c:	a1 05       	cpc	r26, r1
     16e:	b1 05       	cpc	r27, r1
     170:	81 f1       	breq	.+96     	;  0x1d2
     172:	ee 80       	ldd	r14, Y+6	; 0x06
     174:	ff 80       	ldd	r15, Y+7	; 0x07
     176:	8d ef       	ldi	r24, 0xFD	; 253
     178:	9f ef       	ldi	r25, 0xFF	; 255
     17a:	e8 0e       	add	r14, r24
     17c:	f9 1e       	adc	r15, r25
     17e:	89 81       	ldd	r24, Y+1	; 0x01
     180:	60 e0       	ldi	r22, 0x00	; 0
     182:	0e 94 07 2e 	call	0x5c0e	;  0x5c0e
     186:	c7 01       	movw	r24, r14
     188:	0e 94 6f 2d 	call	0x5ade	;  0x5ade
     18c:	dd 24       	eor	r13, r13
     18e:	d3 94       	inc	r13
     190:	00 e0       	ldi	r16, 0x00	; 0
     192:	10 e0       	ldi	r17, 0x00	; 0
     194:	ab 2c       	mov	r10, r11
     196:	bb 24       	eor	r11, r11
     198:	8d 2d       	mov	r24, r13
     19a:	90 e0       	ldi	r25, 0x00	; 0
     19c:	8a 21       	and	r24, r10
     19e:	9b 21       	and	r25, r11
     1a0:	89 2b       	or	r24, r25
     1a2:	19 f0       	breq	.+6      	;  0x1aa
     1a4:	89 81       	ldd	r24, Y+1	; 0x01
     1a6:	61 e0       	ldi	r22, 0x01	; 1
     1a8:	02 c0       	rjmp	.+4      	;  0x1ae
     1aa:	89 81       	ldd	r24, Y+1	; 0x01
     1ac:	60 e0       	ldi	r22, 0x00	; 0
     1ae:	0e 94 07 2e 	call	0x5c0e	;  0x5c0e
     1b2:	c7 01       	movw	r24, r14
     1b4:	0e 94 6f 2d 	call	0x5ade	;  0x5ade
     1b8:	dd 0c       	add	r13, r13
     1ba:	0f 5f       	subi	r16, 0xFF	; 255
     1bc:	1f 4f       	sbci	r17, 0xFF	; 255
     1be:	08 30       	cpi	r16, 0x08	; 8
     1c0:	11 05       	cpc	r17, r1
     1c2:	51 f7       	brne	.-44     	;  0x198
     1c4:	89 81       	ldd	r24, Y+1	; 0x01
     1c6:	61 e0       	ldi	r22, 0x01	; 1
     1c8:	0e 94 07 2e 	call	0x5c0e	;  0x5c0e
     1cc:	c7 01       	movw	r24, r14
     1ce:	0e 94 6f 2d 	call	0x5ade	;  0x5ade
     1d2:	df 91       	pop	r29
     1d4:	cf 91       	pop	r28
     1d6:	1f 91       	pop	r17
     1d8:	0f 91       	pop	r16
     1da:	ff 90       	pop	r15
     1dc:	ef 90       	pop	r14
     1de:	df 90       	pop	r13
     1e0:	bf 90       	pop	r11
     1e2:	af 90       	pop	r10
     1e4:	08 95       	ret
     1e6:	0e 94 a6 00 	call	0x14c	;  0x14c
     1ea:	08 95       	ret
     1ec:	2f 92       	push	r2
     1ee:	3f 92       	push	r3
     1f0:	4f 92       	push	r4
     1f2:	5f 92       	push	r5
     1f4:	6f 92       	push	r6
     1f6:	7f 92       	push	r7
     1f8:	8f 92       	push	r8
     1fa:	9f 92       	push	r9
     1fc:	af 92       	push	r10
     1fe:	bf 92       	push	r11
     200:	cf 92       	push	r12
     202:	df 92       	push	r13
     204:	ef 92       	push	r14
     206:	ff 92       	push	r15
     208:	0f 93       	push	r16
     20a:	1f 93       	push	r17
     20c:	df 93       	push	r29
     20e:	cf 93       	push	r28
     210:	cd b7       	in	r28, 0x3d	; 61
     212:	de b7       	in	r29, 0x3e	; 62
     214:	a0 97       	sbiw	r28, 0x20	; 32
     216:	0f b6       	in	r0, 0x3f	; 63
     218:	f8 94       	cli
     21a:	de bf       	out	0x3e, r29	; 62
     21c:	0f be       	out	0x3f, r0	; 63
     21e:	cd bf       	out	0x3d, r28	; 61
     220:	1c 01       	movw	r2, r24
     222:	6a 01       	movw	r12, r20
     224:	7b 01       	movw	r14, r22
     226:	41 15       	cp	r20, r1
     228:	51 05       	cpc	r21, r1
     22a:	61 05       	cpc	r22, r1
     22c:	71 05       	cpc	r23, r1
     22e:	21 f4       	brne	.+8      	;  0x238
     230:	60 e3       	ldi	r22, 0x30	; 48
     232:	0e 94 a6 00 	call	0x14c	;  0x14c
     236:	4f c0       	rjmp	.+158    	;  0x2d6
     238:	88 24       	eor	r8, r8
     23a:	99 24       	eor	r9, r9
     23c:	54 01       	movw	r10, r8
     23e:	42 2e       	mov	r4, r18
     240:	55 24       	eor	r5, r5
     242:	66 24       	eor	r6, r6
     244:	77 24       	eor	r7, r7
     246:	01 e0       	ldi	r16, 0x01	; 1
     248:	10 e0       	ldi	r17, 0x00	; 0
     24a:	0c 0f       	add	r16, r28
     24c:	1d 1f       	adc	r17, r29
     24e:	08 0d       	add	r16, r8
     250:	19 1d       	adc	r17, r9
     252:	c7 01       	movw	r24, r14
     254:	b6 01       	movw	r22, r12
     256:	a3 01       	movw	r20, r6
     258:	92 01       	movw	r18, r4
     25a:	0e 94 c1 30 	call	0x6182	;  0x6182
     25e:	f8 01       	movw	r30, r16
     260:	60 83       	st	Z, r22
     262:	08 94       	sec
     264:	81 1c       	adc	r8, r1
     266:	91 1c       	adc	r9, r1
     268:	a1 1c       	adc	r10, r1
     26a:	b1 1c       	adc	r11, r1
     26c:	c7 01       	movw	r24, r14
     26e:	b6 01       	movw	r22, r12
     270:	a3 01       	movw	r20, r6
     272:	92 01       	movw	r18, r4
     274:	0e 94 c1 30 	call	0x6182	;  0x6182
     278:	c9 01       	movw	r24, r18
     27a:	da 01       	movw	r26, r20
     27c:	6c 01       	movw	r12, r24
     27e:	7d 01       	movw	r14, r26
     280:	c1 14       	cp	r12, r1
     282:	d1 04       	cpc	r13, r1
     284:	e1 04       	cpc	r14, r1
     286:	f1 04       	cpc	r15, r1
     288:	f1 f6       	brne	.-68     	;  0x246
     28a:	81 e0       	ldi	r24, 0x01	; 1
     28c:	e8 2e       	mov	r14, r24
     28e:	f1 2c       	mov	r15, r1
     290:	ec 0e       	add	r14, r28
     292:	fd 1e       	adc	r15, r29
     294:	e8 0c       	add	r14, r8
     296:	f9 1c       	adc	r15, r9
     298:	3e 01       	movw	r6, r28
     29a:	08 94       	sec
     29c:	61 1c       	adc	r6, r1
     29e:	71 1c       	adc	r7, r1
     2a0:	d5 01       	movw	r26, r10
     2a2:	c4 01       	movw	r24, r8
     2a4:	01 97       	sbiw	r24, 0x01	; 1
     2a6:	a1 09       	sbc	r26, r1
     2a8:	b1 09       	sbc	r27, r1
     2aa:	6c 01       	movw	r12, r24
     2ac:	c8 18       	sub	r12, r8
     2ae:	d9 08       	sbc	r13, r9
     2b0:	0f c0       	rjmp	.+30     	;  0x2d0
     2b2:	f6 01       	movw	r30, r12
     2b4:	ee 0d       	add	r30, r14
     2b6:	ff 1d       	adc	r31, r15
     2b8:	60 81       	ld	r22, Z
     2ba:	6a 30       	cpi	r22, 0x0A	; 10
     2bc:	10 f4       	brcc	.+4      	;  0x2c2
     2be:	60 5d       	subi	r22, 0xD0	; 208
     2c0:	01 c0       	rjmp	.+2      	;  0x2c4
     2c2:	69 5c       	subi	r22, 0xC9	; 201
     2c4:	c1 01       	movw	r24, r2
     2c6:	0e 94 a6 00 	call	0x14c	;  0x14c
     2ca:	08 94       	sec
     2cc:	e1 08       	sbc	r14, r1
     2ce:	f1 08       	sbc	r15, r1
     2d0:	6e 14       	cp	r6, r14
     2d2:	7f 04       	cpc	r7, r15
     2d4:	71 f7       	brne	.-36     	;  0x2b2
     2d6:	a0 96       	adiw	r28, 0x20	; 32
     2d8:	0f b6       	in	r0, 0x3f	; 63
     2da:	f8 94       	cli
     2dc:	de bf       	out	0x3e, r29	; 62
     2de:	0f be       	out	0x3f, r0	; 63
     2e0:	cd bf       	out	0x3d, r28	; 61
     2e2:	cf 91       	pop	r28
     2e4:	df 91       	pop	r29
     2e6:	1f 91       	pop	r17
     2e8:	0f 91       	pop	r16
     2ea:	ff 90       	pop	r15
     2ec:	ef 90       	pop	r14
     2ee:	df 90       	pop	r13
     2f0:	cf 90       	pop	r12
     2f2:	bf 90       	pop	r11
     2f4:	af 90       	pop	r10
     2f6:	9f 90       	pop	r9
     2f8:	8f 90       	pop	r8
     2fa:	7f 90       	pop	r7
     2fc:	6f 90       	pop	r6
     2fe:	5f 90       	pop	r5
     300:	4f 90       	pop	r4
     302:	3f 90       	pop	r3
     304:	2f 90       	pop	r2
     306:	08 95       	ret
     308:	2a e0       	ldi	r18, 0x0A	; 10
     30a:	0e 94 f6 00 	call	0x1ec	;  0x1ec
     30e:	08 95       	ret
     310:	ab 01       	movw	r20, r22
     312:	60 e0       	ldi	r22, 0x00	; 0
     314:	70 e0       	ldi	r23, 0x00	; 0
     316:	0e 94 84 01 	call	0x308	;  0x308
     31a:	08 95       	ret
     31c:	0f 93       	push	r16
     31e:	1f 93       	push	r17
     320:	8c 01       	movw	r16, r24
     322:	6d e0       	ldi	r22, 0x0D	; 13
     324:	0e 94 a6 00 	call	0x14c	;  0x14c
     328:	c8 01       	movw	r24, r16
     32a:	6a e0       	ldi	r22, 0x0A	; 10
     32c:	0e 94 a6 00 	call	0x14c	;  0x14c
     330:	1f 91       	pop	r17
     332:	0f 91       	pop	r16
     334:	08 95       	ret
     336:	0f 93       	push	r16
     338:	1f 93       	push	r17
     33a:	8c 01       	movw	r16, r24
     33c:	0e 94 84 01 	call	0x308	;  0x308
     340:	c8 01       	movw	r24, r16
     342:	0e 94 8e 01 	call	0x31c	;  0x31c
     346:	1f 91       	pop	r17
     348:	0f 91       	pop	r16
     34a:	08 95       	ret
     34c:	0f 93       	push	r16
     34e:	1f 93       	push	r17
     350:	8c 01       	movw	r16, r24
     352:	0e 94 a6 00 	call	0x14c	;  0x14c
     356:	c8 01       	movw	r24, r16
     358:	0e 94 8e 01 	call	0x31c	;  0x31c
     35c:	1f 91       	pop	r17
     35e:	0f 91       	pop	r16
     360:	08 95       	ret
     362:	0f 93       	push	r16
     364:	1f 93       	push	r17
     366:	8c 01       	movw	r16, r24
     368:	0e 94 a6 00 	call	0x14c	;  0x14c
     36c:	c8 01       	movw	r24, r16
     36e:	0e 94 8e 01 	call	0x31c	;  0x31c
     372:	1f 91       	pop	r17
     374:	0f 91       	pop	r16
     376:	08 95       	ret
     378:	ef 92       	push	r14
     37a:	ff 92       	push	r15
     37c:	0f 93       	push	r16
     37e:	1f 93       	push	r17
     380:	cf 93       	push	r28
     382:	df 93       	push	r29
     384:	ec 01       	movw	r28, r24
     386:	7a 01       	movw	r14, r20
     388:	8b 01       	movw	r16, r22
     38a:	77 ff       	sbrs	r23, 7
     38c:	0b c0       	rjmp	.+22     	;  0x3a4
     38e:	6d e2       	ldi	r22, 0x2D	; 45
     390:	0e 94 a6 00 	call	0x14c	;  0x14c
     394:	10 95       	com	r17
     396:	00 95       	com	r16
     398:	f0 94       	com	r15
     39a:	e0 94       	com	r14
     39c:	e1 1c       	adc	r14, r1
     39e:	f1 1c       	adc	r15, r1
     3a0:	01 1d       	adc	r16, r1
     3a2:	11 1d       	adc	r17, r1
     3a4:	ce 01       	movw	r24, r28
     3a6:	b8 01       	movw	r22, r16
     3a8:	a7 01       	movw	r20, r14
     3aa:	2a e0       	ldi	r18, 0x0A	; 10
     3ac:	0e 94 f6 00 	call	0x1ec	;  0x1ec
     3b0:	df 91       	pop	r29
     3b2:	cf 91       	pop	r28
     3b4:	1f 91       	pop	r17
     3b6:	0f 91       	pop	r16
     3b8:	ff 90       	pop	r15
     3ba:	ef 90       	pop	r14
     3bc:	08 95       	ret
     3be:	0f 93       	push	r16
     3c0:	1f 93       	push	r17
     3c2:	8c 01       	movw	r16, r24
     3c4:	0e 94 bc 01 	call	0x378	;  0x378
     3c8:	c8 01       	movw	r24, r16
     3ca:	0e 94 8e 01 	call	0x31c	;  0x31c
     3ce:	1f 91       	pop	r17
     3d0:	0f 91       	pop	r16
     3d2:	08 95       	ret
     3d4:	ab 01       	movw	r20, r22
     3d6:	66 27       	eor	r22, r22
     3d8:	57 fd       	sbrc	r21, 7
     3da:	60 95       	com	r22
     3dc:	76 2f       	mov	r23, r22
     3de:	0e 94 bc 01 	call	0x378	;  0x378
     3e2:	08 95       	ret
     3e4:	0f 93       	push	r16
     3e6:	1f 93       	push	r17
     3e8:	8c 01       	movw	r16, r24
     3ea:	ab 01       	movw	r20, r22
     3ec:	66 27       	eor	r22, r22
     3ee:	57 fd       	sbrc	r21, 7
     3f0:	60 95       	com	r22
     3f2:	76 2f       	mov	r23, r22
     3f4:	0e 94 bc 01 	call	0x378	;  0x378
     3f8:	c8 01       	movw	r24, r16
     3fa:	0e 94 8e 01 	call	0x31c	;  0x31c
     3fe:	1f 91       	pop	r17
     400:	0f 91       	pop	r16
     402:	08 95       	ret
     404:	21 15       	cp	r18, r1
     406:	31 05       	cpc	r19, r1
     408:	21 f4       	brne	.+8      	;  0x412
     40a:	64 2f       	mov	r22, r20
     40c:	0e 94 a6 00 	call	0x14c	;  0x14c
     410:	08 95       	ret
     412:	2a 30       	cpi	r18, 0x0A	; 10
     414:	31 05       	cpc	r19, r1
     416:	19 f4       	brne	.+6      	;  0x41e
     418:	0e 94 bc 01 	call	0x378	;  0x378
     41c:	08 95       	ret
     41e:	0e 94 f6 00 	call	0x1ec	;  0x1ec
     422:	08 95       	ret
     424:	0f 93       	push	r16
     426:	1f 93       	push	r17
     428:	8c 01       	movw	r16, r24
     42a:	0e 94 02 02 	call	0x404	;  0x404
     42e:	c8 01       	movw	r24, r16
     430:	0e 94 8e 01 	call	0x31c	;  0x31c
     434:	1f 91       	pop	r17
     436:	0f 91       	pop	r16
     438:	08 95       	ret
     43a:	0f 93       	push	r16
     43c:	1f 93       	push	r17
     43e:	cf 93       	push	r28
     440:	df 93       	push	r29
     442:	8c 01       	movw	r16, r24
     444:	eb 01       	movw	r28, r22
     446:	04 c0       	rjmp	.+8      	;  0x450
     448:	21 96       	adiw	r28, 0x01	; 1
     44a:	c8 01       	movw	r24, r16
     44c:	0e 94 a6 00 	call	0x14c	;  0x14c
     450:	68 81       	ld	r22, Y
     452:	66 23       	and	r22, r22
     454:	c9 f7       	brne	.-14     	;  0x448
     456:	df 91       	pop	r29
     458:	cf 91       	pop	r28
     45a:	1f 91       	pop	r17
     45c:	0f 91       	pop	r16
     45e:	08 95       	ret
     460:	0f 93       	push	r16
     462:	1f 93       	push	r17
     464:	8c 01       	movw	r16, r24
     466:	0e 94 1d 02 	call	0x43a	;  0x43a
     46a:	c8 01       	movw	r24, r16
     46c:	0e 94 8e 01 	call	0x31c	;  0x31c
     470:	1f 91       	pop	r17
     472:	0f 91       	pop	r16
     474:	08 95       	ret
     476:	0f 93       	push	r16
     478:	1f 93       	push	r17
     47a:	8c 01       	movw	r16, r24
     47c:	9a 01       	movw	r18, r20
     47e:	ab 01       	movw	r20, r22
     480:	fc 01       	movw	r30, r24
     482:	22 83       	std	Z+2, r18	; 0x02
     484:	33 83       	std	Z+3, r19	; 0x03
     486:	44 83       	std	Z+4, r20	; 0x04
     488:	55 83       	std	Z+5, r21	; 0x05
     48a:	60 e4       	ldi	r22, 0x40	; 64
     48c:	72 e4       	ldi	r23, 0x42	; 66
     48e:	8f e0       	ldi	r24, 0x0F	; 15
     490:	90 e0       	ldi	r25, 0x00	; 0
     492:	0e 94 e3 30 	call	0x61c6	;  0x61c6
     496:	f8 01       	movw	r30, r16
     498:	37 83       	std	Z+7, r19	; 0x07
     49a:	26 83       	std	Z+6, r18	; 0x06
     49c:	81 81       	ldd	r24, Z+1	; 0x01
     49e:	61 e0       	ldi	r22, 0x01	; 1
     4a0:	0e 94 07 2e 	call	0x5c0e	;  0x5c0e
     4a4:	f8 01       	movw	r30, r16
     4a6:	86 81       	ldd	r24, Z+6	; 0x06
     4a8:	97 81       	ldd	r25, Z+7	; 0x07
     4aa:	0e 94 6f 2d 	call	0x5ade	;  0x5ade
     4ae:	1f 91       	pop	r17
     4b0:	0f 91       	pop	r16
     4b2:	08 95       	ret
     4b4:	cf 92       	push	r12
     4b6:	df 92       	push	r13
     4b8:	ef 92       	push	r14
     4ba:	ff 92       	push	r15
     4bc:	0f 93       	push	r16
     4be:	1f 93       	push	r17
     4c0:	cf 93       	push	r28
     4c2:	df 93       	push	r29
     4c4:	7c 01       	movw	r14, r24
     4c6:	fc 01       	movw	r30, r24
     4c8:	c6 81       	ldd	r28, Z+6	; 0x06
     4ca:	d7 81       	ldd	r29, Z+7	; 0x07
     4cc:	f7 01       	movw	r30, r14
     4ce:	80 81       	ld	r24, Z
     4d0:	0e 94 3c 2e 	call	0x5c78	;  0x5c78
     4d4:	89 2b       	or	r24, r25
     4d6:	d1 f7       	brne	.-12     	;  0x4cc
     4d8:	f7 01       	movw	r30, r14
     4da:	80 81       	ld	r24, Z
     4dc:	0e 94 3c 2e 	call	0x5c78	;  0x5c78
     4e0:	89 2b       	or	r24, r25
     4e2:	19 f0       	breq	.+6      	;  0x4ea
     4e4:	0f ef       	ldi	r16, 0xFF	; 255
     4e6:	1f ef       	ldi	r17, 0xFF	; 255
     4e8:	2b c0       	rjmp	.+86     	;  0x540
     4ea:	9d ef       	ldi	r25, 0xFD	; 253
     4ec:	c9 2e       	mov	r12, r25
     4ee:	9f ef       	ldi	r25, 0xFF	; 255
     4f0:	d9 2e       	mov	r13, r25
     4f2:	cc 0e       	add	r12, r28
     4f4:	dd 1e       	adc	r13, r29
     4f6:	c6 01       	movw	r24, r12
     4f8:	62 e0       	ldi	r22, 0x02	; 2
     4fa:	70 e0       	ldi	r23, 0x00	; 0
     4fc:	0e 94 ae 30 	call	0x615c	;  0x615c
     500:	cb 01       	movw	r24, r22
     502:	03 97       	sbiw	r24, 0x03	; 3
     504:	0e 94 6f 2d 	call	0x5ade	;  0x5ade
     508:	00 e0       	ldi	r16, 0x00	; 0
     50a:	10 e0       	ldi	r17, 0x00	; 0
     50c:	c0 e0       	ldi	r28, 0x00	; 0
     50e:	d0 e0       	ldi	r29, 0x00	; 0
     510:	c6 01       	movw	r24, r12
     512:	0e 94 6f 2d 	call	0x5ade	;  0x5ade
     516:	f7 01       	movw	r30, r14
     518:	80 81       	ld	r24, Z
     51a:	0e 94 3c 2e 	call	0x5c78	;  0x5c78
     51e:	0c 2e       	mov	r0, r28
     520:	02 c0       	rjmp	.+4      	;  0x526
     522:	88 0f       	add	r24, r24
     524:	99 1f       	adc	r25, r25
     526:	0a 94       	dec	r0
     528:	e2 f7       	brpl	.-8      	;  0x522
     52a:	08 2b       	or	r16, r24
     52c:	19 2b       	or	r17, r25
     52e:	21 96       	adiw	r28, 0x01	; 1
     530:	c8 30       	cpi	r28, 0x08	; 8
     532:	d1 05       	cpc	r29, r1
     534:	69 f7       	brne	.-38     	;  0x510
     536:	f7 01       	movw	r30, r14
     538:	86 81       	ldd	r24, Z+6	; 0x06
     53a:	97 81       	ldd	r25, Z+7	; 0x07
     53c:	0e 94 6f 2d 	call	0x5ade	;  0x5ade
     540:	c8 01       	movw	r24, r16
     542:	df 91       	pop	r29
     544:	cf 91       	pop	r28
     546:	1f 91       	pop	r17
     548:	0f 91       	pop	r16
     54a:	ff 90       	pop	r15
     54c:	ef 90       	pop	r14
     54e:	df 90       	pop	r13
     550:	cf 90       	pop	r12
     552:	08 95       	ret
     554:	fc 01       	movw	r30, r24
     556:	67 30       	cpi	r22, 0x07	; 7
     558:	20 f0       	brcs	.+8      	;  0x562
     55a:	86 e1       	ldi	r24, 0x16	; 22
     55c:	85 83       	std	Z+5, r24	; 0x05
     55e:	80 e0       	ldi	r24, 0x00	; 0
     560:	08 95       	ret
     562:	26 2f       	mov	r18, r22
     564:	30 e0       	ldi	r19, 0x00	; 0
     566:	60 fd       	sbrc	r22, 0
     568:	02 c0       	rjmp	.+4      	;  0x56e
     56a:	66 30       	cpi	r22, 0x06	; 6
     56c:	19 f4       	brne	.+6      	;  0x574
     56e:	8d b5       	in	r24, 0x2d	; 45
     570:	8e 7f       	andi	r24, 0xFE	; 254
     572:	02 c0       	rjmp	.+4      	;  0x578
     574:	8d b5       	in	r24, 0x2d	; 45
     576:	81 60       	ori	r24, 0x01	; 1
     578:	8d bd       	out	0x2d, r24	; 45
     57a:	8c b5       	in	r24, 0x2c	; 44
     57c:	8c 7f       	andi	r24, 0xFC	; 252
     57e:	8c bd       	out	0x2c, r24	; 44
     580:	4c b5       	in	r20, 0x2c	; 44
     582:	22 fd       	sbrc	r18, 2
     584:	02 c0       	rjmp	.+4      	;  0x58a
     586:	90 e0       	ldi	r25, 0x00	; 0
     588:	01 c0       	rjmp	.+2      	;  0x58c
     58a:	92 e0       	ldi	r25, 0x02	; 2
     58c:	36 95       	lsr	r19
     58e:	27 95       	ror	r18
     590:	82 2f       	mov	r24, r18
     592:	81 70       	andi	r24, 0x01	; 1
     594:	84 2b       	or	r24, r20
     596:	89 2b       	or	r24, r25
     598:	8c bd       	out	0x2c, r24	; 44
     59a:	81 e0       	ldi	r24, 0x01	; 1
     59c:	08 95       	ret
     59e:	ff 92       	push	r15
     5a0:	0f 93       	push	r16
     5a2:	1f 93       	push	r17
     5a4:	cf 93       	push	r28
     5a6:	df 93       	push	r29
     5a8:	8b 01       	movw	r16, r22
     5aa:	0e 94 15 2d 	call	0x5a2a	;  0x5a2a
     5ae:	eb 01       	movw	r28, r22
     5b0:	ff 24       	eor	r15, r15
     5b2:	fa 94       	dec	r15
     5b4:	fe bc       	out	0x2e, r15	; 46
     5b6:	0d b4       	in	r0, 0x2d	; 45
     5b8:	07 fe       	sbrs	r0, 7
     5ba:	fd cf       	rjmp	.-6      	;  0x5b6
     5bc:	8e b5       	in	r24, 0x2e	; 46
     5be:	8f 3f       	cpi	r24, 0xFF	; 255
     5c0:	11 f4       	brne	.+4      	;  0x5c6
     5c2:	81 e0       	ldi	r24, 0x01	; 1
     5c4:	08 c0       	rjmp	.+16     	;  0x5d6
     5c6:	0e 94 15 2d 	call	0x5a2a	;  0x5a2a
     5ca:	6c 1b       	sub	r22, r28
     5cc:	7d 0b       	sbc	r23, r29
     5ce:	60 17       	cp	r22, r16
     5d0:	71 07       	cpc	r23, r17
     5d2:	80 f3       	brcs	.-32     	;  0x5b4
     5d4:	80 e0       	ldi	r24, 0x00	; 0
     5d6:	df 91       	pop	r29
     5d8:	cf 91       	pop	r28
     5da:	1f 91       	pop	r17
     5dc:	0f 91       	pop	r16
     5de:	ff 90       	pop	r15
     5e0:	08 95       	ret
     5e2:	fc 01       	movw	r30, r24
     5e4:	84 81       	ldd	r24, Z+4	; 0x04
     5e6:	60 e0       	ldi	r22, 0x00	; 0
     5e8:	0e 94 07 2e 	call	0x5c0e	;  0x5c0e
     5ec:	08 95       	ret
     5ee:	fc 01       	movw	r30, r24
     5f0:	84 81       	ldd	r24, Z+4	; 0x04
     5f2:	61 e0       	ldi	r22, 0x01	; 1
     5f4:	0e 94 07 2e 	call	0x5c0e	;  0x5c0e
     5f8:	08 95       	ret
     5fa:	cf 93       	push	r28
     5fc:	df 93       	push	r29
     5fe:	ec 01       	movw	r28, r24
     600:	68 e5       	ldi	r22, 0x58	; 88
     602:	72 e0       	ldi	r23, 0x02	; 2
     604:	0e 94 cf 02 	call	0x59e	;  0x59e
     608:	88 23       	and	r24, r24
     60a:	89 f0       	breq	.+34     	;  0x62e
     60c:	8d ef       	ldi	r24, 0xFD	; 253
     60e:	8e bd       	out	0x2e, r24	; 46
     610:	0d b4       	in	r0, 0x2d	; 45
     612:	07 fe       	sbrs	r0, 7
     614:	fd cf       	rjmp	.-6      	;  0x610
     616:	ce 01       	movw	r24, r28
     618:	68 e5       	ldi	r22, 0x58	; 88
     61a:	72 e0       	ldi	r23, 0x02	; 2
     61c:	0e 94 cf 02 	call	0x59e	;  0x59e
     620:	88 23       	and	r24, r24
     622:	29 f0       	breq	.+10     	;  0x62e
     624:	ce 01       	movw	r24, r28
     626:	0e 94 f7 02 	call	0x5ee	;  0x5ee
     62a:	81 e0       	ldi	r24, 0x01	; 1
     62c:	06 c0       	rjmp	.+12     	;  0x63a
     62e:	80 e1       	ldi	r24, 0x10	; 16
     630:	8d 83       	std	Y+5, r24	; 0x05
     632:	ce 01       	movw	r24, r28
     634:	0e 94 f7 02 	call	0x5ee	;  0x5ee
     638:	80 e0       	ldi	r24, 0x00	; 0
     63a:	df 91       	pop	r29
     63c:	cf 91       	pop	r28
     63e:	08 95       	ret
     640:	dc 01       	movw	r26, r24
     642:	6e bd       	out	0x2e, r22	; 46
     644:	fa 01       	movw	r30, r20
     646:	20 e0       	ldi	r18, 0x00	; 0
     648:	30 e0       	ldi	r19, 0x00	; 0
     64a:	0d b4       	in	r0, 0x2d	; 45
     64c:	07 fe       	sbrs	r0, 7
     64e:	fd cf       	rjmp	.-6      	;  0x64a
     650:	80 81       	ld	r24, Z
     652:	8e bd       	out	0x2e, r24	; 46
     654:	0d b4       	in	r0, 0x2d	; 45
     656:	07 fe       	sbrs	r0, 7
     658:	fd cf       	rjmp	.-6      	;  0x654
     65a:	81 81       	ldd	r24, Z+1	; 0x01
     65c:	8e bd       	out	0x2e, r24	; 46
     65e:	2e 5f       	subi	r18, 0xFE	; 254
     660:	3f 4f       	sbci	r19, 0xFF	; 255
     662:	32 96       	adiw	r30, 0x02	; 2
     664:	82 e0       	ldi	r24, 0x02	; 2
     666:	20 30       	cpi	r18, 0x00	; 0
     668:	38 07       	cpc	r19, r24
     66a:	79 f7       	brne	.-34     	;  0x64a
     66c:	0d b4       	in	r0, 0x2d	; 45
     66e:	07 fe       	sbrs	r0, 7
     670:	fd cf       	rjmp	.-6      	;  0x66c
     672:	8f ef       	ldi	r24, 0xFF	; 255
     674:	8e bd       	out	0x2e, r24	; 46
     676:	0d b4       	in	r0, 0x2d	; 45
     678:	07 fe       	sbrs	r0, 7
     67a:	fd cf       	rjmp	.-6      	;  0x676
     67c:	8f ef       	ldi	r24, 0xFF	; 255
     67e:	8e bd       	out	0x2e, r24	; 46
     680:	0d b4       	in	r0, 0x2d	; 45
     682:	07 fe       	sbrs	r0, 7
     684:	fd cf       	rjmp	.-6      	;  0x680
     686:	8f ef       	ldi	r24, 0xFF	; 255
     688:	8e bd       	out	0x2e, r24	; 46
     68a:	0d b4       	in	r0, 0x2d	; 45
     68c:	07 fe       	sbrs	r0, 7
     68e:	fd cf       	rjmp	.-6      	;  0x68a
     690:	8e b5       	in	r24, 0x2e	; 46
     692:	1a 96       	adiw	r26, 0x0a	; 10
     694:	8c 93       	st	X, r24
     696:	1a 97       	sbiw	r26, 0x0a	; 10
     698:	8f 71       	andi	r24, 0x1F	; 31
     69a:	85 30       	cpi	r24, 0x05	; 5
     69c:	11 f4       	brne	.+4      	;  0x6a2
     69e:	81 e0       	ldi	r24, 0x01	; 1
     6a0:	08 95       	ret
     6a2:	81 e1       	ldi	r24, 0x11	; 17
     6a4:	15 96       	adiw	r26, 0x05	; 5
     6a6:	8c 93       	st	X, r24
     6a8:	15 97       	sbiw	r26, 0x05	; 5
     6aa:	cd 01       	movw	r24, r26
     6ac:	0e 94 f7 02 	call	0x5ee	;  0x5ee
     6b0:	80 e0       	ldi	r24, 0x00	; 0
     6b2:	08 95       	ret
     6b4:	0f 93       	push	r16
     6b6:	1f 93       	push	r17
     6b8:	cf 93       	push	r28
     6ba:	df 93       	push	r29
     6bc:	ec 01       	movw	r28, r24
     6be:	8b 01       	movw	r16, r22
     6c0:	68 e5       	ldi	r22, 0x58	; 88
     6c2:	72 e0       	ldi	r23, 0x02	; 2
     6c4:	0e 94 cf 02 	call	0x59e	;  0x59e
     6c8:	88 23       	and	r24, r24
     6ca:	39 f4       	brne	.+14     	;  0x6da
     6cc:	83 e1       	ldi	r24, 0x13	; 19
     6ce:	8d 83       	std	Y+5, r24	; 0x05
     6d0:	ce 01       	movw	r24, r28
     6d2:	0e 94 f7 02 	call	0x5ee	;  0x5ee
     6d6:	80 e0       	ldi	r24, 0x00	; 0
     6d8:	05 c0       	rjmp	.+10     	;  0x6e4
     6da:	ce 01       	movw	r24, r28
     6dc:	6c ef       	ldi	r22, 0xFC	; 252
     6de:	a8 01       	movw	r20, r16
     6e0:	0e 94 20 03 	call	0x640	;  0x640
     6e4:	df 91       	pop	r29
     6e6:	cf 91       	pop	r28
     6e8:	1f 91       	pop	r17
     6ea:	0f 91       	pop	r16
     6ec:	08 95       	ret
     6ee:	ff 92       	push	r15
     6f0:	0f 93       	push	r16
     6f2:	1f 93       	push	r17
     6f4:	cf 93       	push	r28
     6f6:	df 93       	push	r29
     6f8:	ec 01       	movw	r28, r24
     6fa:	0e 94 15 2d 	call	0x5a2a	;  0x5a2a
     6fe:	8b 01       	movw	r16, r22
     700:	ff 24       	eor	r15, r15
     702:	fa 94       	dec	r15
     704:	09 c0       	rjmp	.+18     	;  0x718
     706:	0e 94 15 2d 	call	0x5a2a	;  0x5a2a
     70a:	60 1b       	sub	r22, r16
     70c:	71 0b       	sbc	r23, r17
     70e:	6d 52       	subi	r22, 0x2D	; 45
     710:	71 40       	sbci	r23, 0x01	; 1
     712:	10 f0       	brcs	.+4      	;  0x718
     714:	8f e0       	ldi	r24, 0x0F	; 15
     716:	0d c0       	rjmp	.+26     	;  0x732
     718:	fe bc       	out	0x2e, r15	; 46
     71a:	0d b4       	in	r0, 0x2d	; 45
     71c:	07 fe       	sbrs	r0, 7
     71e:	fd cf       	rjmp	.-6      	;  0x71a
     720:	8e b5       	in	r24, 0x2e	; 46
     722:	8a 87       	std	Y+10, r24	; 0x0a
     724:	8f 3f       	cpi	r24, 0xFF	; 255
     726:	79 f3       	breq	.-34     	;  0x706
     728:	8e 3f       	cpi	r24, 0xFE	; 254
     72a:	11 f4       	brne	.+4      	;  0x730
     72c:	81 e0       	ldi	r24, 0x01	; 1
     72e:	06 c0       	rjmp	.+12     	;  0x73c
     730:	8d e0       	ldi	r24, 0x0D	; 13
     732:	8d 83       	std	Y+5, r24	; 0x05
     734:	ce 01       	movw	r24, r28
     736:	0e 94 f7 02 	call	0x5ee	;  0x5ee
     73a:	80 e0       	ldi	r24, 0x00	; 0
     73c:	df 91       	pop	r29
     73e:	cf 91       	pop	r28
     740:	1f 91       	pop	r17
     742:	0f 91       	pop	r16
     744:	ff 90       	pop	r15
     746:	08 95       	ret
     748:	cf 93       	push	r28
     74a:	df 93       	push	r29
     74c:	ec 01       	movw	r28, r24
     74e:	8e 81       	ldd	r24, Y+6	; 0x06
     750:	88 23       	and	r24, r24
     752:	d1 f0       	breq	.+52     	;  0x788
     754:	8f ef       	ldi	r24, 0xFF	; 255
     756:	8e bd       	out	0x2e, r24	; 46
     758:	2f 81       	ldd	r18, Y+7	; 0x07
     75a:	38 85       	ldd	r19, Y+8	; 0x08
     75c:	4f ef       	ldi	r20, 0xFF	; 255
     75e:	04 c0       	rjmp	.+8      	;  0x768
     760:	0d b4       	in	r0, 0x2d	; 45
     762:	07 fe       	sbrs	r0, 7
     764:	fd cf       	rjmp	.-6      	;  0x760
     766:	4e bd       	out	0x2e, r20	; 46
     768:	2f 5f       	subi	r18, 0xFF	; 255
     76a:	3f 4f       	sbci	r19, 0xFF	; 255
     76c:	c9 01       	movw	r24, r18
     76e:	01 97       	sbiw	r24, 0x01	; 1
     770:	81 50       	subi	r24, 0x01	; 1
     772:	92 40       	sbci	r25, 0x02	; 2
     774:	a8 f3       	brcs	.-22     	;  0x760
     776:	38 87       	std	Y+8, r19	; 0x08
     778:	2f 83       	std	Y+7, r18	; 0x07
     77a:	0d b4       	in	r0, 0x2d	; 45
     77c:	07 fe       	sbrs	r0, 7
     77e:	fd cf       	rjmp	.-6      	;  0x77a
     780:	ce 01       	movw	r24, r28
     782:	0e 94 f7 02 	call	0x5ee	;  0x5ee
     786:	1e 82       	std	Y+6, r1	; 0x06
     788:	df 91       	pop	r29
     78a:	cf 91       	pop	r28
     78c:	08 95       	ret
     78e:	ff 92       	push	r15
     790:	0f 93       	push	r16
     792:	1f 93       	push	r17
     794:	8c 01       	movw	r16, r24
     796:	f6 2e       	mov	r15, r22
     798:	0e 94 a4 03 	call	0x748	;  0x748
     79c:	f8 01       	movw	r30, r16
     79e:	f1 86       	std	Z+9, r15	; 0x09
     7a0:	1f 91       	pop	r17
     7a2:	0f 91       	pop	r16
     7a4:	ff 90       	pop	r15
     7a6:	08 95       	ret
     7a8:	df 92       	push	r13
     7aa:	ef 92       	push	r14
     7ac:	ff 92       	push	r15
     7ae:	0f 93       	push	r16
     7b0:	1f 93       	push	r17
     7b2:	cf 93       	push	r28
     7b4:	df 93       	push	r29
     7b6:	ec 01       	movw	r28, r24
     7b8:	d6 2e       	mov	r13, r22
     7ba:	79 01       	movw	r14, r18
     7bc:	8a 01       	movw	r16, r20
     7be:	0e 94 a4 03 	call	0x748	;  0x748
     7c2:	ce 01       	movw	r24, r28
     7c4:	0e 94 f1 02 	call	0x5e2	;  0x5e2
     7c8:	ce 01       	movw	r24, r28
     7ca:	6c e2       	ldi	r22, 0x2C	; 44
     7cc:	71 e0       	ldi	r23, 0x01	; 1
     7ce:	0e 94 cf 02 	call	0x59e	;  0x59e
     7d2:	8d 2d       	mov	r24, r13
     7d4:	80 64       	ori	r24, 0x40	; 64
     7d6:	8e bd       	out	0x2e, r24	; 46
     7d8:	0d b4       	in	r0, 0x2d	; 45
     7da:	07 fe       	sbrs	r0, 7
     7dc:	fd cf       	rjmp	.-6      	;  0x7d8
     7de:	28 e1       	ldi	r18, 0x18	; 24
     7e0:	30 e0       	ldi	r19, 0x00	; 0
     7e2:	d8 01       	movw	r26, r16
     7e4:	c7 01       	movw	r24, r14
     7e6:	02 2e       	mov	r0, r18
     7e8:	04 c0       	rjmp	.+8      	;  0x7f2
     7ea:	b6 95       	lsr	r27
     7ec:	a7 95       	ror	r26
     7ee:	97 95       	ror	r25
     7f0:	87 95       	ror	r24
     7f2:	0a 94       	dec	r0
     7f4:	d2 f7       	brpl	.-12     	;  0x7ea
     7f6:	8e bd       	out	0x2e, r24	; 46
     7f8:	0d b4       	in	r0, 0x2d	; 45
     7fa:	07 fe       	sbrs	r0, 7
     7fc:	fd cf       	rjmp	.-6      	;  0x7f8
     7fe:	28 50       	subi	r18, 0x08	; 8
     800:	30 40       	sbci	r19, 0x00	; 0
     802:	8f ef       	ldi	r24, 0xFF	; 255
     804:	28 3f       	cpi	r18, 0xF8	; 248
     806:	38 07       	cpc	r19, r24
     808:	61 f7       	brne	.-40     	;  0x7e2
     80a:	dd 20       	and	r13, r13
     80c:	11 f4       	brne	.+4      	;  0x812
     80e:	85 e9       	ldi	r24, 0x95	; 149
     810:	06 c0       	rjmp	.+12     	;  0x81e
     812:	88 e0       	ldi	r24, 0x08	; 8
     814:	d8 16       	cp	r13, r24
     816:	11 f4       	brne	.+4      	;  0x81c
     818:	87 e8       	ldi	r24, 0x87	; 135
     81a:	01 c0       	rjmp	.+2      	;  0x81e
     81c:	8f ef       	ldi	r24, 0xFF	; 255
     81e:	8e bd       	out	0x2e, r24	; 46
     820:	0d b4       	in	r0, 0x2d	; 45
     822:	07 fe       	sbrs	r0, 7
     824:	fd cf       	rjmp	.-6      	;  0x820
     826:	90 e0       	ldi	r25, 0x00	; 0
     828:	2f ef       	ldi	r18, 0xFF	; 255
     82a:	2e bd       	out	0x2e, r18	; 46
     82c:	0d b4       	in	r0, 0x2d	; 45
     82e:	07 fe       	sbrs	r0, 7
     830:	fd cf       	rjmp	.-6      	;  0x82c
     832:	8e b5       	in	r24, 0x2e	; 46
     834:	87 ff       	sbrs	r24, 7
     836:	02 c0       	rjmp	.+4      	;  0x83c
     838:	91 50       	subi	r25, 0x01	; 1
     83a:	b9 f7       	brne	.-18     	;  0x82a
     83c:	8a 87       	std	Y+10, r24	; 0x0a
     83e:	df 91       	pop	r29
     840:	cf 91       	pop	r28
     842:	1f 91       	pop	r17
     844:	0f 91       	pop	r16
     846:	ff 90       	pop	r15
     848:	ef 90       	pop	r14
     84a:	df 90       	pop	r13
     84c:	08 95       	ret
     84e:	8f 92       	push	r8
     850:	9f 92       	push	r9
     852:	af 92       	push	r10
     854:	bf 92       	push	r11
     856:	cf 92       	push	r12
     858:	df 92       	push	r13
     85a:	ef 92       	push	r14
     85c:	ff 92       	push	r15
     85e:	0f 93       	push	r16
     860:	1f 93       	push	r17
     862:	cf 93       	push	r28
     864:	df 93       	push	r29
     866:	ec 01       	movw	r28, r24
     868:	6a 01       	movw	r12, r20
     86a:	7b 01       	movw	r14, r22
     86c:	48 01       	movw	r8, r16
     86e:	59 01       	movw	r10, r18
     870:	41 15       	cp	r20, r1
     872:	51 05       	cpc	r21, r1
     874:	61 05       	cpc	r22, r1
     876:	71 05       	cpc	r23, r1
     878:	11 f4       	brne	.+4      	;  0x87e
     87a:	82 e1       	ldi	r24, 0x12	; 18
     87c:	26 c0       	rjmp	.+76     	;  0x8ca
     87e:	67 e3       	ldi	r22, 0x37	; 55
     880:	20 e0       	ldi	r18, 0x00	; 0
     882:	30 e0       	ldi	r19, 0x00	; 0
     884:	40 e0       	ldi	r20, 0x00	; 0
     886:	50 e0       	ldi	r21, 0x00	; 0
     888:	0e 94 d4 03 	call	0x7a8	;  0x7a8
     88c:	ce 01       	movw	r24, r28
     88e:	67 e1       	ldi	r22, 0x17	; 23
     890:	a5 01       	movw	r20, r10
     892:	94 01       	movw	r18, r8
     894:	0e 94 d4 03 	call	0x7a8	;  0x7a8
     898:	88 23       	and	r24, r24
     89a:	11 f0       	breq	.+4      	;  0x8a0
     89c:	87 e0       	ldi	r24, 0x07	; 7
     89e:	15 c0       	rjmp	.+42     	;  0x8ca
     8a0:	8b 85       	ldd	r24, Y+11	; 0x0b
     8a2:	83 30       	cpi	r24, 0x03	; 3
     8a4:	39 f0       	breq	.+14     	;  0x8b4
     8a6:	99 e0       	ldi	r25, 0x09	; 9
     8a8:	cc 0c       	add	r12, r12
     8aa:	dd 1c       	adc	r13, r13
     8ac:	ee 1c       	adc	r14, r14
     8ae:	ff 1c       	adc	r15, r15
     8b0:	9a 95       	dec	r25
     8b2:	d1 f7       	brne	.-12     	;  0x8a8
     8b4:	ce 01       	movw	r24, r28
     8b6:	69 e1       	ldi	r22, 0x19	; 25
     8b8:	a7 01       	movw	r20, r14
     8ba:	96 01       	movw	r18, r12
     8bc:	0e 94 d4 03 	call	0x7a8	;  0x7a8
     8c0:	88 23       	and	r24, r24
     8c2:	11 f4       	brne	.+4      	;  0x8c8
     8c4:	81 e0       	ldi	r24, 0x01	; 1
     8c6:	06 c0       	rjmp	.+12     	;  0x8d4
     8c8:	85 e0       	ldi	r24, 0x05	; 5
     8ca:	8d 83       	std	Y+5, r24	; 0x05
     8cc:	ce 01       	movw	r24, r28
     8ce:	0e 94 f7 02 	call	0x5ee	;  0x5ee
     8d2:	80 e0       	ldi	r24, 0x00	; 0
     8d4:	df 91       	pop	r29
     8d6:	cf 91       	pop	r28
     8d8:	1f 91       	pop	r17
     8da:	0f 91       	pop	r16
     8dc:	ff 90       	pop	r15
     8de:	ef 90       	pop	r14
     8e0:	df 90       	pop	r13
     8e2:	cf 90       	pop	r12
     8e4:	bf 90       	pop	r11
     8e6:	af 90       	pop	r10
     8e8:	9f 90       	pop	r9
     8ea:	8f 90       	pop	r8
     8ec:	08 95       	ret
     8ee:	cf 92       	push	r12
     8f0:	df 92       	push	r13
     8f2:	ef 92       	push	r14
     8f4:	ff 92       	push	r15
     8f6:	0f 93       	push	r16
     8f8:	1f 93       	push	r17
     8fa:	cf 93       	push	r28
     8fc:	df 93       	push	r29
     8fe:	ec 01       	movw	r28, r24
     900:	7a 01       	movw	r14, r20
     902:	8b 01       	movw	r16, r22
     904:	69 01       	movw	r12, r18
     906:	41 15       	cp	r20, r1
     908:	51 05       	cpc	r21, r1
     90a:	61 05       	cpc	r22, r1
     90c:	71 05       	cpc	r23, r1
     90e:	11 f4       	brne	.+4      	;  0x914
     910:	82 e1       	ldi	r24, 0x12	; 18
     912:	37 c0       	rjmp	.+110    	;  0x982
     914:	8b 85       	ldd	r24, Y+11	; 0x0b
     916:	83 30       	cpi	r24, 0x03	; 3
     918:	39 f0       	breq	.+14     	;  0x928
     91a:	29 e0       	ldi	r18, 0x09	; 9
     91c:	ee 0c       	add	r14, r14
     91e:	ff 1c       	adc	r15, r15
     920:	00 1f       	adc	r16, r16
     922:	11 1f       	adc	r17, r17
     924:	2a 95       	dec	r18
     926:	d1 f7       	brne	.-12     	;  0x91c
     928:	ce 01       	movw	r24, r28
     92a:	68 e1       	ldi	r22, 0x18	; 24
     92c:	a8 01       	movw	r20, r16
     92e:	97 01       	movw	r18, r14
     930:	0e 94 d4 03 	call	0x7a8	;  0x7a8
     934:	88 23       	and	r24, r24
     936:	11 f0       	breq	.+4      	;  0x93c
     938:	84 e0       	ldi	r24, 0x04	; 4
     93a:	23 c0       	rjmp	.+70     	;  0x982
     93c:	ce 01       	movw	r24, r28
     93e:	6e ef       	ldi	r22, 0xFE	; 254
     940:	a6 01       	movw	r20, r12
     942:	0e 94 20 03 	call	0x640	;  0x640
     946:	88 23       	and	r24, r24
     948:	e9 f0       	breq	.+58     	;  0x984
     94a:	ce 01       	movw	r24, r28
     94c:	68 e5       	ldi	r22, 0x58	; 88
     94e:	72 e0       	ldi	r23, 0x02	; 2
     950:	0e 94 cf 02 	call	0x59e	;  0x59e
     954:	88 23       	and	r24, r24
     956:	11 f4       	brne	.+4      	;  0x95c
     958:	85 e1       	ldi	r24, 0x15	; 21
     95a:	13 c0       	rjmp	.+38     	;  0x982
     95c:	ce 01       	movw	r24, r28
     95e:	6d e0       	ldi	r22, 0x0D	; 13
     960:	20 e0       	ldi	r18, 0x00	; 0
     962:	30 e0       	ldi	r19, 0x00	; 0
     964:	40 e0       	ldi	r20, 0x00	; 0
     966:	50 e0       	ldi	r21, 0x00	; 0
     968:	0e 94 d4 03 	call	0x7a8	;  0x7a8
     96c:	88 23       	and	r24, r24
     96e:	41 f4       	brne	.+16     	;  0x980
     970:	8f ef       	ldi	r24, 0xFF	; 255
     972:	8e bd       	out	0x2e, r24	; 46
     974:	0d b4       	in	r0, 0x2d	; 45
     976:	07 fe       	sbrs	r0, 7
     978:	fd cf       	rjmp	.-6      	;  0x974
     97a:	8e b5       	in	r24, 0x2e	; 46
     97c:	88 23       	and	r24, r24
     97e:	79 f0       	breq	.+30     	;  0x99e
     980:	84 e1       	ldi	r24, 0x14	; 20
     982:	8d 83       	std	Y+5, r24	; 0x05
     984:	ce 01       	movw	r24, r28
     986:	0e 94 f7 02 	call	0x5ee	;  0x5ee
     98a:	80 e0       	ldi	r24, 0x00	; 0
     98c:	df 91       	pop	r29
     98e:	cf 91       	pop	r28
     990:	1f 91       	pop	r17
     992:	0f 91       	pop	r16
     994:	ff 90       	pop	r15
     996:	ef 90       	pop	r14
     998:	df 90       	pop	r13
     99a:	cf 90       	pop	r12
     99c:	08 95       	ret
     99e:	ce 01       	movw	r24, r28
     9a0:	0e 94 f7 02 	call	0x5ee	;  0x5ee
     9a4:	81 e0       	ldi	r24, 0x01	; 1
     9a6:	f2 cf       	rjmp	.-28     	;  0x98c
     9a8:	0f 93       	push	r16
     9aa:	1f 93       	push	r17
     9ac:	cf 93       	push	r28
     9ae:	df 93       	push	r29
     9b0:	ec 01       	movw	r28, r24
     9b2:	14 2f       	mov	r17, r20
     9b4:	05 2f       	mov	r16, r21
     9b6:	20 e0       	ldi	r18, 0x00	; 0
     9b8:	30 e0       	ldi	r19, 0x00	; 0
     9ba:	40 e0       	ldi	r20, 0x00	; 0
     9bc:	50 e0       	ldi	r21, 0x00	; 0
     9be:	0e 94 d4 03 	call	0x7a8	;  0x7a8
     9c2:	88 23       	and	r24, r24
     9c4:	19 f0       	breq	.+6      	;  0x9cc
     9c6:	8e e0       	ldi	r24, 0x0E	; 14
     9c8:	8d 83       	std	Y+5, r24	; 0x05
     9ca:	26 c0       	rjmp	.+76     	;  0xa18
     9cc:	ce 01       	movw	r24, r28
     9ce:	0e 94 77 03 	call	0x6ee	;  0x6ee
     9d2:	88 23       	and	r24, r24
     9d4:	09 f1       	breq	.+66     	;  0xa18
     9d6:	81 2f       	mov	r24, r17
     9d8:	90 2f       	mov	r25, r16
     9da:	fc 01       	movw	r30, r24
     9dc:	9f ef       	ldi	r25, 0xFF	; 255
     9de:	9f 01       	movw	r18, r30
     9e0:	20 5f       	subi	r18, 0xF0	; 240
     9e2:	3f 4f       	sbci	r19, 0xFF	; 255
     9e4:	9e bd       	out	0x2e, r25	; 46
     9e6:	0d b4       	in	r0, 0x2d	; 45
     9e8:	07 fe       	sbrs	r0, 7
     9ea:	fd cf       	rjmp	.-6      	;  0x9e6
     9ec:	8e b5       	in	r24, 0x2e	; 46
     9ee:	81 93       	st	Z+, r24
     9f0:	e2 17       	cp	r30, r18
     9f2:	f3 07       	cpc	r31, r19
     9f4:	b9 f7       	brne	.-18     	;  0x9e4
     9f6:	8f ef       	ldi	r24, 0xFF	; 255
     9f8:	8e bd       	out	0x2e, r24	; 46
     9fa:	0d b4       	in	r0, 0x2d	; 45
     9fc:	07 fe       	sbrs	r0, 7
     9fe:	fd cf       	rjmp	.-6      	;  0x9fa
     a00:	8e b5       	in	r24, 0x2e	; 46
     a02:	8f ef       	ldi	r24, 0xFF	; 255
     a04:	8e bd       	out	0x2e, r24	; 46
     a06:	0d b4       	in	r0, 0x2d	; 45
     a08:	07 fe       	sbrs	r0, 7
     a0a:	fd cf       	rjmp	.-6      	;  0xa06
     a0c:	8e b5       	in	r24, 0x2e	; 46
     a0e:	ce 01       	movw	r24, r28
     a10:	0e 94 f7 02 	call	0x5ee	;  0x5ee
     a14:	81 e0       	ldi	r24, 0x01	; 1
     a16:	04 c0       	rjmp	.+8      	;  0xa20
     a18:	ce 01       	movw	r24, r28
     a1a:	0e 94 f7 02 	call	0x5ee	;  0x5ee
     a1e:	80 e0       	ldi	r24, 0x00	; 0
     a20:	df 91       	pop	r29
     a22:	cf 91       	pop	r28
     a24:	1f 91       	pop	r17
     a26:	0f 91       	pop	r16
     a28:	08 95       	ret
     a2a:	df 93       	push	r29
     a2c:	cf 93       	push	r28
     a2e:	cd b7       	in	r28, 0x3d	; 61
     a30:	de b7       	in	r29, 0x3e	; 62
     a32:	60 97       	sbiw	r28, 0x10	; 16
     a34:	0f b6       	in	r0, 0x3f	; 63
     a36:	f8 94       	cli
     a38:	de bf       	out	0x3e, r29	; 62
     a3a:	0f be       	out	0x3f, r0	; 63
     a3c:	cd bf       	out	0x3d, r28	; 61
     a3e:	69 e0       	ldi	r22, 0x09	; 9
     a40:	ae 01       	movw	r20, r28
     a42:	4f 5f       	subi	r20, 0xFF	; 255
     a44:	5f 4f       	sbci	r21, 0xFF	; 255
     a46:	0e 94 d4 04 	call	0x9a8	;  0x9a8
     a4a:	88 23       	and	r24, r24
     a4c:	29 f0       	breq	.+10     	;  0xa58
     a4e:	8b 85       	ldd	r24, Y+11	; 0x0b
     a50:	82 95       	swap	r24
     a52:	86 95       	lsr	r24
     a54:	86 95       	lsr	r24
     a56:	81 70       	andi	r24, 0x01	; 1
     a58:	60 96       	adiw	r28, 0x10	; 16
     a5a:	0f b6       	in	r0, 0x3f	; 63
     a5c:	f8 94       	cli
     a5e:	de bf       	out	0x3e, r29	; 62
     a60:	0f be       	out	0x3f, r0	; 63
     a62:	cd bf       	out	0x3d, r28	; 61
     a64:	cf 91       	pop	r28
     a66:	df 91       	pop	r29
     a68:	08 95       	ret
     a6a:	ef 92       	push	r14
     a6c:	ff 92       	push	r15
     a6e:	0f 93       	push	r16
     a70:	1f 93       	push	r17
     a72:	df 93       	push	r29
     a74:	cf 93       	push	r28
     a76:	cd b7       	in	r28, 0x3d	; 61
     a78:	de b7       	in	r29, 0x3e	; 62
     a7a:	60 97       	sbiw	r28, 0x10	; 16
     a7c:	0f b6       	in	r0, 0x3f	; 63
     a7e:	f8 94       	cli
     a80:	de bf       	out	0x3e, r29	; 62
     a82:	0f be       	out	0x3f, r0	; 63
     a84:	cd bf       	out	0x3d, r28	; 61
     a86:	8c 01       	movw	r16, r24
     a88:	69 e0       	ldi	r22, 0x09	; 9
     a8a:	ae 01       	movw	r20, r28
     a8c:	4f 5f       	subi	r20, 0xFF	; 255
     a8e:	5f 4f       	sbci	r21, 0xFF	; 255
     a90:	0e 94 d4 04 	call	0x9a8	;  0x9a8
     a94:	88 23       	and	r24, r24
     a96:	09 f4       	brne	.+2      	;  0xa9a
     a98:	61 c0       	rjmp	.+194    	;  0xb5c
     a9a:	89 81       	ldd	r24, Y+1	; 0x01
     a9c:	80 7c       	andi	r24, 0xC0	; 192
     a9e:	89 f5       	brne	.+98     	;  0xb02
     aa0:	8f 81       	ldd	r24, Y+7	; 0x07
     aa2:	83 70       	andi	r24, 0x03	; 3
     aa4:	38 2f       	mov	r19, r24
     aa6:	33 0f       	add	r19, r19
     aa8:	33 0f       	add	r19, r19
     aaa:	20 e0       	ldi	r18, 0x00	; 0
     aac:	88 85       	ldd	r24, Y+8	; 0x08
     aae:	90 e0       	ldi	r25, 0x00	; 0
     ab0:	88 0f       	add	r24, r24
     ab2:	99 1f       	adc	r25, r25
     ab4:	88 0f       	add	r24, r24
     ab6:	99 1f       	adc	r25, r25
     ab8:	28 2b       	or	r18, r24
     aba:	39 2b       	or	r19, r25
     abc:	89 85       	ldd	r24, Y+9	; 0x09
     abe:	82 95       	swap	r24
     ac0:	86 95       	lsr	r24
     ac2:	86 95       	lsr	r24
     ac4:	83 70       	andi	r24, 0x03	; 3
     ac6:	90 e0       	ldi	r25, 0x00	; 0
     ac8:	28 2b       	or	r18, r24
     aca:	39 2b       	or	r19, r25
     acc:	2f 5f       	subi	r18, 0xFF	; 255
     ace:	3f 4f       	sbci	r19, 0xFF	; 255
     ad0:	79 01       	movw	r14, r18
     ad2:	00 e0       	ldi	r16, 0x00	; 0
     ad4:	10 e0       	ldi	r17, 0x00	; 0
     ad6:	8e 81       	ldd	r24, Y+6	; 0x06
     ad8:	8f 70       	andi	r24, 0x0F	; 15
     ada:	90 e0       	ldi	r25, 0x00	; 0
     adc:	07 97       	sbiw	r24, 0x07	; 7
     ade:	2a 85       	ldd	r18, Y+10	; 0x0a
     ae0:	23 70       	andi	r18, 0x03	; 3
     ae2:	22 0f       	add	r18, r18
     ae4:	3b 85       	ldd	r19, Y+11	; 0x0b
     ae6:	33 1f       	adc	r19, r19
     ae8:	33 27       	eor	r19, r19
     aea:	33 1f       	adc	r19, r19
     aec:	23 2b       	or	r18, r19
     aee:	82 0f       	add	r24, r18
     af0:	91 1d       	adc	r25, r1
     af2:	04 c0       	rjmp	.+8      	;  0xafc
     af4:	ee 0c       	add	r14, r14
     af6:	ff 1c       	adc	r15, r15
     af8:	00 1f       	adc	r16, r16
     afa:	11 1f       	adc	r17, r17
     afc:	8a 95       	dec	r24
     afe:	d2 f7       	brpl	.-12     	;  0xaf4
     b00:	30 c0       	rjmp	.+96     	;  0xb62
     b02:	80 34       	cpi	r24, 0x40	; 64
     b04:	41 f5       	brne	.+80     	;  0xb56
     b06:	88 85       	ldd	r24, Y+8	; 0x08
     b08:	86 95       	lsr	r24
     b0a:	86 95       	lsr	r24
     b0c:	90 e0       	ldi	r25, 0x00	; 0
     b0e:	a0 e0       	ldi	r26, 0x00	; 0
     b10:	b0 e0       	ldi	r27, 0x00	; 0
     b12:	8c 01       	movw	r16, r24
     b14:	ff 24       	eor	r15, r15
     b16:	ee 24       	eor	r14, r14
     b18:	8a 85       	ldd	r24, Y+10	; 0x0a
     b1a:	90 e0       	ldi	r25, 0x00	; 0
     b1c:	a0 e0       	ldi	r26, 0x00	; 0
     b1e:	b0 e0       	ldi	r27, 0x00	; 0
     b20:	e8 2a       	or	r14, r24
     b22:	f9 2a       	or	r15, r25
     b24:	0a 2b       	or	r16, r26
     b26:	1b 2b       	or	r17, r27
     b28:	99 85       	ldd	r25, Y+9	; 0x09
     b2a:	80 e0       	ldi	r24, 0x00	; 0
     b2c:	aa 27       	eor	r26, r26
     b2e:	97 fd       	sbrc	r25, 7
     b30:	a0 95       	com	r26
     b32:	ba 2f       	mov	r27, r26
     b34:	e8 2a       	or	r14, r24
     b36:	f9 2a       	or	r15, r25
     b38:	0a 2b       	or	r16, r26
     b3a:	1b 2b       	or	r17, r27
     b3c:	08 94       	sec
     b3e:	e1 1c       	adc	r14, r1
     b40:	f1 1c       	adc	r15, r1
     b42:	01 1d       	adc	r16, r1
     b44:	11 1d       	adc	r17, r1
     b46:	3a e0       	ldi	r19, 0x0A	; 10
     b48:	ee 0c       	add	r14, r14
     b4a:	ff 1c       	adc	r15, r15
     b4c:	00 1f       	adc	r16, r16
     b4e:	11 1f       	adc	r17, r17
     b50:	3a 95       	dec	r19
     b52:	d1 f7       	brne	.-12     	;  0xb48
     b54:	06 c0       	rjmp	.+12     	;  0xb62
     b56:	89 e0       	ldi	r24, 0x09	; 9
     b58:	f8 01       	movw	r30, r16
     b5a:	85 83       	std	Z+5, r24	; 0x05
     b5c:	ee 24       	eor	r14, r14
     b5e:	ff 24       	eor	r15, r15
     b60:	87 01       	movw	r16, r14
     b62:	b7 01       	movw	r22, r14
     b64:	c8 01       	movw	r24, r16
     b66:	60 96       	adiw	r28, 0x10	; 16
     b68:	0f b6       	in	r0, 0x3f	; 63
     b6a:	f8 94       	cli
     b6c:	de bf       	out	0x3e, r29	; 62
     b6e:	0f be       	out	0x3f, r0	; 63
     b70:	cd bf       	out	0x3d, r28	; 61
     b72:	cf 91       	pop	r28
     b74:	df 91       	pop	r29
     b76:	1f 91       	pop	r17
     b78:	0f 91       	pop	r16
     b7a:	ff 90       	pop	r15
     b7c:	ef 90       	pop	r14
     b7e:	08 95       	ret
     b80:	8f 92       	push	r8
     b82:	9f 92       	push	r9
     b84:	af 92       	push	r10
     b86:	bf 92       	push	r11
     b88:	cf 92       	push	r12
     b8a:	df 92       	push	r13
     b8c:	ef 92       	push	r14
     b8e:	ff 92       	push	r15
     b90:	0f 93       	push	r16
     b92:	1f 93       	push	r17
     b94:	cf 93       	push	r28
     b96:	df 93       	push	r29
     b98:	ec 01       	movw	r28, r24
     b9a:	5a 01       	movw	r10, r20
     b9c:	6b 01       	movw	r12, r22
     b9e:	49 01       	movw	r8, r18
     ba0:	01 15       	cp	r16, r1
     ba2:	11 05       	cpc	r17, r1
     ba4:	09 f4       	brne	.+2      	;  0xba8
     ba6:	7b c0       	rjmp	.+246    	;  0xc9e
     ba8:	c8 01       	movw	r24, r16
     baa:	82 0f       	add	r24, r18
     bac:	93 1f       	adc	r25, r19
     bae:	81 50       	subi	r24, 0x01	; 1
     bb0:	92 40       	sbci	r25, 0x02	; 2
     bb2:	08 f0       	brcs	.+2      	;  0xbb6
     bb4:	6f c0       	rjmp	.+222    	;  0xc94
     bb6:	8e 81       	ldd	r24, Y+6	; 0x06
     bb8:	88 23       	and	r24, r24
     bba:	71 f0       	breq	.+28     	;  0xbd8
     bbc:	88 81       	ld	r24, Y
     bbe:	99 81       	ldd	r25, Y+1	; 0x01
     bc0:	aa 81       	ldd	r26, Y+2	; 0x02
     bc2:	bb 81       	ldd	r27, Y+3	; 0x03
     bc4:	48 17       	cp	r20, r24
     bc6:	59 07       	cpc	r21, r25
     bc8:	6a 07       	cpc	r22, r26
     bca:	7b 07       	cpc	r23, r27
     bcc:	29 f4       	brne	.+10     	;  0xbd8
     bce:	8f 81       	ldd	r24, Y+7	; 0x07
     bd0:	98 85       	ldd	r25, Y+8	; 0x08
     bd2:	88 16       	cp	r8, r24
     bd4:	99 06       	cpc	r9, r25
     bd6:	18 f5       	brcc	.+70     	;  0xc1e
     bd8:	a8 82       	st	Y, r10
     bda:	b9 82       	std	Y+1, r11	; 0x01
     bdc:	ca 82       	std	Y+2, r12	; 0x02
     bde:	db 82       	std	Y+3, r13	; 0x03
     be0:	8b 85       	ldd	r24, Y+11	; 0x0b
     be2:	83 30       	cpi	r24, 0x03	; 3
     be4:	39 f0       	breq	.+14     	;  0xbf4
     be6:	69 e0       	ldi	r22, 0x09	; 9
     be8:	aa 0c       	add	r10, r10
     bea:	bb 1c       	adc	r11, r11
     bec:	cc 1c       	adc	r12, r12
     bee:	dd 1c       	adc	r13, r13
     bf0:	6a 95       	dec	r22
     bf2:	d1 f7       	brne	.-12     	;  0xbe8
     bf4:	ce 01       	movw	r24, r28
     bf6:	61 e1       	ldi	r22, 0x11	; 17
     bf8:	a6 01       	movw	r20, r12
     bfa:	95 01       	movw	r18, r10
     bfc:	0e 94 d4 03 	call	0x7a8	;  0x7a8
     c00:	88 23       	and	r24, r24
     c02:	19 f0       	breq	.+6      	;  0xc0a
     c04:	83 e0       	ldi	r24, 0x03	; 3
     c06:	8d 83       	std	Y+5, r24	; 0x05
     c08:	45 c0       	rjmp	.+138    	;  0xc94
     c0a:	ce 01       	movw	r24, r28
     c0c:	0e 94 77 03 	call	0x6ee	;  0x6ee
     c10:	88 23       	and	r24, r24
     c12:	09 f4       	brne	.+2      	;  0xc16
     c14:	3f c0       	rjmp	.+126    	;  0xc94
     c16:	18 86       	std	Y+8, r1	; 0x08
     c18:	1f 82       	std	Y+7, r1	; 0x07
     c1a:	81 e0       	ldi	r24, 0x01	; 1
     c1c:	8e 83       	std	Y+6, r24	; 0x06
     c1e:	8f ef       	ldi	r24, 0xFF	; 255
     c20:	8e bd       	out	0x2e, r24	; 46
     c22:	8f 81       	ldd	r24, Y+7	; 0x07
     c24:	98 85       	ldd	r25, Y+8	; 0x08
     c26:	2f ef       	ldi	r18, 0xFF	; 255
     c28:	05 c0       	rjmp	.+10     	;  0xc34
     c2a:	0d b4       	in	r0, 0x2d	; 45
     c2c:	07 fe       	sbrs	r0, 7
     c2e:	fd cf       	rjmp	.-6      	;  0xc2a
     c30:	2e bd       	out	0x2e, r18	; 46
     c32:	01 96       	adiw	r24, 0x01	; 1
     c34:	88 15       	cp	r24, r8
     c36:	99 05       	cpc	r25, r9
     c38:	c0 f3       	brcs	.-16     	;  0xc2a
     c3a:	98 87       	std	Y+8, r25	; 0x08
     c3c:	8f 83       	std	Y+7, r24	; 0x07
     c3e:	d8 01       	movw	r26, r16
     c40:	11 97       	sbiw	r26, 0x01	; 1
     c42:	20 e0       	ldi	r18, 0x00	; 0
     c44:	30 e0       	ldi	r19, 0x00	; 0
     c46:	9f ef       	ldi	r25, 0xFF	; 255
     c48:	0b c0       	rjmp	.+22     	;  0xc60
     c4a:	0d b4       	in	r0, 0x2d	; 45
     c4c:	07 fe       	sbrs	r0, 7
     c4e:	fd cf       	rjmp	.-6      	;  0xc4a
     c50:	8e b5       	in	r24, 0x2e	; 46
     c52:	f7 01       	movw	r30, r14
     c54:	e2 0f       	add	r30, r18
     c56:	f3 1f       	adc	r31, r19
     c58:	80 83       	st	Z, r24
     c5a:	9e bd       	out	0x2e, r25	; 46
     c5c:	2f 5f       	subi	r18, 0xFF	; 255
     c5e:	3f 4f       	sbci	r19, 0xFF	; 255
     c60:	2a 17       	cp	r18, r26
     c62:	3b 07       	cpc	r19, r27
     c64:	90 f3       	brcs	.-28     	;  0xc4a
     c66:	0d b4       	in	r0, 0x2d	; 45
     c68:	07 fe       	sbrs	r0, 7
     c6a:	fd cf       	rjmp	.-6      	;  0xc66
     c6c:	8e b5       	in	r24, 0x2e	; 46
     c6e:	ae 0d       	add	r26, r14
     c70:	bf 1d       	adc	r27, r15
     c72:	8c 93       	st	X, r24
     c74:	2f 81       	ldd	r18, Y+7	; 0x07
     c76:	38 85       	ldd	r19, Y+8	; 0x08
     c78:	20 0f       	add	r18, r16
     c7a:	31 1f       	adc	r19, r17
     c7c:	38 87       	std	Y+8, r19	; 0x08
     c7e:	2f 83       	std	Y+7, r18	; 0x07
     c80:	89 85       	ldd	r24, Y+9	; 0x09
     c82:	88 23       	and	r24, r24
     c84:	19 f0       	breq	.+6      	;  0xc8c
     c86:	20 50       	subi	r18, 0x00	; 0
     c88:	32 40       	sbci	r19, 0x02	; 2
     c8a:	48 f0       	brcs	.+18     	;  0xc9e
     c8c:	ce 01       	movw	r24, r28
     c8e:	0e 94 a4 03 	call	0x748	;  0x748
     c92:	05 c0       	rjmp	.+10     	;  0xc9e
     c94:	ce 01       	movw	r24, r28
     c96:	0e 94 f7 02 	call	0x5ee	;  0x5ee
     c9a:	80 e0       	ldi	r24, 0x00	; 0
     c9c:	01 c0       	rjmp	.+2      	;  0xca0
     c9e:	81 e0       	ldi	r24, 0x01	; 1
     ca0:	df 91       	pop	r29
     ca2:	cf 91       	pop	r28
     ca4:	1f 91       	pop	r17
     ca6:	0f 91       	pop	r16
     ca8:	ff 90       	pop	r15
     caa:	ef 90       	pop	r14
     cac:	df 90       	pop	r13
     cae:	cf 90       	pop	r12
     cb0:	bf 90       	pop	r11
     cb2:	af 90       	pop	r10
     cb4:	9f 90       	pop	r9
     cb6:	8f 90       	pop	r8
     cb8:	08 95       	ret
     cba:	ef 92       	push	r14
     cbc:	ff 92       	push	r15
     cbe:	0f 93       	push	r16
     cc0:	1f 93       	push	r17
     cc2:	79 01       	movw	r14, r18
     cc4:	20 e0       	ldi	r18, 0x00	; 0
     cc6:	30 e0       	ldi	r19, 0x00	; 0
     cc8:	00 e0       	ldi	r16, 0x00	; 0
     cca:	12 e0       	ldi	r17, 0x02	; 2
     ccc:	0e 94 c0 05 	call	0xb80	;  0xb80
     cd0:	1f 91       	pop	r17
     cd2:	0f 91       	pop	r16
     cd4:	ff 90       	pop	r15
     cd6:	ef 90       	pop	r14
     cd8:	08 95       	ret
     cda:	8f 92       	push	r8
     cdc:	9f 92       	push	r9
     cde:	af 92       	push	r10
     ce0:	bf 92       	push	r11
     ce2:	cf 92       	push	r12
     ce4:	df 92       	push	r13
     ce6:	ef 92       	push	r14
     ce8:	ff 92       	push	r15
     cea:	0f 93       	push	r16
     cec:	1f 93       	push	r17
     cee:	cf 93       	push	r28
     cf0:	df 93       	push	r29
     cf2:	ec 01       	movw	r28, r24
     cf4:	6a 01       	movw	r12, r20
     cf6:	7b 01       	movw	r14, r22
     cf8:	48 01       	movw	r8, r16
     cfa:	59 01       	movw	r10, r18
     cfc:	0e 94 15 05 	call	0xa2a	;  0xa2a
     d00:	88 23       	and	r24, r24
     d02:	11 f4       	brne	.+4      	;  0xd08
     d04:	8b e0       	ldi	r24, 0x0B	; 11
     d06:	2e c0       	rjmp	.+92     	;  0xd64
     d08:	8b 85       	ldd	r24, Y+11	; 0x0b
     d0a:	83 30       	cpi	r24, 0x03	; 3
     d0c:	71 f0       	breq	.+28     	;  0xd2a
     d0e:	e9 e0       	ldi	r30, 0x09	; 9
     d10:	cc 0c       	add	r12, r12
     d12:	dd 1c       	adc	r13, r13
     d14:	ee 1c       	adc	r14, r14
     d16:	ff 1c       	adc	r15, r15
     d18:	ea 95       	dec	r30
     d1a:	d1 f7       	brne	.-12     	;  0xd10
     d1c:	79 e0       	ldi	r23, 0x09	; 9
     d1e:	88 0c       	add	r8, r8
     d20:	99 1c       	adc	r9, r9
     d22:	aa 1c       	adc	r10, r10
     d24:	bb 1c       	adc	r11, r11
     d26:	7a 95       	dec	r23
     d28:	d1 f7       	brne	.-12     	;  0xd1e
     d2a:	ce 01       	movw	r24, r28
     d2c:	60 e2       	ldi	r22, 0x20	; 32
     d2e:	a7 01       	movw	r20, r14
     d30:	96 01       	movw	r18, r12
     d32:	0e 94 d4 03 	call	0x7a8	;  0x7a8
     d36:	88 23       	and	r24, r24
     d38:	91 f4       	brne	.+36     	;  0xd5e
     d3a:	ce 01       	movw	r24, r28
     d3c:	61 e2       	ldi	r22, 0x21	; 33
     d3e:	a5 01       	movw	r20, r10
     d40:	94 01       	movw	r18, r8
     d42:	0e 94 d4 03 	call	0x7a8	;  0x7a8
     d46:	88 23       	and	r24, r24
     d48:	51 f4       	brne	.+20     	;  0xd5e
     d4a:	ce 01       	movw	r24, r28
     d4c:	66 e2       	ldi	r22, 0x26	; 38
     d4e:	20 e0       	ldi	r18, 0x00	; 0
     d50:	30 e0       	ldi	r19, 0x00	; 0
     d52:	40 e0       	ldi	r20, 0x00	; 0
     d54:	50 e0       	ldi	r21, 0x00	; 0
     d56:	0e 94 d4 03 	call	0x7a8	;  0x7a8
     d5a:	88 23       	and	r24, r24
     d5c:	d1 f0       	breq	.+52     	;  0xd92
     d5e:	8a e0       	ldi	r24, 0x0A	; 10
     d60:	01 c0       	rjmp	.+2      	;  0xd64
     d62:	8c e0       	ldi	r24, 0x0C	; 12
     d64:	8d 83       	std	Y+5, r24	; 0x05
     d66:	ce 01       	movw	r24, r28
     d68:	0e 94 f7 02 	call	0x5ee	;  0x5ee
     d6c:	80 e0       	ldi	r24, 0x00	; 0
     d6e:	04 c0       	rjmp	.+8      	;  0xd78
     d70:	ce 01       	movw	r24, r28
     d72:	0e 94 f7 02 	call	0x5ee	;  0x5ee
     d76:	81 e0       	ldi	r24, 0x01	; 1
     d78:	df 91       	pop	r29
     d7a:	cf 91       	pop	r28
     d7c:	1f 91       	pop	r17
     d7e:	0f 91       	pop	r16
     d80:	ff 90       	pop	r15
     d82:	ef 90       	pop	r14
     d84:	df 90       	pop	r13
     d86:	cf 90       	pop	r12
     d88:	bf 90       	pop	r11
     d8a:	af 90       	pop	r10
     d8c:	9f 90       	pop	r9
     d8e:	8f 90       	pop	r8
     d90:	08 95       	ret
     d92:	ce 01       	movw	r24, r28
     d94:	60 e1       	ldi	r22, 0x10	; 16
     d96:	77 e2       	ldi	r23, 0x27	; 39
     d98:	0e 94 cf 02 	call	0x59e	;  0x59e
     d9c:	88 23       	and	r24, r24
     d9e:	09 f3       	breq	.-62     	;  0xd62
     da0:	e7 cf       	rjmp	.-50     	;  0xd70
     da2:	bf 92       	push	r11
     da4:	cf 92       	push	r12
     da6:	df 92       	push	r13
     da8:	ef 92       	push	r14
     daa:	ff 92       	push	r15
     dac:	0f 93       	push	r16
     dae:	1f 93       	push	r17
     db0:	cf 93       	push	r28
     db2:	df 93       	push	r29
     db4:	ec 01       	movw	r28, r24
     db6:	b6 2e       	mov	r11, r22
     db8:	1b 86       	std	Y+11, r1	; 0x0b
     dba:	19 86       	std	Y+9, r1	; 0x09
     dbc:	1e 82       	std	Y+6, r1	; 0x06
     dbe:	1d 82       	std	Y+5, r1	; 0x05
     dc0:	4c 83       	std	Y+4, r20	; 0x04
     dc2:	0e 94 15 2d 	call	0x5a2a	;  0x5a2a
     dc6:	6b 01       	movw	r12, r22
     dc8:	8c 81       	ldd	r24, Y+4	; 0x04
     dca:	61 e0       	ldi	r22, 0x01	; 1
     dcc:	0e 94 b4 2d 	call	0x5b68	;  0x5b68
     dd0:	ce 01       	movw	r24, r28
     dd2:	0e 94 f7 02 	call	0x5ee	;  0x5ee
     dd6:	8c e0       	ldi	r24, 0x0C	; 12
     dd8:	60 e0       	ldi	r22, 0x00	; 0
     dda:	0e 94 b4 2d 	call	0x5b68	;  0x5b68
     dde:	8b e0       	ldi	r24, 0x0B	; 11
     de0:	61 e0       	ldi	r22, 0x01	; 1
     de2:	0e 94 b4 2d 	call	0x5b68	;  0x5b68
     de6:	8d e0       	ldi	r24, 0x0D	; 13
     de8:	61 e0       	ldi	r22, 0x01	; 1
     dea:	0e 94 b4 2d 	call	0x5b68	;  0x5b68
     dee:	8a e0       	ldi	r24, 0x0A	; 10
     df0:	61 e0       	ldi	r22, 0x01	; 1
     df2:	0e 94 b4 2d 	call	0x5b68	;  0x5b68
     df6:	8a e0       	ldi	r24, 0x0A	; 10
     df8:	61 e0       	ldi	r22, 0x01	; 1
     dfa:	0e 94 07 2e 	call	0x5c0e	;  0x5c0e
     dfe:	83 e5       	ldi	r24, 0x53	; 83
     e00:	8c bd       	out	0x2c, r24	; 44
     e02:	8d b5       	in	r24, 0x2d	; 45
     e04:	8e 7f       	andi	r24, 0xFE	; 254
     e06:	8d bd       	out	0x2d, r24	; 45
     e08:	80 e0       	ldi	r24, 0x00	; 0
     e0a:	9f ef       	ldi	r25, 0xFF	; 255
     e0c:	9e bd       	out	0x2e, r25	; 46
     e0e:	0d b4       	in	r0, 0x2d	; 45
     e10:	07 fe       	sbrs	r0, 7
     e12:	fd cf       	rjmp	.-6      	;  0xe0e
     e14:	8f 5f       	subi	r24, 0xFF	; 255
     e16:	8a 30       	cpi	r24, 0x0A	; 10
     e18:	c9 f7       	brne	.-14     	;  0xe0c
     e1a:	ce 01       	movw	r24, r28
     e1c:	0e 94 f1 02 	call	0x5e2	;  0x5e2
     e20:	09 c0       	rjmp	.+18     	;  0xe34
     e22:	0e 94 15 2d 	call	0x5a2a	;  0x5a2a
     e26:	6c 19       	sub	r22, r12
     e28:	7d 09       	sbc	r23, r13
     e2a:	61 5d       	subi	r22, 0xD1	; 209
     e2c:	77 40       	sbci	r23, 0x07	; 7
     e2e:	10 f0       	brcs	.+4      	;  0xe34
     e30:	81 e0       	ldi	r24, 0x01	; 1
     e32:	5e c0       	rjmp	.+188    	;  0xef0
     e34:	ce 01       	movw	r24, r28
     e36:	60 e0       	ldi	r22, 0x00	; 0
     e38:	20 e0       	ldi	r18, 0x00	; 0
     e3a:	30 e0       	ldi	r19, 0x00	; 0
     e3c:	40 e0       	ldi	r20, 0x00	; 0
     e3e:	50 e0       	ldi	r21, 0x00	; 0
     e40:	0e 94 d4 03 	call	0x7a8	;  0x7a8
     e44:	18 2f       	mov	r17, r24
     e46:	8a 87       	std	Y+10, r24	; 0x0a
     e48:	81 30       	cpi	r24, 0x01	; 1
     e4a:	59 f7       	brne	.-42     	;  0xe22
     e4c:	ce 01       	movw	r24, r28
     e4e:	68 e0       	ldi	r22, 0x08	; 8
     e50:	2a ea       	ldi	r18, 0xAA	; 170
     e52:	31 e0       	ldi	r19, 0x01	; 1
     e54:	40 e0       	ldi	r20, 0x00	; 0
     e56:	50 e0       	ldi	r21, 0x00	; 0
     e58:	0e 94 d4 03 	call	0x7a8	;  0x7a8
     e5c:	82 ff       	sbrs	r24, 2
     e5e:	02 c0       	rjmp	.+4      	;  0xe64
     e60:	1b 87       	std	Y+11, r17	; 0x0b
     e62:	11 c0       	rjmp	.+34     	;  0xe86
     e64:	80 e0       	ldi	r24, 0x00	; 0
     e66:	2f ef       	ldi	r18, 0xFF	; 255
     e68:	2e bd       	out	0x2e, r18	; 46
     e6a:	0d b4       	in	r0, 0x2d	; 45
     e6c:	07 fe       	sbrs	r0, 7
     e6e:	fd cf       	rjmp	.-6      	;  0xe6a
     e70:	9e b5       	in	r25, 0x2e	; 46
     e72:	8f 5f       	subi	r24, 0xFF	; 255
     e74:	84 30       	cpi	r24, 0x04	; 4
     e76:	c1 f7       	brne	.-16     	;  0xe68
     e78:	9a 87       	std	Y+10, r25	; 0x0a
     e7a:	9a 3a       	cpi	r25, 0xAA	; 170
     e7c:	11 f0       	breq	.+4      	;  0xe82
     e7e:	82 e0       	ldi	r24, 0x02	; 2
     e80:	37 c0       	rjmp	.+110    	;  0xef0
     e82:	82 e0       	ldi	r24, 0x02	; 2
     e84:	8b 87       	std	Y+11, r24	; 0x0b
     e86:	8b 85       	ldd	r24, Y+11	; 0x0b
     e88:	82 30       	cpi	r24, 0x02	; 2
     e8a:	21 f0       	breq	.+8      	;  0xe94
     e8c:	ee 24       	eor	r14, r14
     e8e:	ff 24       	eor	r15, r15
     e90:	87 01       	movw	r16, r14
     e92:	0f c0       	rjmp	.+30     	;  0xeb2
     e94:	e1 2c       	mov	r14, r1
     e96:	f1 2c       	mov	r15, r1
     e98:	01 2d       	mov	r16, r1
     e9a:	f0 e4       	ldi	r31, 0x40	; 64
     e9c:	1f 2f       	mov	r17, r31
     e9e:	09 c0       	rjmp	.+18     	;  0xeb2
     ea0:	0e 94 15 2d 	call	0x5a2a	;  0x5a2a
     ea4:	6c 19       	sub	r22, r12
     ea6:	7d 09       	sbc	r23, r13
     ea8:	61 5d       	subi	r22, 0xD1	; 209
     eaa:	77 40       	sbci	r23, 0x07	; 7
     eac:	10 f0       	brcs	.+4      	;  0xeb2
     eae:	88 e0       	ldi	r24, 0x08	; 8
     eb0:	1f c0       	rjmp	.+62     	;  0xef0
     eb2:	ce 01       	movw	r24, r28
     eb4:	67 e3       	ldi	r22, 0x37	; 55
     eb6:	20 e0       	ldi	r18, 0x00	; 0
     eb8:	30 e0       	ldi	r19, 0x00	; 0
     eba:	40 e0       	ldi	r20, 0x00	; 0
     ebc:	50 e0       	ldi	r21, 0x00	; 0
     ebe:	0e 94 d4 03 	call	0x7a8	;  0x7a8
     ec2:	ce 01       	movw	r24, r28
     ec4:	69 e2       	ldi	r22, 0x29	; 41
     ec6:	a8 01       	movw	r20, r16
     ec8:	97 01       	movw	r18, r14
     eca:	0e 94 d4 03 	call	0x7a8	;  0x7a8
     ece:	8a 87       	std	Y+10, r24	; 0x0a
     ed0:	88 23       	and	r24, r24
     ed2:	31 f7       	brne	.-52     	;  0xea0
     ed4:	8b 85       	ldd	r24, Y+11	; 0x0b
     ed6:	82 30       	cpi	r24, 0x02	; 2
     ed8:	31 f5       	brne	.+76     	;  0xf26
     eda:	ce 01       	movw	r24, r28
     edc:	6a e3       	ldi	r22, 0x3A	; 58
     ede:	20 e0       	ldi	r18, 0x00	; 0
     ee0:	30 e0       	ldi	r19, 0x00	; 0
     ee2:	40 e0       	ldi	r20, 0x00	; 0
     ee4:	50 e0       	ldi	r21, 0x00	; 0
     ee6:	0e 94 d4 03 	call	0x7a8	;  0x7a8
     eea:	88 23       	and	r24, r24
     eec:	39 f0       	breq	.+14     	;  0xefc
     eee:	86 e0       	ldi	r24, 0x06	; 6
     ef0:	8d 83       	std	Y+5, r24	; 0x05
     ef2:	ce 01       	movw	r24, r28
     ef4:	0e 94 f7 02 	call	0x5ee	;  0x5ee
     ef8:	80 e0       	ldi	r24, 0x00	; 0
     efa:	1c c0       	rjmp	.+56     	;  0xf34
     efc:	8f ef       	ldi	r24, 0xFF	; 255
     efe:	8e bd       	out	0x2e, r24	; 46
     f00:	0d b4       	in	r0, 0x2d	; 45
     f02:	07 fe       	sbrs	r0, 7
     f04:	fd cf       	rjmp	.-6      	;  0xf00
     f06:	8e b5       	in	r24, 0x2e	; 46
     f08:	80 7c       	andi	r24, 0xC0	; 192
     f0a:	80 3c       	cpi	r24, 0xC0	; 192
     f0c:	11 f4       	brne	.+4      	;  0xf12
     f0e:	83 e0       	ldi	r24, 0x03	; 3
     f10:	8b 87       	std	Y+11, r24	; 0x0b
     f12:	80 e0       	ldi	r24, 0x00	; 0
     f14:	9f ef       	ldi	r25, 0xFF	; 255
     f16:	9e bd       	out	0x2e, r25	; 46
     f18:	0d b4       	in	r0, 0x2d	; 45
     f1a:	07 fe       	sbrs	r0, 7
     f1c:	fd cf       	rjmp	.-6      	;  0xf18
     f1e:	2e b5       	in	r18, 0x2e	; 46
     f20:	8f 5f       	subi	r24, 0xFF	; 255
     f22:	83 30       	cpi	r24, 0x03	; 3
     f24:	c1 f7       	brne	.-16     	;  0xf16
     f26:	ce 01       	movw	r24, r28
     f28:	0e 94 f7 02 	call	0x5ee	;  0x5ee
     f2c:	ce 01       	movw	r24, r28
     f2e:	6b 2d       	mov	r22, r11
     f30:	0e 94 aa 02 	call	0x554	;  0x554
     f34:	df 91       	pop	r29
     f36:	cf 91       	pop	r28
     f38:	1f 91       	pop	r17
     f3a:	0f 91       	pop	r16
     f3c:	ff 90       	pop	r15
     f3e:	ef 90       	pop	r14
     f40:	df 90       	pop	r13
     f42:	cf 90       	pop	r12
     f44:	bf 90       	pop	r11
     f46:	08 95       	ret
     f48:	cf 93       	push	r28
     f4a:	df 93       	push	r29
     f4c:	eb 01       	movw	r28, r22
     f4e:	dc 01       	movw	r26, r24
     f50:	90 e0       	ldi	r25, 0x00	; 0
     f52:	20 e0       	ldi	r18, 0x00	; 0
     f54:	3e e2       	ldi	r19, 0x2E	; 46
     f56:	8c 91       	ld	r24, X
     f58:	80 32       	cpi	r24, 0x20	; 32
     f5a:	69 f0       	breq	.+26     	;  0xf76
     f5c:	28 30       	cpi	r18, 0x08	; 8
     f5e:	29 f4       	brne	.+10     	;  0xf6a
     f60:	fe 01       	movw	r30, r28
     f62:	e9 0f       	add	r30, r25
     f64:	f1 1d       	adc	r31, r1
     f66:	30 83       	st	Z, r19
     f68:	9f 5f       	subi	r25, 0xFF	; 255
     f6a:	fe 01       	movw	r30, r28
     f6c:	e9 0f       	add	r30, r25
     f6e:	f1 1d       	adc	r31, r1
     f70:	8c 91       	ld	r24, X
     f72:	80 83       	st	Z, r24
     f74:	9f 5f       	subi	r25, 0xFF	; 255
     f76:	2f 5f       	subi	r18, 0xFF	; 255
     f78:	11 96       	adiw	r26, 0x01	; 1
     f7a:	2b 30       	cpi	r18, 0x0B	; 11
     f7c:	61 f7       	brne	.-40     	;  0xf56
     f7e:	c9 0f       	add	r28, r25
     f80:	d1 1d       	adc	r29, r1
     f82:	18 82       	st	Y, r1
     f84:	df 91       	pop	r29
     f86:	cf 91       	pop	r28
     f88:	08 95       	ret
     f8a:	cf 93       	push	r28
     f8c:	df 93       	push	r29
     f8e:	ec 01       	movw	r28, r24
     f90:	db 01       	movw	r26, r22
     f92:	80 e0       	ldi	r24, 0x00	; 0
     f94:	90 e0       	ldi	r25, 0x00	; 0
     f96:	20 e2       	ldi	r18, 0x20	; 32
     f98:	fd 01       	movw	r30, r26
     f9a:	e8 0f       	add	r30, r24
     f9c:	f9 1f       	adc	r31, r25
     f9e:	20 83       	st	Z, r18
     fa0:	01 96       	adiw	r24, 0x01	; 1
     fa2:	8b 30       	cpi	r24, 0x0B	; 11
     fa4:	91 05       	cpc	r25, r1
     fa6:	c1 f7       	brne	.-16     	;  0xf98
     fa8:	40 e0       	ldi	r20, 0x00	; 0
     faa:	57 e0       	ldi	r21, 0x07	; 7
     fac:	21 c0       	rjmp	.+66     	;  0xff0
     fae:	2e 32       	cpi	r18, 0x2E	; 46
     fb0:	19 f0       	breq	.+6      	;  0xfb8
     fb2:	88 e6       	ldi	r24, 0x68	; 104
     fb4:	90 e0       	ldi	r25, 0x00	; 0
     fb6:	07 c0       	rjmp	.+14     	;  0xfc6
     fb8:	5a 30       	cpi	r21, 0x0A	; 10
     fba:	19 f1       	breq	.+70     	;  0x1002
     fbc:	48 e0       	ldi	r20, 0x08	; 8
     fbe:	5a e0       	ldi	r21, 0x0A	; 10
     fc0:	17 c0       	rjmp	.+46     	;  0xff0
     fc2:	32 17       	cp	r19, r18
     fc4:	f1 f0       	breq	.+60     	;  0x1002
     fc6:	fc 01       	movw	r30, r24
     fc8:	01 96       	adiw	r24, 0x01	; 1
     fca:	34 91       	lpm	r19, Z+
     fcc:	33 23       	and	r19, r19
     fce:	c9 f7       	brne	.-14     	;  0xfc2
     fd0:	54 17       	cp	r21, r20
     fd2:	b8 f0       	brcs	.+46     	;  0x1002
     fd4:	21 32       	cpi	r18, 0x21	; 33
     fd6:	a8 f0       	brcs	.+42     	;  0x1002
     fd8:	2f 37       	cpi	r18, 0x7F	; 127
     fda:	98 f4       	brcc	.+38     	;  0x1002
     fdc:	82 2f       	mov	r24, r18
     fde:	81 56       	subi	r24, 0x61	; 97
     fe0:	8a 31       	cpi	r24, 0x1A	; 26
     fe2:	08 f4       	brcc	.+2      	;  0xfe6
     fe4:	20 52       	subi	r18, 0x20	; 32
     fe6:	fd 01       	movw	r30, r26
     fe8:	e4 0f       	add	r30, r20
     fea:	f1 1d       	adc	r31, r1
     fec:	20 83       	st	Z, r18
     fee:	4f 5f       	subi	r20, 0xFF	; 255
     ff0:	29 91       	ld	r18, Y+
     ff2:	22 23       	and	r18, r18
     ff4:	e1 f6       	brne	.-72     	;  0xfae
     ff6:	90 e0       	ldi	r25, 0x00	; 0
     ff8:	8c 91       	ld	r24, X
     ffa:	80 32       	cpi	r24, 0x20	; 32
     ffc:	19 f0       	breq	.+6      	;  0x1004
     ffe:	91 e0       	ldi	r25, 0x01	; 1
    1000:	01 c0       	rjmp	.+2      	;  0x1004
    1002:	90 e0       	ldi	r25, 0x00	; 0
    1004:	89 2f       	mov	r24, r25
    1006:	df 91       	pop	r29
    1008:	cf 91       	pop	r28
    100a:	08 95       	ret
    100c:	0f 93       	push	r16
    100e:	1f 93       	push	r17
    1010:	cf 93       	push	r28
    1012:	df 93       	push	r29
    1014:	8c 01       	movw	r16, r24
    1016:	eb 01       	movw	r28, r22
    1018:	09 c0       	rjmp	.+18     	;  0x102c
    101a:	d8 01       	movw	r26, r16
    101c:	ed 91       	ld	r30, X+
    101e:	fc 91       	ld	r31, X
    1020:	01 90       	ld	r0, Z+
    1022:	f0 81       	ld	r31, Z
    1024:	e0 2d       	mov	r30, r0
    1026:	c8 01       	movw	r24, r16
    1028:	09 95       	icall
    102a:	21 96       	adiw	r28, 0x01	; 1
    102c:	fe 01       	movw	r30, r28
    102e:	64 91       	lpm	r22, Z+
    1030:	66 23       	and	r22, r22
    1032:	99 f7       	brne	.-26     	;  0x101a
    1034:	df 91       	pop	r29
    1036:	cf 91       	pop	r28
    1038:	1f 91       	pop	r17
    103a:	0f 91       	pop	r16
    103c:	08 95       	ret
    103e:	0f 93       	push	r16
    1040:	1f 93       	push	r17
    1042:	8c 01       	movw	r16, r24
    1044:	0e 94 06 08 	call	0x100c	;  0x100c
    1048:	c8 01       	movw	r24, r16
    104a:	0e 94 7b 23 	call	0x46f6	;  0x46f6
    104e:	1f 91       	pop	r17
    1050:	0f 91       	pop	r16
    1052:	08 95       	ret
    1054:	6f 92       	push	r6
    1056:	7f 92       	push	r7
    1058:	8f 92       	push	r8
    105a:	9f 92       	push	r9
    105c:	af 92       	push	r10
    105e:	bf 92       	push	r11
    1060:	cf 92       	push	r12
    1062:	df 92       	push	r13
    1064:	ef 92       	push	r14
    1066:	ff 92       	push	r15
    1068:	0f 93       	push	r16
    106a:	1f 93       	push	r17
    106c:	cf 93       	push	r28
    106e:	df 93       	push	r29
    1070:	ec 01       	movw	r28, r24
    1072:	7a 01       	movw	r14, r20
    1074:	8b 01       	movw	r16, r22
    1076:	2c 81       	ldd	r18, Y+4	; 0x04
    1078:	22 23       	and	r18, r18
    107a:	09 f4       	brne	.+2      	;  0x107e
    107c:	80 c0       	rjmp	.+256    	;  0x117e
    107e:	8a 89       	ldd	r24, Y+18	; 0x12
    1080:	9b 89       	ldd	r25, Y+19	; 0x13
    1082:	ac 89       	ldd	r26, Y+20	; 0x14
    1084:	bd 89       	ldd	r27, Y+21	; 0x15
    1086:	84 17       	cp	r24, r20
    1088:	95 07       	cpc	r25, r21
    108a:	a6 07       	cpc	r26, r22
    108c:	b7 07       	cpc	r27, r23
    108e:	08 f4       	brcc	.+2      	;  0x1092
    1090:	76 c0       	rjmp	.+236    	;  0x117e
    1092:	85 c0       	rjmp	.+266    	;  0x119e
    1094:	e1 14       	cp	r14, r1
    1096:	f1 04       	cpc	r15, r1
    1098:	01 05       	cpc	r16, r1
    109a:	11 05       	cpc	r17, r1
    109c:	49 f4       	brne	.+18     	;  0x10b0
    109e:	1d 82       	std	Y+5, r1	; 0x05
    10a0:	1e 82       	std	Y+6, r1	; 0x06
    10a2:	1f 82       	std	Y+7, r1	; 0x07
    10a4:	18 86       	std	Y+8, r1	; 0x08
    10a6:	19 86       	std	Y+9, r1	; 0x09
    10a8:	1a 86       	std	Y+10, r1	; 0x0a
    10aa:	1b 86       	std	Y+11, r1	; 0x0b
    10ac:	1c 86       	std	Y+12, r1	; 0x0c
    10ae:	65 c0       	rjmp	.+202    	;  0x117a
    10b0:	29 85       	ldd	r18, Y+9	; 0x09
    10b2:	3a 85       	ldd	r19, Y+10	; 0x0a
    10b4:	4b 85       	ldd	r20, Y+11	; 0x0b
    10b6:	5c 85       	ldd	r21, Y+12	; 0x0c
    10b8:	ea 8d       	ldd	r30, Y+26	; 0x1a
    10ba:	fb 8d       	ldd	r31, Y+27	; 0x1b
    10bc:	85 85       	ldd	r24, Z+13	; 0x0d
    10be:	90 e0       	ldi	r25, 0x00	; 0
    10c0:	09 96       	adiw	r24, 0x09	; 9
    10c2:	21 50       	subi	r18, 0x01	; 1
    10c4:	30 40       	sbci	r19, 0x00	; 0
    10c6:	40 40       	sbci	r20, 0x00	; 0
    10c8:	50 40       	sbci	r21, 0x00	; 0
    10ca:	39 01       	movw	r6, r18
    10cc:	4a 01       	movw	r8, r20
    10ce:	08 2e       	mov	r0, r24
    10d0:	04 c0       	rjmp	.+8      	;  0x10da
    10d2:	96 94       	lsr	r9
    10d4:	87 94       	ror	r8
    10d6:	77 94       	ror	r7
    10d8:	67 94       	ror	r6
    10da:	0a 94       	dec	r0
    10dc:	d2 f7       	brpl	.-12     	;  0x10d2
    10de:	2f 5f       	subi	r18, 0xFF	; 255
    10e0:	3f 4f       	sbci	r19, 0xFF	; 255
    10e2:	4f 4f       	sbci	r20, 0xFF	; 255
    10e4:	5f 4f       	sbci	r21, 0xFF	; 255
    10e6:	08 94       	sec
    10e8:	e1 08       	sbc	r14, r1
    10ea:	f1 08       	sbc	r15, r1
    10ec:	01 09       	sbc	r16, r1
    10ee:	11 09       	sbc	r17, r1
    10f0:	57 01       	movw	r10, r14
    10f2:	68 01       	movw	r12, r16
    10f4:	04 c0       	rjmp	.+8      	;  0x10fe
    10f6:	d6 94       	lsr	r13
    10f8:	c7 94       	ror	r12
    10fa:	b7 94       	ror	r11
    10fc:	a7 94       	ror	r10
    10fe:	8a 95       	dec	r24
    1100:	d2 f7       	brpl	.-12     	;  0x10f6
    1102:	08 94       	sec
    1104:	e1 1c       	adc	r14, r1
    1106:	f1 1c       	adc	r15, r1
    1108:	01 1d       	adc	r16, r1
    110a:	11 1d       	adc	r17, r1
    110c:	a6 14       	cp	r10, r6
    110e:	b7 04       	cpc	r11, r7
    1110:	c8 04       	cpc	r12, r8
    1112:	d9 04       	cpc	r13, r9
    1114:	28 f0       	brcs	.+10     	;  0x1120
    1116:	21 15       	cp	r18, r1
    1118:	31 05       	cpc	r19, r1
    111a:	41 05       	cpc	r20, r1
    111c:	51 05       	cpc	r21, r1
    111e:	49 f4       	brne	.+18     	;  0x1132
    1120:	8e 89       	ldd	r24, Y+22	; 0x16
    1122:	9f 89       	ldd	r25, Y+23	; 0x17
    1124:	a8 8d       	ldd	r26, Y+24	; 0x18
    1126:	b9 8d       	ldd	r27, Y+25	; 0x19
    1128:	8d 83       	std	Y+5, r24	; 0x05
    112a:	9e 83       	std	Y+6, r25	; 0x06
    112c:	af 83       	std	Y+7, r26	; 0x07
    112e:	b8 87       	std	Y+8, r27	; 0x08
    1130:	16 c0       	rjmp	.+44     	;  0x115e
    1132:	a6 18       	sub	r10, r6
    1134:	b7 08       	sbc	r11, r7
    1136:	c8 08       	sbc	r12, r8
    1138:	d9 08       	sbc	r13, r9
    113a:	11 c0       	rjmp	.+34     	;  0x115e
    113c:	4d 81       	ldd	r20, Y+5	; 0x05
    113e:	5e 81       	ldd	r21, Y+6	; 0x06
    1140:	6f 81       	ldd	r22, Y+7	; 0x07
    1142:	78 85       	ldd	r23, Y+8	; 0x08
    1144:	8a 8d       	ldd	r24, Y+26	; 0x1a
    1146:	9b 8d       	ldd	r25, Y+27	; 0x1b
    1148:	94 01       	movw	r18, r8
    114a:	0e 94 be 17 	call	0x2f7c	;  0x2f7c
    114e:	08 94       	sec
    1150:	a1 08       	sbc	r10, r1
    1152:	b1 08       	sbc	r11, r1
    1154:	c1 08       	sbc	r12, r1
    1156:	d1 08       	sbc	r13, r1
    1158:	88 23       	and	r24, r24
    115a:	31 f4       	brne	.+12     	;  0x1168
    115c:	10 c0       	rjmp	.+32     	;  0x117e
    115e:	85 e0       	ldi	r24, 0x05	; 5
    1160:	88 2e       	mov	r8, r24
    1162:	91 2c       	mov	r9, r1
    1164:	8c 0e       	add	r8, r28
    1166:	9d 1e       	adc	r9, r29
    1168:	a1 14       	cp	r10, r1
    116a:	b1 04       	cpc	r11, r1
    116c:	c1 04       	cpc	r12, r1
    116e:	d1 04       	cpc	r13, r1
    1170:	29 f7       	brne	.-54     	;  0x113c
    1172:	e9 86       	std	Y+9, r14	; 0x09
    1174:	fa 86       	std	Y+10, r15	; 0x0a
    1176:	0b 87       	std	Y+11, r16	; 0x0b
    1178:	1c 87       	std	Y+12, r17	; 0x0c
    117a:	81 e0       	ldi	r24, 0x01	; 1
    117c:	01 c0       	rjmp	.+2      	;  0x1180
    117e:	80 e0       	ldi	r24, 0x00	; 0
    1180:	df 91       	pop	r29
    1182:	cf 91       	pop	r28
    1184:	1f 91       	pop	r17
    1186:	0f 91       	pop	r16
    1188:	ff 90       	pop	r15
    118a:	ef 90       	pop	r14
    118c:	df 90       	pop	r13
    118e:	cf 90       	pop	r12
    1190:	bf 90       	pop	r11
    1192:	af 90       	pop	r10
    1194:	9f 90       	pop	r9
    1196:	8f 90       	pop	r8
    1198:	7f 90       	pop	r7
    119a:	6f 90       	pop	r6
    119c:	08 95       	ret
    119e:	22 30       	cpi	r18, 0x02	; 2
    11a0:	09 f0       	breq	.+2      	;  0x11a4
    11a2:	78 cf       	rjmp	.-272    	;  0x1094
    11a4:	e6 cf       	rjmp	.-52     	;  0x1172
    11a6:	6f 92       	push	r6
    11a8:	7f 92       	push	r7
    11aa:	8f 92       	push	r8
    11ac:	9f 92       	push	r9
    11ae:	af 92       	push	r10
    11b0:	bf 92       	push	r11
    11b2:	cf 92       	push	r12
    11b4:	df 92       	push	r13
    11b6:	ef 92       	push	r14
    11b8:	ff 92       	push	r15
    11ba:	0f 93       	push	r16
    11bc:	1f 93       	push	r17
    11be:	df 93       	push	r29
    11c0:	cf 93       	push	r28
    11c2:	00 d0       	rcall	.+0      	;  0x11c4
    11c4:	00 d0       	rcall	.+0      	;  0x11c6
    11c6:	cd b7       	in	r28, 0x3d	; 61
    11c8:	de b7       	in	r29, 0x3e	; 62
    11ca:	6c 01       	movw	r12, r24
    11cc:	4b 01       	movw	r8, r22
    11ce:	3a 01       	movw	r6, r20
    11d0:	dc 01       	movw	r26, r24
    11d2:	56 96       	adiw	r26, 0x16	; 22
    11d4:	ed 90       	ld	r14, X+
    11d6:	fd 90       	ld	r15, X+
    11d8:	0d 91       	ld	r16, X+
    11da:	1c 91       	ld	r17, X
    11dc:	59 97       	sbiw	r26, 0x19	; 25
    11de:	e1 14       	cp	r14, r1
    11e0:	f1 04       	cpc	r15, r1
    11e2:	01 05       	cpc	r16, r1
    11e4:	11 05       	cpc	r17, r1
    11e6:	09 f4       	brne	.+2      	;  0x11ea
    11e8:	82 c0       	rjmp	.+260    	;  0x12ee
    11ea:	5e 01       	movw	r10, r28
    11ec:	08 94       	sec
    11ee:	a1 1c       	adc	r10, r1
    11f0:	b1 1c       	adc	r11, r1
    11f2:	f6 01       	movw	r30, r12
    11f4:	82 8d       	ldd	r24, Z+26	; 0x1a
    11f6:	93 8d       	ldd	r25, Z+27	; 0x1b
    11f8:	b8 01       	movw	r22, r16
    11fa:	a7 01       	movw	r20, r14
    11fc:	95 01       	movw	r18, r10
    11fe:	0e 94 be 17 	call	0x2f7c	;  0x2f7c
    1202:	88 23       	and	r24, r24
    1204:	09 f4       	brne	.+2      	;  0x1208
    1206:	73 c0       	rjmp	.+230    	;  0x12ee
    1208:	29 81       	ldd	r18, Y+1	; 0x01
    120a:	3a 81       	ldd	r19, Y+2	; 0x02
    120c:	4b 81       	ldd	r20, Y+3	; 0x03
    120e:	5c 81       	ldd	r21, Y+4	; 0x04
    1210:	d8 01       	movw	r26, r16
    1212:	c7 01       	movw	r24, r14
    1214:	01 96       	adiw	r24, 0x01	; 1
    1216:	a1 1d       	adc	r26, r1
    1218:	b1 1d       	adc	r27, r1
    121a:	28 17       	cp	r18, r24
    121c:	39 07       	cpc	r19, r25
    121e:	4a 07       	cpc	r20, r26
    1220:	5b 07       	cpc	r21, r27
    1222:	19 f4       	brne	.+6      	;  0x122a
    1224:	79 01       	movw	r14, r18
    1226:	8a 01       	movw	r16, r20
    1228:	e4 cf       	rjmp	.-56     	;  0x11f2
    122a:	d6 01       	movw	r26, r12
    122c:	5a 96       	adiw	r26, 0x1a	; 26
    122e:	6d 91       	ld	r22, X+
    1230:	7c 91       	ld	r23, X
    1232:	5b 97       	sbiw	r26, 0x1b	; 27
    1234:	fb 01       	movw	r30, r22
    1236:	87 89       	ldd	r24, Z+23	; 0x17
    1238:	80 31       	cpi	r24, 0x10	; 16
    123a:	29 f0       	breq	.+10     	;  0x1246
    123c:	88 ef       	ldi	r24, 0xF8	; 248
    123e:	9f ef       	ldi	r25, 0xFF	; 255
    1240:	af ef       	ldi	r26, 0xFF	; 255
    1242:	bf e0       	ldi	r27, 0x0F	; 15
    1244:	04 c0       	rjmp	.+8      	;  0x124e
    1246:	88 ef       	ldi	r24, 0xF8	; 248
    1248:	9f ef       	ldi	r25, 0xFF	; 255
    124a:	a0 e0       	ldi	r26, 0x00	; 0
    124c:	b0 e0       	ldi	r27, 0x00	; 0
    124e:	28 17       	cp	r18, r24
    1250:	39 07       	cpc	r19, r25
    1252:	4a 07       	cpc	r20, r26
    1254:	5b 07       	cpc	r21, r27
    1256:	08 f4       	brcc	.+2      	;  0x125a
    1258:	4a c0       	rjmp	.+148    	;  0x12ee
    125a:	f6 01       	movw	r30, r12
    125c:	86 89       	ldd	r24, Z+22	; 0x16
    125e:	97 89       	ldd	r25, Z+23	; 0x17
    1260:	a0 8d       	ldd	r26, Z+24	; 0x18
    1262:	b1 8d       	ldd	r27, Z+25	; 0x19
    1264:	02 97       	sbiw	r24, 0x02	; 2
    1266:	a1 09       	sbc	r26, r1
    1268:	b1 09       	sbc	r27, r1
    126a:	fb 01       	movw	r30, r22
    126c:	05 84       	ldd	r0, Z+13	; 0x0d
    126e:	04 c0       	rjmp	.+8      	;  0x1278
    1270:	88 0f       	add	r24, r24
    1272:	99 1f       	adc	r25, r25
    1274:	aa 1f       	adc	r26, r26
    1276:	bb 1f       	adc	r27, r27
    1278:	0a 94       	dec	r0
    127a:	d2 f7       	brpl	.-12     	;  0x1270
    127c:	26 85       	ldd	r18, Z+14	; 0x0e
    127e:	37 85       	ldd	r19, Z+15	; 0x0f
    1280:	40 89       	ldd	r20, Z+16	; 0x10
    1282:	51 89       	ldd	r21, Z+17	; 0x11
    1284:	82 0f       	add	r24, r18
    1286:	93 1f       	adc	r25, r19
    1288:	a4 1f       	adc	r26, r20
    128a:	b5 1f       	adc	r27, r21
    128c:	f4 01       	movw	r30, r8
    128e:	80 83       	st	Z, r24
    1290:	91 83       	std	Z+1, r25	; 0x01
    1292:	a2 83       	std	Z+2, r26	; 0x02
    1294:	b3 83       	std	Z+3, r27	; 0x03
    1296:	d6 01       	movw	r26, r12
    1298:	5a 96       	adiw	r26, 0x1a	; 26
    129a:	ed 91       	ld	r30, X+
    129c:	fc 91       	ld	r31, X
    129e:	5b 97       	sbiw	r26, 0x1b	; 27
    12a0:	86 85       	ldd	r24, Z+14	; 0x0e
    12a2:	97 85       	ldd	r25, Z+15	; 0x0f
    12a4:	a0 89       	ldd	r26, Z+16	; 0x10
    12a6:	b1 89       	ldd	r27, Z+17	; 0x11
    12a8:	01 97       	sbiw	r24, 0x01	; 1
    12aa:	a1 09       	sbc	r26, r1
    12ac:	b1 09       	sbc	r27, r1
    12ae:	24 81       	ldd	r18, Z+4	; 0x04
    12b0:	82 0f       	add	r24, r18
    12b2:	91 1d       	adc	r25, r1
    12b4:	a1 1d       	adc	r26, r1
    12b6:	b1 1d       	adc	r27, r1
    12b8:	2e ef       	ldi	r18, 0xFE	; 254
    12ba:	3f ef       	ldi	r19, 0xFF	; 255
    12bc:	4f ef       	ldi	r20, 0xFF	; 255
    12be:	5f ef       	ldi	r21, 0xFF	; 255
    12c0:	e2 0e       	add	r14, r18
    12c2:	f3 1e       	adc	r15, r19
    12c4:	04 1f       	adc	r16, r20
    12c6:	15 1f       	adc	r17, r21
    12c8:	05 84       	ldd	r0, Z+13	; 0x0d
    12ca:	04 c0       	rjmp	.+8      	;  0x12d4
    12cc:	ee 0c       	add	r14, r14
    12ce:	ff 1c       	adc	r15, r15
    12d0:	00 1f       	adc	r16, r16
    12d2:	11 1f       	adc	r17, r17
    12d4:	0a 94       	dec	r0
    12d6:	d2 f7       	brpl	.-12     	;  0x12cc
    12d8:	8e 0d       	add	r24, r14
    12da:	9f 1d       	adc	r25, r15
    12dc:	a0 1f       	adc	r26, r16
    12de:	b1 1f       	adc	r27, r17
    12e0:	f3 01       	movw	r30, r6
    12e2:	80 83       	st	Z, r24
    12e4:	91 83       	std	Z+1, r25	; 0x01
    12e6:	a2 83       	std	Z+2, r26	; 0x02
    12e8:	b3 83       	std	Z+3, r27	; 0x03
    12ea:	81 e0       	ldi	r24, 0x01	; 1
    12ec:	01 c0       	rjmp	.+2      	;  0x12f0
    12ee:	80 e0       	ldi	r24, 0x00	; 0
    12f0:	0f 90       	pop	r0
    12f2:	0f 90       	pop	r0
    12f4:	0f 90       	pop	r0
    12f6:	0f 90       	pop	r0
    12f8:	cf 91       	pop	r28
    12fa:	df 91       	pop	r29
    12fc:	1f 91       	pop	r17
    12fe:	0f 91       	pop	r16
    1300:	ff 90       	pop	r15
    1302:	ef 90       	pop	r14
    1304:	df 90       	pop	r13
    1306:	cf 90       	pop	r12
    1308:	bf 90       	pop	r11
    130a:	af 90       	pop	r10
    130c:	9f 90       	pop	r9
    130e:	8f 90       	pop	r8
    1310:	7f 90       	pop	r7
    1312:	6f 90       	pop	r6
    1314:	08 95       	ret
    1316:	cf 93       	push	r28
    1318:	df 93       	push	r29
    131a:	ec 01       	movw	r28, r24
    131c:	46 2f       	mov	r20, r22
    131e:	6d 85       	ldd	r22, Y+13	; 0x0d
    1320:	7e 85       	ldd	r23, Y+14	; 0x0e
    1322:	8f 85       	ldd	r24, Y+15	; 0x0f
    1324:	98 89       	ldd	r25, Y+16	; 0x10
    1326:	0e 94 a2 15 	call	0x2b44	;  0x2b44
    132a:	88 23       	and	r24, r24
    132c:	19 f4       	brne	.+6      	;  0x1334
    132e:	20 e0       	ldi	r18, 0x00	; 0
    1330:	30 e0       	ldi	r19, 0x00	; 0
    1332:	0a c0       	rjmp	.+20     	;  0x1348
    1334:	89 89       	ldd	r24, Y+17	; 0x11
    1336:	28 2f       	mov	r18, r24
    1338:	30 e0       	ldi	r19, 0x00	; 0
    133a:	95 e0       	ldi	r25, 0x05	; 5
    133c:	22 0f       	add	r18, r18
    133e:	33 1f       	adc	r19, r19
    1340:	9a 95       	dec	r25
    1342:	e1 f7       	brne	.-8      	;  0x133c
    1344:	2a 56       	subi	r18, 0x6A	; 106
    1346:	3d 4f       	sbci	r19, 0xFD	; 253
    1348:	c9 01       	movw	r24, r18
    134a:	df 91       	pop	r29
    134c:	cf 91       	pop	r28
    134e:	08 95       	ret
    1350:	0f 93       	push	r16
    1352:	1f 93       	push	r17
    1354:	cf 93       	push	r28
    1356:	df 93       	push	r29
    1358:	8c 01       	movw	r16, r24
    135a:	fc 01       	movw	r30, r24
    135c:	84 81       	ldd	r24, Z+4	; 0x04
    135e:	88 23       	and	r24, r24
    1360:	c9 f1       	breq	.+114    	;  0x13d4
    1362:	83 81       	ldd	r24, Z+3	; 0x03
    1364:	87 ff       	sbrs	r24, 7
    1366:	33 c0       	rjmp	.+102    	;  0x13ce
    1368:	c8 01       	movw	r24, r16
    136a:	61 e0       	ldi	r22, 0x01	; 1
    136c:	0e 94 8b 09 	call	0x1316	;  0x1316
    1370:	ec 01       	movw	r28, r24
    1372:	00 97       	sbiw	r24, 0x00	; 0
    1374:	79 f1       	breq	.+94     	;  0x13d4
    1376:	f8 01       	movw	r30, r16
    1378:	84 81       	ldd	r24, Z+4	; 0x04
    137a:	82 30       	cpi	r24, 0x02	; 2
    137c:	40 f4       	brcc	.+16     	;  0x138e
    137e:	82 89       	ldd	r24, Z+18	; 0x12
    1380:	93 89       	ldd	r25, Z+19	; 0x13
    1382:	a4 89       	ldd	r26, Z+20	; 0x14
    1384:	b5 89       	ldd	r27, Z+21	; 0x15
    1386:	8c 8f       	std	Y+28, r24	; 0x1c
    1388:	9d 8f       	std	Y+29, r25	; 0x1d
    138a:	ae 8f       	std	Y+30, r26	; 0x1e
    138c:	bf 8f       	std	Y+31, r27	; 0x1f
    138e:	f8 01       	movw	r30, r16
    1390:	86 89       	ldd	r24, Z+22	; 0x16
    1392:	97 89       	ldd	r25, Z+23	; 0x17
    1394:	a0 8d       	ldd	r26, Z+24	; 0x18
    1396:	b1 8d       	ldd	r27, Z+25	; 0x19
    1398:	9b 8f       	std	Y+27, r25	; 0x1b
    139a:	8a 8f       	std	Y+26, r24	; 0x1a
    139c:	cd 01       	movw	r24, r26
    139e:	aa 27       	eor	r26, r26
    13a0:	bb 27       	eor	r27, r27
    13a2:	9d 8b       	std	Y+21, r25	; 0x15
    13a4:	8c 8b       	std	Y+20, r24	; 0x14
    13a6:	e0 91 92 02 	lds	r30, 0x0292
    13aa:	f0 91 93 02 	lds	r31, 0x0293
    13ae:	30 97       	sbiw	r30, 0x00	; 0
    13b0:	51 f0       	breq	.+20     	;  0x13c6
    13b2:	be 01       	movw	r22, r28
    13b4:	6a 5e       	subi	r22, 0xEA	; 234
    13b6:	7f 4f       	sbci	r23, 0xFF	; 255
    13b8:	ce 01       	movw	r24, r28
    13ba:	48 96       	adiw	r24, 0x18	; 24
    13bc:	09 95       	icall
    13be:	88 8d       	ldd	r24, Y+24	; 0x18
    13c0:	99 8d       	ldd	r25, Y+25	; 0x19
    13c2:	9b 8b       	std	Y+19, r25	; 0x13
    13c4:	8a 8b       	std	Y+18, r24	; 0x12
    13c6:	f8 01       	movw	r30, r16
    13c8:	83 81       	ldd	r24, Z+3	; 0x03
    13ca:	8f 77       	andi	r24, 0x7F	; 127
    13cc:	83 83       	std	Z+3, r24	; 0x03
    13ce:	0e 94 43 15 	call	0x2a86	;  0x2a86
    13d2:	01 c0       	rjmp	.+2      	;  0x13d6
    13d4:	80 e0       	ldi	r24, 0x00	; 0
    13d6:	df 91       	pop	r29
    13d8:	cf 91       	pop	r28
    13da:	1f 91       	pop	r17
    13dc:	0f 91       	pop	r16
    13de:	08 95       	ret
    13e0:	cf 93       	push	r28
    13e2:	df 93       	push	r29
    13e4:	ec 01       	movw	r28, r24
    13e6:	0e 94 a8 09 	call	0x1350	;  0x1350
    13ea:	88 23       	and	r24, r24
    13ec:	11 f0       	breq	.+4      	;  0x13f2
    13ee:	1c 82       	std	Y+4, r1	; 0x04
    13f0:	81 e0       	ldi	r24, 0x01	; 1
    13f2:	df 91       	pop	r29
    13f4:	cf 91       	pop	r28
    13f6:	08 95       	ret
    13f8:	8f 92       	push	r8
    13fa:	9f 92       	push	r9
    13fc:	af 92       	push	r10
    13fe:	cf 92       	push	r12
    1400:	df 92       	push	r13
    1402:	ef 92       	push	r14
    1404:	ff 92       	push	r15
    1406:	0f 93       	push	r16
    1408:	1f 93       	push	r17
    140a:	cf 93       	push	r28
    140c:	df 93       	push	r29
    140e:	4c 01       	movw	r8, r24
    1410:	d6 2e       	mov	r13, r22
    1412:	ea 01       	movw	r28, r20
    1414:	12 2f       	mov	r17, r18
    1416:	fe 2c       	mov	r15, r14
    1418:	ea 2c       	mov	r14, r10
    141a:	fc 01       	movw	r30, r24
    141c:	84 81       	ldd	r24, Z+4	; 0x04
    141e:	88 23       	and	r24, r24
    1420:	09 f4       	brne	.+2      	;  0x1424
    1422:	69 c0       	rjmp	.+210    	;  0x14f6
    1424:	f7 e0       	ldi	r31, 0x07	; 7
    1426:	4c 3b       	cpi	r20, 0xBC	; 188
    1428:	5f 07       	cpc	r21, r31
    142a:	08 f4       	brcc	.+2      	;  0x142e
    142c:	64 c0       	rjmp	.+200    	;  0x14f6
    142e:	88 e0       	ldi	r24, 0x08	; 8
    1430:	4c 33       	cpi	r20, 0x3C	; 60
    1432:	58 07       	cpc	r21, r24
    1434:	08 f0       	brcs	.+2      	;  0x1438
    1436:	5f c0       	rjmp	.+190    	;  0x14f6
    1438:	22 23       	and	r18, r18
    143a:	09 f4       	brne	.+2      	;  0x143e
    143c:	5c c0       	rjmp	.+184    	;  0x14f6
    143e:	2d 30       	cpi	r18, 0x0D	; 13
    1440:	08 f0       	brcs	.+2      	;  0x1444
    1442:	59 c0       	rjmp	.+178    	;  0x14f6
    1444:	00 23       	and	r16, r16
    1446:	09 f4       	brne	.+2      	;  0x144a
    1448:	56 c0       	rjmp	.+172    	;  0x14f6
    144a:	00 32       	cpi	r16, 0x20	; 32
    144c:	08 f0       	brcs	.+2      	;  0x1450
    144e:	53 c0       	rjmp	.+166    	;  0x14f6
    1450:	e7 e1       	ldi	r30, 0x17	; 23
    1452:	ef 15       	cp	r30, r15
    1454:	08 f4       	brcc	.+2      	;  0x1458
    1456:	4f c0       	rjmp	.+158    	;  0x14f6
    1458:	fb e3       	ldi	r31, 0x3B	; 59
    145a:	fc 15       	cp	r31, r12
    145c:	08 f4       	brcc	.+2      	;  0x1460
    145e:	4b c0       	rjmp	.+150    	;  0x14f6
    1460:	fa 15       	cp	r31, r10
    1462:	08 f4       	brcc	.+2      	;  0x1466
    1464:	48 c0       	rjmp	.+144    	;  0x14f6
    1466:	54 c0       	rjmp	.+168    	;  0x1510
    1468:	40 2f       	mov	r20, r16
    146a:	50 e0       	ldi	r21, 0x00	; 0
    146c:	cc 5b       	subi	r28, 0xBC	; 188
    146e:	d7 40       	sbci	r29, 0x07	; 7
    1470:	dc 2f       	mov	r29, r28
    1472:	cc 27       	eor	r28, r28
    1474:	dd 0f       	add	r29, r29
    1476:	4c 2b       	or	r20, r28
    1478:	5d 2b       	or	r21, r29
    147a:	81 2f       	mov	r24, r17
    147c:	90 e0       	ldi	r25, 0x00	; 0
    147e:	a5 e0       	ldi	r26, 0x05	; 5
    1480:	88 0f       	add	r24, r24
    1482:	99 1f       	adc	r25, r25
    1484:	aa 95       	dec	r26
    1486:	e1 f7       	brne	.-8      	;  0x1480
    1488:	48 2b       	or	r20, r24
    148a:	59 2b       	or	r21, r25
    148c:	ae 2d       	mov	r26, r14
    148e:	b0 e0       	ldi	r27, 0x00	; 0
    1490:	2c 2d       	mov	r18, r12
    1492:	30 e0       	ldi	r19, 0x00	; 0
    1494:	75 e0       	ldi	r23, 0x05	; 5
    1496:	22 0f       	add	r18, r18
    1498:	33 1f       	adc	r19, r19
    149a:	7a 95       	dec	r23
    149c:	e1 f7       	brne	.-8      	;  0x1496
    149e:	9f 2d       	mov	r25, r15
    14a0:	99 0f       	add	r25, r25
    14a2:	99 0f       	add	r25, r25
    14a4:	99 0f       	add	r25, r25
    14a6:	80 e0       	ldi	r24, 0x00	; 0
    14a8:	28 2b       	or	r18, r24
    14aa:	39 2b       	or	r19, r25
    14ac:	cd 01       	movw	r24, r26
    14ae:	95 95       	asr	r25
    14b0:	87 95       	ror	r24
    14b2:	28 2b       	or	r18, r24
    14b4:	39 2b       	or	r19, r25
    14b6:	6d 2d       	mov	r22, r13
    14b8:	d0 fe       	sbrs	r13, 0
    14ba:	02 c0       	rjmp	.+4      	;  0x14c0
    14bc:	53 8b       	std	Z+19, r21	; 0x13
    14be:	42 8b       	std	Z+18, r20	; 0x12
    14c0:	61 ff       	sbrs	r22, 1
    14c2:	0a c0       	rjmp	.+20     	;  0x14d8
    14c4:	51 8b       	std	Z+17, r21	; 0x11
    14c6:	40 8b       	std	Z+16, r20	; 0x10
    14c8:	37 87       	std	Z+15, r19	; 0x0f
    14ca:	26 87       	std	Z+14, r18	; 0x0e
    14cc:	a0 fd       	sbrc	r26, 0
    14ce:	02 c0       	rjmp	.+4      	;  0x14d4
    14d0:	80 e0       	ldi	r24, 0x00	; 0
    14d2:	01 c0       	rjmp	.+2      	;  0x14d6
    14d4:	84 e6       	ldi	r24, 0x64	; 100
    14d6:	85 87       	std	Z+13, r24	; 0x0d
    14d8:	62 ff       	sbrs	r22, 2
    14da:	04 c0       	rjmp	.+8      	;  0x14e4
    14dc:	51 8f       	std	Z+25, r21	; 0x19
    14de:	40 8f       	std	Z+24, r20	; 0x18
    14e0:	37 8b       	std	Z+23, r19	; 0x17
    14e2:	26 8b       	std	Z+22, r18	; 0x16
    14e4:	80 91 98 04 	lds	r24, 0x0498
    14e8:	81 60       	ori	r24, 0x01	; 1
    14ea:	80 93 98 04 	sts	0x0498, r24
    14ee:	c4 01       	movw	r24, r8
    14f0:	0e 94 a8 09 	call	0x1350	;  0x1350
    14f4:	01 c0       	rjmp	.+2      	;  0x14f8
    14f6:	80 e0       	ldi	r24, 0x00	; 0
    14f8:	df 91       	pop	r29
    14fa:	cf 91       	pop	r28
    14fc:	1f 91       	pop	r17
    14fe:	0f 91       	pop	r16
    1500:	ff 90       	pop	r15
    1502:	ef 90       	pop	r14
    1504:	df 90       	pop	r13
    1506:	cf 90       	pop	r12
    1508:	af 90       	pop	r10
    150a:	9f 90       	pop	r9
    150c:	8f 90       	pop	r8
    150e:	08 95       	ret
    1510:	c4 01       	movw	r24, r8
    1512:	61 e0       	ldi	r22, 0x01	; 1
    1514:	0e 94 8b 09 	call	0x1316	;  0x1316
    1518:	fc 01       	movw	r30, r24
    151a:	00 97       	sbiw	r24, 0x00	; 0
    151c:	09 f0       	breq	.+2      	;  0x1520
    151e:	a4 cf       	rjmp	.-184    	;  0x1468
    1520:	ea cf       	rjmp	.-44     	;  0x14f6
    1522:	6f 92       	push	r6
    1524:	7f 92       	push	r7
    1526:	8f 92       	push	r8
    1528:	9f 92       	push	r9
    152a:	af 92       	push	r10
    152c:	bf 92       	push	r11
    152e:	cf 92       	push	r12
    1530:	df 92       	push	r13
    1532:	ef 92       	push	r14
    1534:	ff 92       	push	r15
    1536:	0f 93       	push	r16
    1538:	1f 93       	push	r17
    153a:	df 93       	push	r29
    153c:	cf 93       	push	r28
    153e:	00 d0       	rcall	.+0      	;  0x1540
    1540:	00 d0       	rcall	.+0      	;  0x1542
    1542:	cd b7       	in	r28, 0x3d	; 61
    1544:	de b7       	in	r29, 0x3e	; 62
    1546:	7c 01       	movw	r14, r24
    1548:	5a 01       	movw	r10, r20
    154a:	6b 01       	movw	r12, r22
    154c:	dc 01       	movw	r26, r24
    154e:	14 96       	adiw	r26, 0x04	; 4
    1550:	8c 91       	ld	r24, X
    1552:	14 97       	sbiw	r26, 0x04	; 4
    1554:	81 30       	cpi	r24, 0x01	; 1
    1556:	09 f0       	breq	.+2      	;  0x155a
    1558:	8f c0       	rjmp	.+286    	;  0x1678
    155a:	13 96       	adiw	r26, 0x03	; 3
    155c:	8c 91       	ld	r24, X
    155e:	81 ff       	sbrs	r24, 1
    1560:	8b c0       	rjmp	.+278    	;  0x1678
    1562:	9e c0       	rjmp	.+316    	;  0x16a0
    1564:	00 97       	sbiw	r24, 0x00	; 0
    1566:	a1 05       	cpc	r26, r1
    1568:	b1 05       	cpc	r27, r1
    156a:	11 f4       	brne	.+4      	;  0x1570
    156c:	81 e0       	ldi	r24, 0x01	; 1
    156e:	85 c0       	rjmp	.+266    	;  0x167a
    1570:	f7 01       	movw	r30, r14
    1572:	61 84       	ldd	r6, Z+9	; 0x09
    1574:	72 84       	ldd	r7, Z+10	; 0x0a
    1576:	83 84       	ldd	r8, Z+11	; 0x0b
    1578:	94 84       	ldd	r9, Z+12	; 0x0c
    157a:	c7 01       	movw	r24, r14
    157c:	b6 01       	movw	r22, r12
    157e:	a5 01       	movw	r20, r10
    1580:	0e 94 2a 08 	call	0x1054	;  0x1054
    1584:	88 23       	and	r24, r24
    1586:	09 f4       	brne	.+2      	;  0x158a
    1588:	77 c0       	rjmp	.+238    	;  0x1678
    158a:	d7 01       	movw	r26, r14
    158c:	5a 96       	adiw	r26, 0x1a	; 26
    158e:	8d 91       	ld	r24, X+
    1590:	9c 91       	ld	r25, X
    1592:	5b 97       	sbiw	r26, 0x1b	; 27
    1594:	a1 14       	cp	r10, r1
    1596:	b1 04       	cpc	r11, r1
    1598:	c1 04       	cpc	r12, r1
    159a:	d1 04       	cpc	r13, r1
    159c:	89 f4       	brne	.+34     	;  0x15c0
    159e:	56 96       	adiw	r26, 0x16	; 22
    15a0:	4d 91       	ld	r20, X+
    15a2:	5d 91       	ld	r21, X+
    15a4:	6d 91       	ld	r22, X+
    15a6:	7c 91       	ld	r23, X
    15a8:	59 97       	sbiw	r26, 0x19	; 25
    15aa:	0e 94 31 18 	call	0x3062	;  0x3062
    15ae:	88 23       	and	r24, r24
    15b0:	09 f4       	brne	.+2      	;  0x15b4
    15b2:	62 c0       	rjmp	.+196    	;  0x1678
    15b4:	f7 01       	movw	r30, r14
    15b6:	16 8a       	std	Z+22, r1	; 0x16
    15b8:	17 8a       	std	Z+23, r1	; 0x17
    15ba:	10 8e       	std	Z+24, r1	; 0x18
    15bc:	11 8e       	std	Z+25, r1	; 0x19
    15be:	3d c0       	rjmp	.+122    	;  0x163a
    15c0:	d7 01       	movw	r26, r14
    15c2:	15 96       	adiw	r26, 0x05	; 5
    15c4:	4d 91       	ld	r20, X+
    15c6:	5d 91       	ld	r21, X+
    15c8:	6d 91       	ld	r22, X+
    15ca:	7c 91       	ld	r23, X
    15cc:	18 97       	sbiw	r26, 0x08	; 8
    15ce:	9e 01       	movw	r18, r28
    15d0:	2f 5f       	subi	r18, 0xFF	; 255
    15d2:	3f 4f       	sbci	r19, 0xFF	; 255
    15d4:	0e 94 be 17 	call	0x2f7c	;  0x2f7c
    15d8:	88 23       	and	r24, r24
    15da:	09 f4       	brne	.+2      	;  0x15de
    15dc:	4d c0       	rjmp	.+154    	;  0x1678
    15de:	d7 01       	movw	r26, r14
    15e0:	5a 96       	adiw	r26, 0x1a	; 26
    15e2:	ed 91       	ld	r30, X+
    15e4:	fc 91       	ld	r31, X
    15e6:	5b 97       	sbiw	r26, 0x1b	; 27
    15e8:	49 81       	ldd	r20, Y+1	; 0x01
    15ea:	5a 81       	ldd	r21, Y+2	; 0x02
    15ec:	6b 81       	ldd	r22, Y+3	; 0x03
    15ee:	7c 81       	ldd	r23, Y+4	; 0x04
    15f0:	87 89       	ldd	r24, Z+23	; 0x17
    15f2:	80 31       	cpi	r24, 0x10	; 16
    15f4:	29 f0       	breq	.+10     	;  0x1600
    15f6:	88 ef       	ldi	r24, 0xF8	; 248
    15f8:	9f ef       	ldi	r25, 0xFF	; 255
    15fa:	af ef       	ldi	r26, 0xFF	; 255
    15fc:	bf e0       	ldi	r27, 0x0F	; 15
    15fe:	04 c0       	rjmp	.+8      	;  0x1608
    1600:	88 ef       	ldi	r24, 0xF8	; 248
    1602:	9f ef       	ldi	r25, 0xFF	; 255
    1604:	a0 e0       	ldi	r26, 0x00	; 0
    1606:	b0 e0       	ldi	r27, 0x00	; 0
    1608:	48 17       	cp	r20, r24
    160a:	59 07       	cpc	r21, r25
    160c:	6a 07       	cpc	r22, r26
    160e:	7b 07       	cpc	r23, r27
    1610:	a0 f4       	brcc	.+40     	;  0x163a
    1612:	cf 01       	movw	r24, r30
    1614:	0e 94 31 18 	call	0x3062	;  0x3062
    1618:	88 23       	and	r24, r24
    161a:	71 f1       	breq	.+92     	;  0x1678
    161c:	f7 01       	movw	r30, r14
    161e:	45 81       	ldd	r20, Z+5	; 0x05
    1620:	56 81       	ldd	r21, Z+6	; 0x06
    1622:	67 81       	ldd	r22, Z+7	; 0x07
    1624:	70 85       	ldd	r23, Z+8	; 0x08
    1626:	82 8d       	ldd	r24, Z+26	; 0x1a
    1628:	93 8d       	ldd	r25, Z+27	; 0x1b
    162a:	0f ef       	ldi	r16, 0xFF	; 255
    162c:	1f ef       	ldi	r17, 0xFF	; 255
    162e:	2f ef       	ldi	r18, 0xFF	; 255
    1630:	3f e0       	ldi	r19, 0x0F	; 15
    1632:	0e 94 22 17 	call	0x2e44	;  0x2e44
    1636:	88 23       	and	r24, r24
    1638:	f9 f0       	breq	.+62     	;  0x1678
    163a:	d7 01       	movw	r26, r14
    163c:	52 96       	adiw	r26, 0x12	; 18
    163e:	ad 92       	st	X+, r10
    1640:	bd 92       	st	X+, r11
    1642:	cd 92       	st	X+, r12
    1644:	dc 92       	st	X, r13
    1646:	55 97       	sbiw	r26, 0x15	; 21
    1648:	13 96       	adiw	r26, 0x03	; 3
    164a:	8c 91       	ld	r24, X
    164c:	13 97       	sbiw	r26, 0x03	; 3
    164e:	80 68       	ori	r24, 0x80	; 128
    1650:	13 96       	adiw	r26, 0x03	; 3
    1652:	8c 93       	st	X, r24
    1654:	c7 01       	movw	r24, r14
    1656:	0e 94 a8 09 	call	0x1350	;  0x1350
    165a:	88 23       	and	r24, r24
    165c:	69 f0       	breq	.+26     	;  0x1678
    165e:	b6 01       	movw	r22, r12
    1660:	a5 01       	movw	r20, r10
    1662:	6a 14       	cp	r6, r10
    1664:	7b 04       	cpc	r7, r11
    1666:	8c 04       	cpc	r8, r12
    1668:	9d 04       	cpc	r9, r13
    166a:	10 f4       	brcc	.+4      	;  0x1670
    166c:	b4 01       	movw	r22, r8
    166e:	a3 01       	movw	r20, r6
    1670:	c7 01       	movw	r24, r14
    1672:	0e 94 2a 08 	call	0x1054	;  0x1054
    1676:	01 c0       	rjmp	.+2      	;  0x167a
    1678:	80 e0       	ldi	r24, 0x00	; 0
    167a:	0f 90       	pop	r0
    167c:	0f 90       	pop	r0
    167e:	0f 90       	pop	r0
    1680:	0f 90       	pop	r0
    1682:	cf 91       	pop	r28
    1684:	df 91       	pop	r29
    1686:	1f 91       	pop	r17
    1688:	0f 91       	pop	r16
    168a:	ff 90       	pop	r15
    168c:	ef 90       	pop	r14
    168e:	df 90       	pop	r13
    1690:	cf 90       	pop	r12
    1692:	bf 90       	pop	r11
    1694:	af 90       	pop	r10
    1696:	9f 90       	pop	r9
    1698:	8f 90       	pop	r8
    169a:	7f 90       	pop	r7
    169c:	6f 90       	pop	r6
    169e:	08 95       	ret
    16a0:	f7 01       	movw	r30, r14
    16a2:	82 89       	ldd	r24, Z+18	; 0x12
    16a4:	93 89       	ldd	r25, Z+19	; 0x13
    16a6:	a4 89       	ldd	r26, Z+20	; 0x14
    16a8:	b5 89       	ldd	r27, Z+21	; 0x15
    16aa:	84 17       	cp	r24, r20
    16ac:	95 07       	cpc	r25, r21
    16ae:	a6 07       	cpc	r26, r22
    16b0:	b7 07       	cpc	r27, r23
    16b2:	08 f0       	brcs	.+2      	;  0x16b6
    16b4:	57 cf       	rjmp	.-338    	;  0x1564
    16b6:	e0 cf       	rjmp	.-64     	;  0x1678
    16b8:	cf 93       	push	r28
    16ba:	df 93       	push	r29
    16bc:	ec 01       	movw	r28, r24
    16be:	40 e0       	ldi	r20, 0x00	; 0
    16c0:	50 e0       	ldi	r21, 0x00	; 0
    16c2:	60 e0       	ldi	r22, 0x00	; 0
    16c4:	70 e0       	ldi	r23, 0x00	; 0
    16c6:	0e 94 91 0a 	call	0x1522	;  0x1522
    16ca:	88 23       	and	r24, r24
    16cc:	69 f0       	breq	.+26     	;  0x16e8
    16ce:	ce 01       	movw	r24, r28
    16d0:	61 e0       	ldi	r22, 0x01	; 1
    16d2:	0e 94 8b 09 	call	0x1316	;  0x1316
    16d6:	fc 01       	movw	r30, r24
    16d8:	00 97       	sbiw	r24, 0x00	; 0
    16da:	31 f0       	breq	.+12     	;  0x16e8
    16dc:	85 ee       	ldi	r24, 0xE5	; 229
    16de:	80 83       	st	Z, r24
    16e0:	1c 82       	std	Y+4, r1	; 0x04
    16e2:	0e 94 43 15 	call	0x2a86	;  0x2a86
    16e6:	01 c0       	rjmp	.+2      	;  0x16ea
    16e8:	80 e0       	ldi	r24, 0x00	; 0
    16ea:	df 91       	pop	r29
    16ec:	cf 91       	pop	r28
    16ee:	08 95       	ret
    16f0:	2f 92       	push	r2
    16f2:	3f 92       	push	r3
    16f4:	4f 92       	push	r4
    16f6:	5f 92       	push	r5
    16f8:	6f 92       	push	r6
    16fa:	7f 92       	push	r7
    16fc:	8f 92       	push	r8
    16fe:	9f 92       	push	r9
    1700:	af 92       	push	r10
    1702:	bf 92       	push	r11
    1704:	cf 92       	push	r12
    1706:	df 92       	push	r13
    1708:	ef 92       	push	r14
    170a:	ff 92       	push	r15
    170c:	0f 93       	push	r16
    170e:	1f 93       	push	r17
    1710:	cf 93       	push	r28
    1712:	df 93       	push	r29
    1714:	ec 01       	movw	r28, r24
    1716:	2a 01       	movw	r4, r20
    1718:	8c 81       	ldd	r24, Y+4	; 0x04
    171a:	88 23       	and	r24, r24
    171c:	09 f4       	brne	.+2      	;  0x1720
    171e:	c6 c0       	rjmp	.+396    	;  0x18ac
    1720:	8b 81       	ldd	r24, Y+3	; 0x03
    1722:	80 ff       	sbrs	r24, 0
    1724:	c3 c0       	rjmp	.+390    	;  0x18ac
    1726:	d8 c0       	rjmp	.+432    	;  0x18d8
    1728:	25 01       	movw	r4, r10
    172a:	4e 18       	sub	r4, r14
    172c:	5f 08       	sbc	r5, r15
    172e:	4b 01       	movw	r8, r22
    1730:	75 e0       	ldi	r23, 0x05	; 5
    1732:	27 2e       	mov	r2, r23
    1734:	31 2c       	mov	r3, r1
    1736:	2c 0e       	add	r2, r28
    1738:	3d 1e       	adc	r3, r29
    173a:	32 01       	movw	r6, r4
    173c:	b1 c0       	rjmp	.+354    	;  0x18a0
    173e:	29 85       	ldd	r18, Y+9	; 0x09
    1740:	3a 85       	ldd	r19, Y+10	; 0x0a
    1742:	4b 85       	ldd	r20, Y+11	; 0x0b
    1744:	5c 85       	ldd	r21, Y+12	; 0x0c
    1746:	6f ef       	ldi	r22, 0xFF	; 255
    1748:	a6 2e       	mov	r10, r22
    174a:	61 e0       	ldi	r22, 0x01	; 1
    174c:	b6 2e       	mov	r11, r22
    174e:	a2 22       	and	r10, r18
    1750:	b3 22       	and	r11, r19
    1752:	8c 81       	ldd	r24, Y+4	; 0x04
    1754:	79 01       	movw	r14, r18
    1756:	8a 01       	movw	r16, r20
    1758:	99 e0       	ldi	r25, 0x09	; 9
    175a:	16 95       	lsr	r17
    175c:	07 95       	ror	r16
    175e:	f7 94       	ror	r15
    1760:	e7 94       	ror	r14
    1762:	9a 95       	dec	r25
    1764:	d1 f7       	brne	.-12     	;  0x175a
    1766:	ea 8d       	ldd	r30, Y+26	; 0x1a
    1768:	fb 8d       	ldd	r31, Y+27	; 0x1b
    176a:	82 30       	cpi	r24, 0x02	; 2
    176c:	49 f4       	brne	.+18     	;  0x1780
    176e:	42 8d       	ldd	r20, Z+26	; 0x1a
    1770:	53 8d       	ldd	r21, Z+27	; 0x1b
    1772:	64 8d       	ldd	r22, Z+28	; 0x1c
    1774:	75 8d       	ldd	r23, Z+29	; 0x1d
    1776:	4e 0d       	add	r20, r14
    1778:	5f 1d       	adc	r21, r15
    177a:	60 1f       	adc	r22, r16
    177c:	71 1f       	adc	r23, r17
    177e:	3f c0       	rjmp	.+126    	;  0x17fe
    1780:	d4 80       	ldd	r13, Z+4	; 0x04
    1782:	da 94       	dec	r13
    1784:	de 20       	and	r13, r14
    1786:	a1 14       	cp	r10, r1
    1788:	b1 04       	cpc	r11, r1
    178a:	d9 f4       	brne	.+54     	;  0x17c2
    178c:	dd 20       	and	r13, r13
    178e:	c9 f4       	brne	.+50     	;  0x17c2
    1790:	21 15       	cp	r18, r1
    1792:	31 05       	cpc	r19, r1
    1794:	41 05       	cpc	r20, r1
    1796:	51 05       	cpc	r21, r1
    1798:	49 f4       	brne	.+18     	;  0x17ac
    179a:	8e 89       	ldd	r24, Y+22	; 0x16
    179c:	9f 89       	ldd	r25, Y+23	; 0x17
    179e:	a8 8d       	ldd	r26, Y+24	; 0x18
    17a0:	b9 8d       	ldd	r27, Y+25	; 0x19
    17a2:	8d 83       	std	Y+5, r24	; 0x05
    17a4:	9e 83       	std	Y+6, r25	; 0x06
    17a6:	af 83       	std	Y+7, r26	; 0x07
    17a8:	b8 87       	std	Y+8, r27	; 0x08
    17aa:	0b c0       	rjmp	.+22     	;  0x17c2
    17ac:	4d 81       	ldd	r20, Y+5	; 0x05
    17ae:	5e 81       	ldd	r21, Y+6	; 0x06
    17b0:	6f 81       	ldd	r22, Y+7	; 0x07
    17b2:	78 85       	ldd	r23, Y+8	; 0x08
    17b4:	cf 01       	movw	r24, r30
    17b6:	91 01       	movw	r18, r2
    17b8:	0e 94 be 17 	call	0x2f7c	;  0x2f7c
    17bc:	88 23       	and	r24, r24
    17be:	09 f4       	brne	.+2      	;  0x17c2
    17c0:	75 c0       	rjmp	.+234    	;  0x18ac
    17c2:	ea 8d       	ldd	r30, Y+26	; 0x1a
    17c4:	fb 8d       	ldd	r31, Y+27	; 0x1b
    17c6:	4d 81       	ldd	r20, Y+5	; 0x05
    17c8:	5e 81       	ldd	r21, Y+6	; 0x06
    17ca:	6f 81       	ldd	r22, Y+7	; 0x07
    17cc:	78 85       	ldd	r23, Y+8	; 0x08
    17ce:	42 50       	subi	r20, 0x02	; 2
    17d0:	50 40       	sbci	r21, 0x00	; 0
    17d2:	60 40       	sbci	r22, 0x00	; 0
    17d4:	70 40       	sbci	r23, 0x00	; 0
    17d6:	05 84       	ldd	r0, Z+13	; 0x0d
    17d8:	04 c0       	rjmp	.+8      	;  0x17e2
    17da:	44 0f       	add	r20, r20
    17dc:	55 1f       	adc	r21, r21
    17de:	66 1f       	adc	r22, r22
    17e0:	77 1f       	adc	r23, r23
    17e2:	0a 94       	dec	r0
    17e4:	d2 f7       	brpl	.-12     	;  0x17da
    17e6:	86 85       	ldd	r24, Z+14	; 0x0e
    17e8:	97 85       	ldd	r25, Z+15	; 0x0f
    17ea:	a0 89       	ldd	r26, Z+16	; 0x10
    17ec:	b1 89       	ldd	r27, Z+17	; 0x11
    17ee:	48 0f       	add	r20, r24
    17f0:	59 1f       	adc	r21, r25
    17f2:	6a 1f       	adc	r22, r26
    17f4:	7b 1f       	adc	r23, r27
    17f6:	4d 0d       	add	r20, r13
    17f8:	51 1d       	adc	r21, r1
    17fa:	61 1d       	adc	r22, r1
    17fc:	71 1d       	adc	r23, r1
    17fe:	80 e0       	ldi	r24, 0x00	; 0
    1800:	92 e0       	ldi	r25, 0x02	; 2
    1802:	8a 19       	sub	r24, r10
    1804:	9b 09       	sbc	r25, r11
    1806:	63 01       	movw	r12, r6
    1808:	86 15       	cp	r24, r6
    180a:	97 05       	cpc	r25, r7
    180c:	08 f4       	brcc	.+2      	;  0x1810
    180e:	6c 01       	movw	r12, r24
    1810:	8b 81       	ldd	r24, Y+3	; 0x03
    1812:	86 fd       	sbrc	r24, 6
    1814:	06 c0       	rjmp	.+12     	;  0x1822
    1816:	80 e0       	ldi	r24, 0x00	; 0
    1818:	c8 16       	cp	r12, r24
    181a:	82 e0       	ldi	r24, 0x02	; 2
    181c:	d8 06       	cpc	r13, r24
    181e:	09 f0       	breq	.+2      	;  0x1822
    1820:	73 c0       	rjmp	.+230    	;  0x1908
    1822:	80 91 0a 01 	lds	r24, 0x010A
    1826:	90 91 0b 01 	lds	r25, 0x010B
    182a:	a0 91 0c 01 	lds	r26, 0x010C
    182e:	b0 91 0d 01 	lds	r27, 0x010D
    1832:	48 17       	cp	r20, r24
    1834:	59 07       	cpc	r21, r25
    1836:	6a 07       	cpc	r22, r26
    1838:	7b 07       	cpc	r23, r27
    183a:	09 f4       	brne	.+2      	;  0x183e
    183c:	65 c0       	rjmp	.+202    	;  0x1908
    183e:	80 91 96 04 	lds	r24, 0x0496
    1842:	90 91 97 04 	lds	r25, 0x0497
    1846:	95 01       	movw	r18, r10
    1848:	86 01       	movw	r16, r12
    184a:	74 01       	movw	r14, r8
    184c:	0e 94 c0 05 	call	0xb80	;  0xb80
    1850:	88 23       	and	r24, r24
    1852:	61 f1       	breq	.+88     	;  0x18ac
    1854:	8c 0c       	add	r8, r12
    1856:	9d 1c       	adc	r9, r13
    1858:	12 c0       	rjmp	.+36     	;  0x187e
    185a:	95 01       	movw	r18, r10
    185c:	2a 56       	subi	r18, 0x6A	; 106
    185e:	3d 4f       	sbci	r19, 0xFD	; 253
    1860:	a9 01       	movw	r20, r18
    1862:	4c 0d       	add	r20, r12
    1864:	5d 1d       	adc	r21, r13
    1866:	d4 01       	movw	r26, r8
    1868:	f9 01       	movw	r30, r18
    186a:	02 c0       	rjmp	.+4      	;  0x1870
    186c:	81 91       	ld	r24, Z+
    186e:	8d 93       	st	X+, r24
    1870:	e4 17       	cp	r30, r20
    1872:	f5 07       	cpc	r31, r21
    1874:	d9 f7       	brne	.-10     	;  0x186c
    1876:	e2 1b       	sub	r30, r18
    1878:	f3 0b       	sbc	r31, r19
    187a:	8e 0e       	add	r8, r30
    187c:	9f 1e       	adc	r9, r31
    187e:	96 01       	movw	r18, r12
    1880:	40 e0       	ldi	r20, 0x00	; 0
    1882:	50 e0       	ldi	r21, 0x00	; 0
    1884:	89 85       	ldd	r24, Y+9	; 0x09
    1886:	9a 85       	ldd	r25, Y+10	; 0x0a
    1888:	ab 85       	ldd	r26, Y+11	; 0x0b
    188a:	bc 85       	ldd	r27, Y+12	; 0x0c
    188c:	82 0f       	add	r24, r18
    188e:	93 1f       	adc	r25, r19
    1890:	a4 1f       	adc	r26, r20
    1892:	b5 1f       	adc	r27, r21
    1894:	89 87       	std	Y+9, r24	; 0x09
    1896:	9a 87       	std	Y+10, r25	; 0x0a
    1898:	ab 87       	std	Y+11, r26	; 0x0b
    189a:	bc 87       	std	Y+12, r27	; 0x0c
    189c:	6c 18       	sub	r6, r12
    189e:	7d 08       	sbc	r7, r13
    18a0:	61 14       	cp	r6, r1
    18a2:	71 04       	cpc	r7, r1
    18a4:	09 f0       	breq	.+2      	;  0x18a8
    18a6:	4b cf       	rjmp	.-362    	;  0x173e
    18a8:	a2 01       	movw	r20, r4
    18aa:	02 c0       	rjmp	.+4      	;  0x18b0
    18ac:	4f ef       	ldi	r20, 0xFF	; 255
    18ae:	5f ef       	ldi	r21, 0xFF	; 255
    18b0:	ca 01       	movw	r24, r20
    18b2:	df 91       	pop	r29
    18b4:	cf 91       	pop	r28
    18b6:	1f 91       	pop	r17
    18b8:	0f 91       	pop	r16
    18ba:	ff 90       	pop	r15
    18bc:	ef 90       	pop	r14
    18be:	df 90       	pop	r13
    18c0:	cf 90       	pop	r12
    18c2:	bf 90       	pop	r11
    18c4:	af 90       	pop	r10
    18c6:	9f 90       	pop	r9
    18c8:	8f 90       	pop	r8
    18ca:	7f 90       	pop	r7
    18cc:	6f 90       	pop	r6
    18ce:	5f 90       	pop	r5
    18d0:	4f 90       	pop	r4
    18d2:	3f 90       	pop	r3
    18d4:	2f 90       	pop	r2
    18d6:	08 95       	ret
    18d8:	aa 88       	ldd	r10, Y+18	; 0x12
    18da:	bb 88       	ldd	r11, Y+19	; 0x13
    18dc:	cc 88       	ldd	r12, Y+20	; 0x14
    18de:	dd 88       	ldd	r13, Y+21	; 0x15
    18e0:	e9 84       	ldd	r14, Y+9	; 0x09
    18e2:	fa 84       	ldd	r15, Y+10	; 0x0a
    18e4:	0b 85       	ldd	r16, Y+11	; 0x0b
    18e6:	1c 85       	ldd	r17, Y+12	; 0x0c
    18e8:	9a 01       	movw	r18, r20
    18ea:	40 e0       	ldi	r20, 0x00	; 0
    18ec:	50 e0       	ldi	r21, 0x00	; 0
    18ee:	d6 01       	movw	r26, r12
    18f0:	c5 01       	movw	r24, r10
    18f2:	8e 19       	sub	r24, r14
    18f4:	9f 09       	sbc	r25, r15
    18f6:	a0 0b       	sbc	r26, r16
    18f8:	b1 0b       	sbc	r27, r17
    18fa:	82 17       	cp	r24, r18
    18fc:	93 07       	cpc	r25, r19
    18fe:	a4 07       	cpc	r26, r20
    1900:	b5 07       	cpc	r27, r21
    1902:	08 f4       	brcc	.+2      	;  0x1906
    1904:	11 cf       	rjmp	.-478    	;  0x1728
    1906:	13 cf       	rjmp	.-474    	;  0x172e
    1908:	cb 01       	movw	r24, r22
    190a:	ba 01       	movw	r22, r20
    190c:	40 e0       	ldi	r20, 0x00	; 0
    190e:	0e 94 a2 15 	call	0x2b44	;  0x2b44
    1912:	88 23       	and	r24, r24
    1914:	09 f0       	breq	.+2      	;  0x1918
    1916:	a1 cf       	rjmp	.-190    	;  0x185a
    1918:	c9 cf       	rjmp	.-110    	;  0x18ac
    191a:	cf 92       	push	r12
    191c:	df 92       	push	r13
    191e:	ef 92       	push	r14
    1920:	ff 92       	push	r15
    1922:	0f 93       	push	r16
    1924:	1f 93       	push	r17
    1926:	df 93       	push	r29
    1928:	cf 93       	push	r28
    192a:	0f 92       	push	r0
    192c:	cd b7       	in	r28, 0x3d	; 61
    192e:	de b7       	in	r29, 0x3e	; 62
    1930:	6c 01       	movw	r12, r24
    1932:	fc 01       	movw	r30, r24
    1934:	84 81       	ldd	r24, Z+4	; 0x04
    1936:	82 30       	cpi	r24, 0x02	; 2
    1938:	70 f0       	brcs	.+28     	;  0x1956
    193a:	e1 84       	ldd	r14, Z+9	; 0x09
    193c:	f2 84       	ldd	r15, Z+10	; 0x0a
    193e:	03 85       	ldd	r16, Z+11	; 0x0b
    1940:	14 85       	ldd	r17, Z+12	; 0x0c
    1942:	c6 01       	movw	r24, r12
    1944:	be 01       	movw	r22, r28
    1946:	6f 5f       	subi	r22, 0xFF	; 255
    1948:	7f 4f       	sbci	r23, 0xFF	; 255
    194a:	41 e0       	ldi	r20, 0x01	; 1
    194c:	50 e0       	ldi	r21, 0x00	; 0
    194e:	0e 94 78 0b 	call	0x16f0	;  0x16f0
    1952:	01 97       	sbiw	r24, 0x01	; 1
    1954:	69 f0       	breq	.+26     	;  0x1970
    1956:	20 e0       	ldi	r18, 0x00	; 0
    1958:	30 e0       	ldi	r19, 0x00	; 0
    195a:	c9 01       	movw	r24, r18
    195c:	0f 90       	pop	r0
    195e:	cf 91       	pop	r28
    1960:	df 91       	pop	r29
    1962:	1f 91       	pop	r17
    1964:	0f 91       	pop	r16
    1966:	ff 90       	pop	r15
    1968:	ef 90       	pop	r14
    196a:	df 90       	pop	r13
    196c:	cf 90       	pop	r12
    196e:	08 95       	ret
    1970:	f6 01       	movw	r30, r12
    1972:	81 85       	ldd	r24, Z+9	; 0x09
    1974:	92 85       	ldd	r25, Z+10	; 0x0a
    1976:	a3 85       	ldd	r26, Z+11	; 0x0b
    1978:	b4 85       	ldd	r27, Z+12	; 0x0c
    197a:	4f 96       	adiw	r24, 0x1f	; 31
    197c:	a1 1d       	adc	r26, r1
    197e:	b1 1d       	adc	r27, r1
    1980:	81 87       	std	Z+9, r24	; 0x09
    1982:	92 87       	std	Z+10, r25	; 0x0a
    1984:	a3 87       	std	Z+11, r26	; 0x0b
    1986:	b4 87       	std	Z+12, r27	; 0x0c
    1988:	f5 e0       	ldi	r31, 0x05	; 5
    198a:	16 95       	lsr	r17
    198c:	07 95       	ror	r16
    198e:	f7 94       	ror	r15
    1990:	e7 94       	ror	r14
    1992:	fa 95       	dec	r31
    1994:	d1 f7       	brne	.-12     	;  0x198a
    1996:	8e 2d       	mov	r24, r14
    1998:	8f 70       	andi	r24, 0x0F	; 15
    199a:	28 2f       	mov	r18, r24
    199c:	30 e0       	ldi	r19, 0x00	; 0
    199e:	e5 e0       	ldi	r30, 0x05	; 5
    19a0:	22 0f       	add	r18, r18
    19a2:	33 1f       	adc	r19, r19
    19a4:	ea 95       	dec	r30
    19a6:	e1 f7       	brne	.-8      	;  0x19a0
    19a8:	2a 56       	subi	r18, 0x6A	; 106
    19aa:	3d 4f       	sbci	r19, 0xFD	; 253
    19ac:	d6 cf       	rjmp	.-84     	;  0x195a
    19ae:	cf 93       	push	r28
    19b0:	df 93       	push	r29
    19b2:	ec 01       	movw	r28, r24
    19b4:	8c 81       	ldd	r24, Y+4	; 0x04
    19b6:	84 30       	cpi	r24, 0x04	; 4
    19b8:	79 f5       	brne	.+94     	;  0x1a18
    19ba:	1d 82       	std	Y+5, r1	; 0x05
    19bc:	1e 82       	std	Y+6, r1	; 0x06
    19be:	1f 82       	std	Y+7, r1	; 0x07
    19c0:	18 86       	std	Y+8, r1	; 0x08
    19c2:	19 86       	std	Y+9, r1	; 0x09
    19c4:	1a 86       	std	Y+10, r1	; 0x0a
    19c6:	1b 86       	std	Y+11, r1	; 0x0b
    19c8:	1c 86       	std	Y+12, r1	; 0x0c
    19ca:	10 c0       	rjmp	.+32     	;  0x19ec
    19cc:	ce 01       	movw	r24, r28
    19ce:	0e 94 8d 0c 	call	0x191a	;  0x191a
    19d2:	fc 01       	movw	r30, r24
    19d4:	00 97       	sbiw	r24, 0x00	; 0
    19d6:	01 f1       	breq	.+64     	;  0x1a18
    19d8:	80 81       	ld	r24, Z
    19da:	88 23       	and	r24, r24
    19dc:	a1 f0       	breq	.+40     	;  0x1a06
    19de:	85 3e       	cpi	r24, 0xE5	; 229
    19e0:	29 f0       	breq	.+10     	;  0x19ec
    19e2:	8e 32       	cpi	r24, 0x2E	; 46
    19e4:	19 f0       	breq	.+6      	;  0x19ec
    19e6:	83 85       	ldd	r24, Z+11	; 0x0b
    19e8:	83 ff       	sbrs	r24, 3
    19ea:	16 c0       	rjmp	.+44     	;  0x1a18
    19ec:	29 85       	ldd	r18, Y+9	; 0x09
    19ee:	3a 85       	ldd	r19, Y+10	; 0x0a
    19f0:	4b 85       	ldd	r20, Y+11	; 0x0b
    19f2:	5c 85       	ldd	r21, Y+12	; 0x0c
    19f4:	8a 89       	ldd	r24, Y+18	; 0x12
    19f6:	9b 89       	ldd	r25, Y+19	; 0x13
    19f8:	ac 89       	ldd	r26, Y+20	; 0x14
    19fa:	bd 89       	ldd	r27, Y+21	; 0x15
    19fc:	28 17       	cp	r18, r24
    19fe:	39 07       	cpc	r19, r25
    1a00:	4a 07       	cpc	r20, r26
    1a02:	5b 07       	cpc	r21, r27
    1a04:	18 f3       	brcs	.-58     	;  0x19cc
    1a06:	81 e0       	ldi	r24, 0x01	; 1
    1a08:	8c 83       	std	Y+4, r24	; 0x04
    1a0a:	8b 81       	ldd	r24, Y+3	; 0x03
    1a0c:	82 60       	ori	r24, 0x02	; 2
    1a0e:	8b 83       	std	Y+3, r24	; 0x03
    1a10:	ce 01       	movw	r24, r28
    1a12:	0e 94 5c 0b 	call	0x16b8	;  0x16b8
    1a16:	01 c0       	rjmp	.+2      	;  0x1a1a
    1a18:	80 e0       	ldi	r24, 0x00	; 0
    1a1a:	df 91       	pop	r29
    1a1c:	cf 91       	pop	r28
    1a1e:	08 95       	ret
    1a20:	0f 93       	push	r16
    1a22:	1f 93       	push	r17
    1a24:	cf 93       	push	r28
    1a26:	df 93       	push	r29
    1a28:	8c 01       	movw	r16, r24
    1a2a:	eb 01       	movw	r28, r22
    1a2c:	fc 01       	movw	r30, r24
    1a2e:	84 81       	ldd	r24, Z+4	; 0x04
    1a30:	82 30       	cpi	r24, 0x02	; 2
    1a32:	10 f1       	brcs	.+68     	;  0x1a78
    1a34:	81 85       	ldd	r24, Z+9	; 0x09
    1a36:	92 85       	ldd	r25, Z+10	; 0x0a
    1a38:	a3 85       	ldd	r26, Z+11	; 0x0b
    1a3a:	b4 85       	ldd	r27, Z+12	; 0x0c
    1a3c:	8f 71       	andi	r24, 0x1F	; 31
    1a3e:	90 70       	andi	r25, 0x00	; 0
    1a40:	a0 70       	andi	r26, 0x00	; 0
    1a42:	b0 70       	andi	r27, 0x00	; 0
    1a44:	00 97       	sbiw	r24, 0x00	; 0
    1a46:	a1 05       	cpc	r26, r1
    1a48:	b1 05       	cpc	r27, r1
    1a4a:	b1 f4       	brne	.+44     	;  0x1a78
    1a4c:	0a c0       	rjmp	.+20     	;  0x1a62
    1a4e:	88 81       	ld	r24, Y
    1a50:	88 23       	and	r24, r24
    1a52:	a1 f0       	breq	.+40     	;  0x1a7c
    1a54:	85 3e       	cpi	r24, 0xE5	; 229
    1a56:	29 f0       	breq	.+10     	;  0x1a62
    1a58:	8e 32       	cpi	r24, 0x2E	; 46
    1a5a:	19 f0       	breq	.+6      	;  0x1a62
    1a5c:	8b 85       	ldd	r24, Y+11	; 0x0b
    1a5e:	83 ff       	sbrs	r24, 3
    1a60:	0e c0       	rjmp	.+28     	;  0x1a7e
    1a62:	c8 01       	movw	r24, r16
    1a64:	be 01       	movw	r22, r28
    1a66:	40 e2       	ldi	r20, 0x20	; 32
    1a68:	50 e0       	ldi	r21, 0x00	; 0
    1a6a:	0e 94 78 0b 	call	0x16f0	;  0x16f0
    1a6e:	98 2f       	mov	r25, r24
    1a70:	80 32       	cpi	r24, 0x20	; 32
    1a72:	69 f3       	breq	.-38     	;  0x1a4e
    1a74:	87 ff       	sbrs	r24, 7
    1a76:	02 c0       	rjmp	.+4      	;  0x1a7c
    1a78:	9f ef       	ldi	r25, 0xFF	; 255
    1a7a:	01 c0       	rjmp	.+2      	;  0x1a7e
    1a7c:	90 e0       	ldi	r25, 0x00	; 0
    1a7e:	89 2f       	mov	r24, r25
    1a80:	df 91       	pop	r29
    1a82:	cf 91       	pop	r28
    1a84:	1f 91       	pop	r17
    1a86:	0f 91       	pop	r16
    1a88:	08 95       	ret
    1a8a:	df 93       	push	r29
    1a8c:	cf 93       	push	r28
    1a8e:	00 d0       	rcall	.+0      	;  0x1a90
    1a90:	0f 92       	push	r0
    1a92:	cd b7       	in	r28, 0x3d	; 61
    1a94:	de b7       	in	r29, 0x3e	; 62
    1a96:	28 2f       	mov	r18, r24
    1a98:	6a e0       	ldi	r22, 0x0A	; 10
    1a9a:	0e 94 a2 30 	call	0x6144	;  0x6144
    1a9e:	80 5d       	subi	r24, 0xD0	; 208
    1aa0:	89 83       	std	Y+1, r24	; 0x01
    1aa2:	82 2f       	mov	r24, r18
    1aa4:	0e 94 a2 30 	call	0x6144	;  0x6144
    1aa8:	90 5d       	subi	r25, 0xD0	; 208
    1aaa:	9a 83       	std	Y+2, r25	; 0x02
    1aac:	1b 82       	std	Y+3, r1	; 0x03
    1aae:	87 ea       	ldi	r24, 0xA7	; 167
    1ab0:	95 e0       	ldi	r25, 0x05	; 5
    1ab2:	be 01       	movw	r22, r28
    1ab4:	6f 5f       	subi	r22, 0xFF	; 255
    1ab6:	7f 4f       	sbci	r23, 0xFF	; 255
    1ab8:	0e 94 24 22 	call	0x4448	;  0x4448
    1abc:	0f 90       	pop	r0
    1abe:	0f 90       	pop	r0
    1ac0:	0f 90       	pop	r0
    1ac2:	cf 91       	pop	r28
    1ac4:	df 91       	pop	r29
    1ac6:	08 95       	ret
    1ac8:	ef 92       	push	r14
    1aca:	ff 92       	push	r15
    1acc:	0f 93       	push	r16
    1ace:	1f 93       	push	r17
    1ad0:	8c 01       	movw	r16, r24
    1ad2:	81 2f       	mov	r24, r17
    1ad4:	86 95       	lsr	r24
    1ad6:	86 95       	lsr	r24
    1ad8:	86 95       	lsr	r24
    1ada:	0e 94 45 0d 	call	0x1a8a	;  0x1a8a
    1ade:	b7 ea       	ldi	r27, 0xA7	; 167
    1ae0:	eb 2e       	mov	r14, r27
    1ae2:	b5 e0       	ldi	r27, 0x05	; 5
    1ae4:	fb 2e       	mov	r15, r27
    1ae6:	c7 01       	movw	r24, r14
    1ae8:	6a e3       	ldi	r22, 0x3A	; 58
    1aea:	40 e0       	ldi	r20, 0x00	; 0
    1aec:	50 e0       	ldi	r21, 0x00	; 0
    1aee:	0e 94 69 23 	call	0x46d2	;  0x46d2
    1af2:	c8 01       	movw	r24, r16
    1af4:	a5 e0       	ldi	r26, 0x05	; 5
    1af6:	96 95       	lsr	r25
    1af8:	87 95       	ror	r24
    1afa:	aa 95       	dec	r26
    1afc:	e1 f7       	brne	.-8      	;  0x1af6
    1afe:	8f 73       	andi	r24, 0x3F	; 63
    1b00:	0e 94 45 0d 	call	0x1a8a	;  0x1a8a
    1b04:	c7 01       	movw	r24, r14
    1b06:	6a e3       	ldi	r22, 0x3A	; 58
    1b08:	40 e0       	ldi	r20, 0x00	; 0
    1b0a:	50 e0       	ldi	r21, 0x00	; 0
    1b0c:	0e 94 69 23 	call	0x46d2	;  0x46d2
    1b10:	0f 71       	andi	r16, 0x1F	; 31
    1b12:	10 70       	andi	r17, 0x00	; 0
    1b14:	80 2f       	mov	r24, r16
    1b16:	88 0f       	add	r24, r24
    1b18:	0e 94 45 0d 	call	0x1a8a	;  0x1a8a
    1b1c:	1f 91       	pop	r17
    1b1e:	0f 91       	pop	r16
    1b20:	ff 90       	pop	r15
    1b22:	ef 90       	pop	r14
    1b24:	08 95       	ret
    1b26:	ef 92       	push	r14
    1b28:	ff 92       	push	r15
    1b2a:	0f 93       	push	r16
    1b2c:	1f 93       	push	r17
    1b2e:	7c 01       	movw	r14, r24
    1b30:	07 ea       	ldi	r16, 0xA7	; 167
    1b32:	15 e0       	ldi	r17, 0x05	; 5
    1b34:	bc 01       	movw	r22, r24
    1b36:	67 2f       	mov	r22, r23
    1b38:	77 27       	eor	r23, r23
    1b3a:	66 95       	lsr	r22
    1b3c:	64 54       	subi	r22, 0x44	; 68
    1b3e:	78 4f       	sbci	r23, 0xF8	; 248
    1b40:	c8 01       	movw	r24, r16
    1b42:	4a e0       	ldi	r20, 0x0A	; 10
    1b44:	50 e0       	ldi	r21, 0x00	; 0
    1b46:	0e 94 fd 22 	call	0x45fa	;  0x45fa
    1b4a:	c8 01       	movw	r24, r16
    1b4c:	6d e2       	ldi	r22, 0x2D	; 45
    1b4e:	40 e0       	ldi	r20, 0x00	; 0
    1b50:	50 e0       	ldi	r21, 0x00	; 0
    1b52:	0e 94 69 23 	call	0x46d2	;  0x46d2
    1b56:	c7 01       	movw	r24, r14
    1b58:	25 e0       	ldi	r18, 0x05	; 5
    1b5a:	96 95       	lsr	r25
    1b5c:	87 95       	ror	r24
    1b5e:	2a 95       	dec	r18
    1b60:	e1 f7       	brne	.-8      	;  0x1b5a
    1b62:	8f 70       	andi	r24, 0x0F	; 15
    1b64:	0e 94 45 0d 	call	0x1a8a	;  0x1a8a
    1b68:	c8 01       	movw	r24, r16
    1b6a:	6d e2       	ldi	r22, 0x2D	; 45
    1b6c:	40 e0       	ldi	r20, 0x00	; 0
    1b6e:	50 e0       	ldi	r21, 0x00	; 0
    1b70:	0e 94 69 23 	call	0x46d2	;  0x46d2
    1b74:	8e 2d       	mov	r24, r14
    1b76:	8f 71       	andi	r24, 0x1F	; 31
    1b78:	0e 94 45 0d 	call	0x1a8a	;  0x1a8a
    1b7c:	1f 91       	pop	r17
    1b7e:	0f 91       	pop	r16
    1b80:	ff 90       	pop	r15
    1b82:	ef 90       	pop	r14
    1b84:	08 95       	ret
    1b86:	df 92       	push	r13
    1b88:	ef 92       	push	r14
    1b8a:	ff 92       	push	r15
    1b8c:	0f 93       	push	r16
    1b8e:	1f 93       	push	r17
    1b90:	cf 93       	push	r28
    1b92:	df 93       	push	r29
    1b94:	7c 01       	movw	r14, r24
    1b96:	d6 2e       	mov	r13, r22
    1b98:	ec 01       	movw	r28, r24
    1b9a:	10 e0       	ldi	r17, 0x00	; 0
    1b9c:	00 e0       	ldi	r16, 0x00	; 0
    1b9e:	88 81       	ld	r24, Y
    1ba0:	80 32       	cpi	r24, 0x20	; 32
    1ba2:	91 f0       	breq	.+36     	;  0x1bc8
    1ba4:	08 30       	cpi	r16, 0x08	; 8
    1ba6:	41 f4       	brne	.+16     	;  0x1bb8
    1ba8:	87 ea       	ldi	r24, 0xA7	; 167
    1baa:	95 e0       	ldi	r25, 0x05	; 5
    1bac:	6e e2       	ldi	r22, 0x2E	; 46
    1bae:	40 e0       	ldi	r20, 0x00	; 0
    1bb0:	50 e0       	ldi	r21, 0x00	; 0
    1bb2:	0e 94 69 23 	call	0x46d2	;  0x46d2
    1bb6:	1f 5f       	subi	r17, 0xFF	; 255
    1bb8:	87 ea       	ldi	r24, 0xA7	; 167
    1bba:	95 e0       	ldi	r25, 0x05	; 5
    1bbc:	68 81       	ld	r22, Y
    1bbe:	40 e0       	ldi	r20, 0x00	; 0
    1bc0:	50 e0       	ldi	r21, 0x00	; 0
    1bc2:	0e 94 0e 23 	call	0x461c	;  0x461c
    1bc6:	1f 5f       	subi	r17, 0xFF	; 255
    1bc8:	0f 5f       	subi	r16, 0xFF	; 255
    1bca:	21 96       	adiw	r28, 0x01	; 1
    1bcc:	0b 30       	cpi	r16, 0x0B	; 11
    1bce:	39 f7       	brne	.-50     	;  0x1b9e
    1bd0:	f7 01       	movw	r30, r14
    1bd2:	83 85       	ldd	r24, Z+11	; 0x0b
    1bd4:	88 71       	andi	r24, 0x18	; 24
    1bd6:	80 31       	cpi	r24, 0x10	; 16
    1bd8:	61 f4       	brne	.+24     	;  0x1bf2
    1bda:	87 ea       	ldi	r24, 0xA7	; 167
    1bdc:	95 e0       	ldi	r25, 0x05	; 5
    1bde:	6f e2       	ldi	r22, 0x2F	; 47
    1be0:	03 c0       	rjmp	.+6      	;  0x1be8
    1be2:	87 ea       	ldi	r24, 0xA7	; 167
    1be4:	95 e0       	ldi	r25, 0x05	; 5
    1be6:	60 e2       	ldi	r22, 0x20	; 32
    1be8:	40 e0       	ldi	r20, 0x00	; 0
    1bea:	50 e0       	ldi	r21, 0x00	; 0
    1bec:	0e 94 69 23 	call	0x46d2	;  0x46d2
    1bf0:	1f 5f       	subi	r17, 0xFF	; 255
    1bf2:	1d 15       	cp	r17, r13
    1bf4:	b0 f3       	brcs	.-20     	;  0x1be2
    1bf6:	df 91       	pop	r29
    1bf8:	cf 91       	pop	r28
    1bfa:	1f 91       	pop	r17
    1bfc:	0f 91       	pop	r16
    1bfe:	ff 90       	pop	r15
    1c00:	ef 90       	pop	r14
    1c02:	df 90       	pop	r13
    1c04:	08 95       	ret
    1c06:	0f 93       	push	r16
    1c08:	1f 93       	push	r17
    1c0a:	cf 93       	push	r28
    1c0c:	df 93       	push	r29
    1c0e:	ec 01       	movw	r28, r24
    1c10:	8b 01       	movw	r16, r22
    1c12:	8c 81       	ldd	r24, Y+4	; 0x04
    1c14:	88 23       	and	r24, r24
    1c16:	09 f0       	breq	.+2      	;  0x1c1a
    1c18:	41 c0       	rjmp	.+130    	;  0x1c9c
    1c1a:	fb 01       	movw	r30, r22
    1c1c:	87 89       	ldd	r24, Z+23	; 0x17
    1c1e:	80 31       	cpi	r24, 0x10	; 16
    1c20:	b1 f4       	brne	.+44     	;  0x1c4e
    1c22:	82 e0       	ldi	r24, 0x02	; 2
    1c24:	8c 83       	std	Y+4, r24	; 0x04
    1c26:	1e 8a       	std	Y+22, r1	; 0x16
    1c28:	1f 8a       	std	Y+23, r1	; 0x17
    1c2a:	18 8e       	std	Y+24, r1	; 0x18
    1c2c:	19 8e       	std	Y+25, r1	; 0x19
    1c2e:	80 8d       	ldd	r24, Z+24	; 0x18
    1c30:	91 8d       	ldd	r25, Z+25	; 0x19
    1c32:	a0 e0       	ldi	r26, 0x00	; 0
    1c34:	b0 e0       	ldi	r27, 0x00	; 0
    1c36:	45 e0       	ldi	r20, 0x05	; 5
    1c38:	88 0f       	add	r24, r24
    1c3a:	99 1f       	adc	r25, r25
    1c3c:	aa 1f       	adc	r26, r26
    1c3e:	bb 1f       	adc	r27, r27
    1c40:	4a 95       	dec	r20
    1c42:	d1 f7       	brne	.-12     	;  0x1c38
    1c44:	8a 8b       	std	Y+18, r24	; 0x12
    1c46:	9b 8b       	std	Y+19, r25	; 0x13
    1c48:	ac 8b       	std	Y+20, r26	; 0x14
    1c4a:	bd 8b       	std	Y+21, r27	; 0x15
    1c4c:	15 c0       	rjmp	.+42     	;  0x1c78
    1c4e:	80 32       	cpi	r24, 0x20	; 32
    1c50:	29 f5       	brne	.+74     	;  0x1c9c
    1c52:	83 e0       	ldi	r24, 0x03	; 3
    1c54:	8c 83       	std	Y+4, r24	; 0x04
    1c56:	fb 01       	movw	r30, r22
    1c58:	42 8d       	ldd	r20, Z+26	; 0x1a
    1c5a:	53 8d       	ldd	r21, Z+27	; 0x1b
    1c5c:	64 8d       	ldd	r22, Z+28	; 0x1c
    1c5e:	75 8d       	ldd	r23, Z+29	; 0x1d
    1c60:	4e 8b       	std	Y+22, r20	; 0x16
    1c62:	5f 8b       	std	Y+23, r21	; 0x17
    1c64:	68 8f       	std	Y+24, r22	; 0x18
    1c66:	79 8f       	std	Y+25, r23	; 0x19
    1c68:	9e 01       	movw	r18, r28
    1c6a:	2e 5e       	subi	r18, 0xEE	; 238
    1c6c:	3f 4f       	sbci	r19, 0xFF	; 255
    1c6e:	c8 01       	movw	r24, r16
    1c70:	0e 94 8a 18 	call	0x3114	;  0x3114
    1c74:	88 23       	and	r24, r24
    1c76:	91 f0       	breq	.+36     	;  0x1c9c
    1c78:	1b 8f       	std	Y+27, r17	; 0x1b
    1c7a:	0a 8f       	std	Y+26, r16	; 0x1a
    1c7c:	81 e0       	ldi	r24, 0x01	; 1
    1c7e:	8b 83       	std	Y+3, r24	; 0x03
    1c80:	1d 82       	std	Y+5, r1	; 0x05
    1c82:	1e 82       	std	Y+6, r1	; 0x06
    1c84:	1f 82       	std	Y+7, r1	; 0x07
    1c86:	18 86       	std	Y+8, r1	; 0x08
    1c88:	19 86       	std	Y+9, r1	; 0x09
    1c8a:	1a 86       	std	Y+10, r1	; 0x0a
    1c8c:	1b 86       	std	Y+11, r1	; 0x0b
    1c8e:	1c 86       	std	Y+12, r1	; 0x0c
    1c90:	1d 86       	std	Y+13, r1	; 0x0d
    1c92:	1e 86       	std	Y+14, r1	; 0x0e
    1c94:	1f 86       	std	Y+15, r1	; 0x0f
    1c96:	18 8a       	std	Y+16, r1	; 0x10
    1c98:	19 8a       	std	Y+17, r1	; 0x11
    1c9a:	01 c0       	rjmp	.+2      	;  0x1c9e
    1c9c:	80 e0       	ldi	r24, 0x00	; 0
    1c9e:	df 91       	pop	r29
    1ca0:	cf 91       	pop	r28
    1ca2:	1f 91       	pop	r17
    1ca4:	0f 91       	pop	r16
    1ca6:	08 95       	ret
    1ca8:	1f 93       	push	r17
    1caa:	cf 93       	push	r28
    1cac:	df 93       	push	r29
    1cae:	ec 01       	movw	r28, r24
    1cb0:	14 2f       	mov	r17, r20
    1cb2:	e6 2f       	mov	r30, r22
    1cb4:	f0 e0       	ldi	r31, 0x00	; 0
    1cb6:	75 e0       	ldi	r23, 0x05	; 5
    1cb8:	ee 0f       	add	r30, r30
    1cba:	ff 1f       	adc	r31, r31
    1cbc:	7a 95       	dec	r23
    1cbe:	e1 f7       	brne	.-8      	;  0x1cb8
    1cc0:	ea 56       	subi	r30, 0x6A	; 106
    1cc2:	fd 4f       	sbci	r31, 0xFD	; 253
    1cc4:	83 85       	ldd	r24, Z+11	; 0x0b
    1cc6:	81 71       	andi	r24, 0x11	; 17
    1cc8:	21 f0       	breq	.+8      	;  0x1cd2
    1cca:	84 2f       	mov	r24, r20
    1ccc:	82 74       	andi	r24, 0x42	; 66
    1cce:	09 f0       	breq	.+2      	;  0x1cd2
    1cd0:	54 c0       	rjmp	.+168    	;  0x1d7a
    1cd2:	69 8b       	std	Y+17, r22	; 0x11
    1cd4:	80 91 0a 01 	lds	r24, 0x010A
    1cd8:	90 91 0b 01 	lds	r25, 0x010B
    1cdc:	a0 91 0c 01 	lds	r26, 0x010C
    1ce0:	b0 91 0d 01 	lds	r27, 0x010D
    1ce4:	8d 87       	std	Y+13, r24	; 0x0d
    1ce6:	9e 87       	std	Y+14, r25	; 0x0e
    1ce8:	af 87       	std	Y+15, r26	; 0x0f
    1cea:	b8 8b       	std	Y+16, r27	; 0x10
    1cec:	84 89       	ldd	r24, Z+20	; 0x14
    1cee:	95 89       	ldd	r25, Z+21	; 0x15
    1cf0:	a0 e0       	ldi	r26, 0x00	; 0
    1cf2:	b0 e0       	ldi	r27, 0x00	; 0
    1cf4:	bc 01       	movw	r22, r24
    1cf6:	55 27       	eor	r21, r21
    1cf8:	44 27       	eor	r20, r20
    1cfa:	82 8d       	ldd	r24, Z+26	; 0x1a
    1cfc:	93 8d       	ldd	r25, Z+27	; 0x1b
    1cfe:	a0 e0       	ldi	r26, 0x00	; 0
    1d00:	b0 e0       	ldi	r27, 0x00	; 0
    1d02:	48 2b       	or	r20, r24
    1d04:	59 2b       	or	r21, r25
    1d06:	6a 2b       	or	r22, r26
    1d08:	7b 2b       	or	r23, r27
    1d0a:	4e 8b       	std	Y+22, r20	; 0x16
    1d0c:	5f 8b       	std	Y+23, r21	; 0x17
    1d0e:	68 8f       	std	Y+24, r22	; 0x18
    1d10:	79 8f       	std	Y+25, r23	; 0x19
    1d12:	83 85       	ldd	r24, Z+11	; 0x0b
    1d14:	90 e0       	ldi	r25, 0x00	; 0
    1d16:	88 71       	andi	r24, 0x18	; 24
    1d18:	90 70       	andi	r25, 0x00	; 0
    1d1a:	00 97       	sbiw	r24, 0x00	; 0
    1d1c:	51 f4       	brne	.+20     	;  0x1d32
    1d1e:	84 8d       	ldd	r24, Z+28	; 0x1c
    1d20:	95 8d       	ldd	r25, Z+29	; 0x1d
    1d22:	a6 8d       	ldd	r26, Z+30	; 0x1e
    1d24:	b7 8d       	ldd	r27, Z+31	; 0x1f
    1d26:	8a 8b       	std	Y+18, r24	; 0x12
    1d28:	9b 8b       	std	Y+19, r25	; 0x13
    1d2a:	ac 8b       	std	Y+20, r26	; 0x14
    1d2c:	bd 8b       	std	Y+21, r27	; 0x15
    1d2e:	81 e0       	ldi	r24, 0x01	; 1
    1d30:	0c c0       	rjmp	.+24     	;  0x1d4a
    1d32:	40 97       	sbiw	r24, 0x10	; 16
    1d34:	11 f5       	brne	.+68     	;  0x1d7a
    1d36:	9e 01       	movw	r18, r28
    1d38:	2e 5e       	subi	r18, 0xEE	; 238
    1d3a:	3f 4f       	sbci	r19, 0xFF	; 255
    1d3c:	8a 8d       	ldd	r24, Y+26	; 0x1a
    1d3e:	9b 8d       	ldd	r25, Y+27	; 0x1b
    1d40:	0e 94 8a 18 	call	0x3114	;  0x3114
    1d44:	88 23       	and	r24, r24
    1d46:	c9 f0       	breq	.+50     	;  0x1d7a
    1d48:	84 e0       	ldi	r24, 0x04	; 4
    1d4a:	8c 83       	std	Y+4, r24	; 0x04
    1d4c:	81 2f       	mov	r24, r17
    1d4e:	8f 70       	andi	r24, 0x0F	; 15
    1d50:	8b 83       	std	Y+3, r24	; 0x03
    1d52:	1d 82       	std	Y+5, r1	; 0x05
    1d54:	1e 82       	std	Y+6, r1	; 0x06
    1d56:	1f 82       	std	Y+7, r1	; 0x07
    1d58:	18 86       	std	Y+8, r1	; 0x08
    1d5a:	19 86       	std	Y+9, r1	; 0x09
    1d5c:	1a 86       	std	Y+10, r1	; 0x0a
    1d5e:	1b 86       	std	Y+11, r1	; 0x0b
    1d60:	1c 86       	std	Y+12, r1	; 0x0c
    1d62:	16 fd       	sbrc	r17, 6
    1d64:	02 c0       	rjmp	.+4      	;  0x1d6a
    1d66:	81 e0       	ldi	r24, 0x01	; 1
    1d68:	09 c0       	rjmp	.+18     	;  0x1d7c
    1d6a:	ce 01       	movw	r24, r28
    1d6c:	40 e0       	ldi	r20, 0x00	; 0
    1d6e:	50 e0       	ldi	r21, 0x00	; 0
    1d70:	60 e0       	ldi	r22, 0x00	; 0
    1d72:	70 e0       	ldi	r23, 0x00	; 0
    1d74:	0e 94 91 0a 	call	0x1522	;  0x1522
    1d78:	01 c0       	rjmp	.+2      	;  0x1d7c
    1d7a:	80 e0       	ldi	r24, 0x00	; 0
    1d7c:	df 91       	pop	r29
    1d7e:	cf 91       	pop	r28
    1d80:	1f 91       	pop	r17
    1d82:	08 95       	ret
    1d84:	df 92       	push	r13
    1d86:	ef 92       	push	r14
    1d88:	ff 92       	push	r15
    1d8a:	0f 93       	push	r16
    1d8c:	1f 93       	push	r17
    1d8e:	cf 93       	push	r28
    1d90:	df 93       	push	r29
    1d92:	8c 01       	movw	r16, r24
    1d94:	eb 01       	movw	r28, r22
    1d96:	7a 01       	movw	r14, r20
    1d98:	d2 2e       	mov	r13, r18
    1d9a:	fc 01       	movw	r30, r24
    1d9c:	84 81       	ldd	r24, Z+4	; 0x04
    1d9e:	88 23       	and	r24, r24
    1da0:	41 f5       	brne	.+80     	;  0x1df2
    1da2:	82 2f       	mov	r24, r18
    1da4:	80 73       	andi	r24, 0x30	; 48
    1da6:	80 33       	cpi	r24, 0x30	; 48
    1da8:	21 f1       	breq	.+72     	;  0x1df2
    1daa:	8a 8d       	ldd	r24, Y+26	; 0x1a
    1dac:	9b 8d       	ldd	r25, Y+27	; 0x1b
    1dae:	93 8f       	std	Z+27, r25	; 0x1b
    1db0:	82 8f       	std	Z+26, r24	; 0x1a
    1db2:	e5 e0       	ldi	r30, 0x05	; 5
    1db4:	44 0f       	add	r20, r20
    1db6:	55 1f       	adc	r21, r21
    1db8:	ea 95       	dec	r30
    1dba:	e1 f7       	brne	.-8      	;  0x1db4
    1dbc:	60 e0       	ldi	r22, 0x00	; 0
    1dbe:	70 e0       	ldi	r23, 0x00	; 0
    1dc0:	ce 01       	movw	r24, r28
    1dc2:	0e 94 2a 08 	call	0x1054	;  0x1054
    1dc6:	88 23       	and	r24, r24
    1dc8:	a1 f0       	breq	.+40     	;  0x1df2
    1dca:	ce 01       	movw	r24, r28
    1dcc:	0e 94 8d 0c 	call	0x191a	;  0x191a
    1dd0:	fc 01       	movw	r30, r24
    1dd2:	00 97       	sbiw	r24, 0x00	; 0
    1dd4:	71 f0       	breq	.+28     	;  0x1df2
    1dd6:	80 81       	ld	r24, Z
    1dd8:	88 23       	and	r24, r24
    1dda:	59 f0       	breq	.+22     	;  0x1df2
    1ddc:	85 3e       	cpi	r24, 0xE5	; 229
    1dde:	49 f0       	breq	.+18     	;  0x1df2
    1de0:	8e 32       	cpi	r24, 0x2E	; 46
    1de2:	39 f0       	breq	.+14     	;  0x1df2
    1de4:	6e 2d       	mov	r22, r14
    1de6:	6f 70       	andi	r22, 0x0F	; 15
    1de8:	c8 01       	movw	r24, r16
    1dea:	4d 2d       	mov	r20, r13
    1dec:	0e 94 54 0e 	call	0x1ca8	;  0x1ca8
    1df0:	01 c0       	rjmp	.+2      	;  0x1df4
    1df2:	80 e0       	ldi	r24, 0x00	; 0
    1df4:	df 91       	pop	r29
    1df6:	cf 91       	pop	r28
    1df8:	1f 91       	pop	r17
    1dfa:	0f 91       	pop	r16
    1dfc:	ff 90       	pop	r15
    1dfe:	ef 90       	pop	r14
    1e00:	df 90       	pop	r13
    1e02:	08 95       	ret
    1e04:	8f 92       	push	r8
    1e06:	9f 92       	push	r9
    1e08:	af 92       	push	r10
    1e0a:	bf 92       	push	r11
    1e0c:	cf 92       	push	r12
    1e0e:	df 92       	push	r13
    1e10:	ef 92       	push	r14
    1e12:	ff 92       	push	r15
    1e14:	0f 93       	push	r16
    1e16:	1f 93       	push	r17
    1e18:	df 93       	push	r29
    1e1a:	cf 93       	push	r28
    1e1c:	cd b7       	in	r28, 0x3d	; 61
    1e1e:	de b7       	in	r29, 0x3e	; 62
    1e20:	6c 97       	sbiw	r28, 0x1c	; 28
    1e22:	0f b6       	in	r0, 0x3f	; 63
    1e24:	f8 94       	cli
    1e26:	de bf       	out	0x3e, r29	; 62
    1e28:	0f be       	out	0x3f, r0	; 63
    1e2a:	cd bf       	out	0x3d, r28	; 61
    1e2c:	8c 01       	movw	r16, r24
    1e2e:	fc 01       	movw	r30, r24
    1e30:	15 82       	std	Z+5, r1	; 0x05
    1e32:	16 82       	std	Z+6, r1	; 0x06
    1e34:	17 82       	std	Z+7, r1	; 0x07
    1e36:	10 86       	std	Z+8, r1	; 0x08
    1e38:	11 86       	std	Z+9, r1	; 0x09
    1e3a:	12 86       	std	Z+10, r1	; 0x0a
    1e3c:	13 86       	std	Z+11, r1	; 0x0b
    1e3e:	14 86       	std	Z+12, r1	; 0x0c
    1e40:	b4 e0       	ldi	r27, 0x04	; 4
    1e42:	8b 2e       	mov	r8, r27
    1e44:	b1 e0       	ldi	r27, 0x01	; 1
    1e46:	9b 2e       	mov	r9, r27
    1e48:	5e 01       	movw	r10, r28
    1e4a:	08 94       	sec
    1e4c:	a1 1c       	adc	r10, r1
    1e4e:	b1 1c       	adc	r11, r1
    1e50:	53 c0       	rjmp	.+166    	;  0x1ef8
    1e52:	9a 82       	std	Y+2, r9	; 0x02
    1e54:	89 82       	std	Y+1, r8	; 0x01
    1e56:	1d 82       	std	Y+5, r1	; 0x05
    1e58:	c8 01       	movw	r24, r16
    1e5a:	0e 94 8d 0c 	call	0x191a	;  0x191a
    1e5e:	fc 01       	movw	r30, r24
    1e60:	00 97       	sbiw	r24, 0x00	; 0
    1e62:	09 f4       	brne	.+2      	;  0x1e66
    1e64:	63 c0       	rjmp	.+198    	;  0x1f2c
    1e66:	80 81       	ld	r24, Z
    1e68:	88 23       	and	r24, r24
    1e6a:	09 f4       	brne	.+2      	;  0x1e6e
    1e6c:	54 c0       	rjmp	.+168    	;  0x1f16
    1e6e:	85 3e       	cpi	r24, 0xE5	; 229
    1e70:	09 f4       	brne	.+2      	;  0x1e74
    1e72:	42 c0       	rjmp	.+132    	;  0x1ef8
    1e74:	8e 32       	cpi	r24, 0x2E	; 46
    1e76:	09 f4       	brne	.+2      	;  0x1e7a
    1e78:	3f c0       	rjmp	.+126    	;  0x1ef8
    1e7a:	83 85       	ldd	r24, Z+11	; 0x0b
    1e7c:	83 fd       	sbrc	r24, 3
    1e7e:	3c c0       	rjmp	.+120    	;  0x1ef8
    1e80:	a7 01       	movw	r20, r14
    1e82:	96 01       	movw	r18, r12
    1e84:	a5 e0       	ldi	r26, 0x05	; 5
    1e86:	56 95       	lsr	r21
    1e88:	47 95       	ror	r20
    1e8a:	37 95       	ror	r19
    1e8c:	27 95       	ror	r18
    1e8e:	aa 95       	dec	r26
    1e90:	d1 f7       	brne	.-12     	;  0x1e86
    1e92:	79 01       	movw	r14, r18
    1e94:	c5 01       	movw	r24, r10
    1e96:	b8 01       	movw	r22, r16
    1e98:	a9 01       	movw	r20, r18
    1e9a:	21 e0       	ldi	r18, 0x01	; 1
    1e9c:	0e 94 c2 0e 	call	0x1d84	;  0x1d84
    1ea0:	88 23       	and	r24, r24
    1ea2:	09 f4       	brne	.+2      	;  0x1ea6
    1ea4:	43 c0       	rjmp	.+134    	;  0x1f2c
    1ea6:	8d 81       	ldd	r24, Y+5	; 0x05
    1ea8:	84 30       	cpi	r24, 0x04	; 4
    1eaa:	21 f4       	brne	.+8      	;  0x1eb4
    1eac:	c5 01       	movw	r24, r10
    1eae:	0e 94 02 0f 	call	0x1e04	;  0x1e04
    1eb2:	06 c0       	rjmp	.+12     	;  0x1ec0
    1eb4:	8c 81       	ldd	r24, Y+4	; 0x04
    1eb6:	82 60       	ori	r24, 0x02	; 2
    1eb8:	8c 83       	std	Y+4, r24	; 0x04
    1eba:	c5 01       	movw	r24, r10
    1ebc:	0e 94 5c 0b 	call	0x16b8	;  0x16b8
    1ec0:	88 23       	and	r24, r24
    1ec2:	a1 f1       	breq	.+104    	;  0x1f2c
    1ec4:	08 94       	sec
    1ec6:	e1 1c       	adc	r14, r1
    1ec8:	f1 1c       	adc	r15, r1
    1eca:	f5 e0       	ldi	r31, 0x05	; 5
    1ecc:	ee 0c       	add	r14, r14
    1ece:	ff 1c       	adc	r15, r15
    1ed0:	fa 95       	dec	r31
    1ed2:	e1 f7       	brne	.-8      	;  0x1ecc
    1ed4:	a7 01       	movw	r20, r14
    1ed6:	60 e0       	ldi	r22, 0x00	; 0
    1ed8:	70 e0       	ldi	r23, 0x00	; 0
    1eda:	f8 01       	movw	r30, r16
    1edc:	81 85       	ldd	r24, Z+9	; 0x09
    1ede:	92 85       	ldd	r25, Z+10	; 0x0a
    1ee0:	a3 85       	ldd	r26, Z+11	; 0x0b
    1ee2:	b4 85       	ldd	r27, Z+12	; 0x0c
    1ee4:	84 17       	cp	r24, r20
    1ee6:	95 07       	cpc	r25, r21
    1ee8:	a6 07       	cpc	r26, r22
    1eea:	b7 07       	cpc	r27, r23
    1eec:	29 f0       	breq	.+10     	;  0x1ef8
    1eee:	c8 01       	movw	r24, r16
    1ef0:	0e 94 2a 08 	call	0x1054	;  0x1054
    1ef4:	88 23       	and	r24, r24
    1ef6:	d1 f0       	breq	.+52     	;  0x1f2c
    1ef8:	f8 01       	movw	r30, r16
    1efa:	c1 84       	ldd	r12, Z+9	; 0x09
    1efc:	d2 84       	ldd	r13, Z+10	; 0x0a
    1efe:	e3 84       	ldd	r14, Z+11	; 0x0b
    1f00:	f4 84       	ldd	r15, Z+12	; 0x0c
    1f02:	82 89       	ldd	r24, Z+18	; 0x12
    1f04:	93 89       	ldd	r25, Z+19	; 0x13
    1f06:	a4 89       	ldd	r26, Z+20	; 0x14
    1f08:	b5 89       	ldd	r27, Z+21	; 0x15
    1f0a:	c8 16       	cp	r12, r24
    1f0c:	d9 06       	cpc	r13, r25
    1f0e:	ea 06       	cpc	r14, r26
    1f10:	fb 06       	cpc	r15, r27
    1f12:	08 f4       	brcc	.+2      	;  0x1f16
    1f14:	9e cf       	rjmp	.-196    	;  0x1e52
    1f16:	f8 01       	movw	r30, r16
    1f18:	84 81       	ldd	r24, Z+4	; 0x04
    1f1a:	82 50       	subi	r24, 0x02	; 2
    1f1c:	82 30       	cpi	r24, 0x02	; 2
    1f1e:	10 f4       	brcc	.+4      	;  0x1f24
    1f20:	81 e0       	ldi	r24, 0x01	; 1
    1f22:	05 c0       	rjmp	.+10     	;  0x1f2e
    1f24:	c8 01       	movw	r24, r16
    1f26:	0e 94 d7 0c 	call	0x19ae	;  0x19ae
    1f2a:	01 c0       	rjmp	.+2      	;  0x1f2e
    1f2c:	80 e0       	ldi	r24, 0x00	; 0
    1f2e:	6c 96       	adiw	r28, 0x1c	; 28
    1f30:	0f b6       	in	r0, 0x3f	; 63
    1f32:	f8 94       	cli
    1f34:	de bf       	out	0x3e, r29	; 62
    1f36:	0f be       	out	0x3f, r0	; 63
    1f38:	cd bf       	out	0x3d, r28	; 61
    1f3a:	cf 91       	pop	r28
    1f3c:	df 91       	pop	r29
    1f3e:	1f 91       	pop	r17
    1f40:	0f 91       	pop	r16
    1f42:	ff 90       	pop	r15
    1f44:	ef 90       	pop	r14
    1f46:	df 90       	pop	r13
    1f48:	cf 90       	pop	r12
    1f4a:	bf 90       	pop	r11
    1f4c:	af 90       	pop	r10
    1f4e:	9f 90       	pop	r9
    1f50:	8f 90       	pop	r8
    1f52:	08 95       	ret
    1f54:	0f 93       	push	r16
    1f56:	1f 93       	push	r17
    1f58:	cf 93       	push	r28
    1f5a:	df 93       	push	r29
    1f5c:	ec 01       	movw	r28, r24
    1f5e:	16 2f       	mov	r17, r22
    1f60:	07 2f       	mov	r16, r23
    1f62:	0e 94 a8 09 	call	0x1350	;  0x1350
    1f66:	88 23       	and	r24, r24
    1f68:	99 f0       	breq	.+38     	;  0x1f90
    1f6a:	ce 01       	movw	r24, r28
    1f6c:	60 e0       	ldi	r22, 0x00	; 0
    1f6e:	0e 94 8b 09 	call	0x1316	;  0x1316
    1f72:	ac 01       	movw	r20, r24
    1f74:	00 97       	sbiw	r24, 0x00	; 0
    1f76:	61 f0       	breq	.+24     	;  0x1f90
    1f78:	81 2f       	mov	r24, r17
    1f7a:	90 2f       	mov	r25, r16
    1f7c:	9c 01       	movw	r18, r24
    1f7e:	d9 01       	movw	r26, r18
    1f80:	fa 01       	movw	r30, r20
    1f82:	80 e2       	ldi	r24, 0x20	; 32
    1f84:	01 90       	ld	r0, Z+
    1f86:	0d 92       	st	X+, r0
    1f88:	81 50       	subi	r24, 0x01	; 1
    1f8a:	e1 f7       	brne	.-8      	;  0x1f84
    1f8c:	81 e0       	ldi	r24, 0x01	; 1
    1f8e:	01 c0       	rjmp	.+2      	;  0x1f92
    1f90:	80 e0       	ldi	r24, 0x00	; 0
    1f92:	df 91       	pop	r29
    1f94:	cf 91       	pop	r28
    1f96:	1f 91       	pop	r17
    1f98:	0f 91       	pop	r16
    1f9a:	08 95       	ret
    1f9c:	2f 92       	push	r2
    1f9e:	3f 92       	push	r3
    1fa0:	4f 92       	push	r4
    1fa2:	5f 92       	push	r5
    1fa4:	6f 92       	push	r6
    1fa6:	7f 92       	push	r7
    1fa8:	8f 92       	push	r8
    1faa:	9f 92       	push	r9
    1fac:	af 92       	push	r10
    1fae:	bf 92       	push	r11
    1fb0:	cf 92       	push	r12
    1fb2:	df 92       	push	r13
    1fb4:	ef 92       	push	r14
    1fb6:	ff 92       	push	r15
    1fb8:	0f 93       	push	r16
    1fba:	1f 93       	push	r17
    1fbc:	df 93       	push	r29
    1fbe:	cf 93       	push	r28
    1fc0:	cd b7       	in	r28, 0x3d	; 61
    1fc2:	de b7       	in	r29, 0x3e	; 62
    1fc4:	6e 97       	sbiw	r28, 0x1e	; 30
    1fc6:	0f b6       	in	r0, 0x3f	; 63
    1fc8:	f8 94       	cli
    1fca:	de bf       	out	0x3e, r29	; 62
    1fcc:	0f be       	out	0x3f, r0	; 63
    1fce:	cd bf       	out	0x3d, r28	; 61
    1fd0:	6c 01       	movw	r12, r24
    1fd2:	6d 8f       	std	Y+29, r22	; 0x1d
    1fd4:	e4 2e       	mov	r14, r20
    1fd6:	fc 01       	movw	r30, r24
    1fd8:	15 82       	std	Z+5, r1	; 0x05
    1fda:	16 82       	std	Z+6, r1	; 0x06
    1fdc:	17 82       	std	Z+7, r1	; 0x07
    1fde:	10 86       	std	Z+8, r1	; 0x08
    1fe0:	11 86       	std	Z+9, r1	; 0x09
    1fe2:	12 86       	std	Z+10, r1	; 0x0a
    1fe4:	13 86       	std	Z+11, r1	; 0x0b
    1fe6:	14 86       	std	Z+12, r1	; 0x0c
    1fe8:	86 2f       	mov	r24, r22
    1fea:	90 e0       	ldi	r25, 0x00	; 0
    1fec:	63 e0       	ldi	r22, 0x03	; 3
    1fee:	46 2e       	mov	r4, r22
    1ff0:	51 2c       	mov	r5, r1
    1ff2:	48 22       	and	r4, r24
    1ff4:	59 22       	and	r5, r25
    1ff6:	51 e0       	ldi	r21, 0x01	; 1
    1ff8:	65 2e       	mov	r6, r21
    1ffa:	71 2c       	mov	r7, r1
    1ffc:	68 22       	and	r6, r24
    1ffe:	79 22       	and	r7, r25
    2000:	44 e0       	ldi	r20, 0x04	; 4
    2002:	84 2e       	mov	r8, r20
    2004:	91 2c       	mov	r9, r1
    2006:	88 22       	and	r8, r24
    2008:	99 22       	and	r9, r25
    200a:	1e 01       	movw	r2, r28
    200c:	08 94       	sec
    200e:	21 1c       	adc	r2, r1
    2010:	31 1c       	adc	r3, r1
    2012:	2e 2d       	mov	r18, r14
    2014:	2e 5f       	subi	r18, 0xFE	; 254
    2016:	2e 8f       	std	Y+30, r18	; 0x1e
    2018:	32 e0       	ldi	r19, 0x02	; 2
    201a:	a3 2e       	mov	r10, r19
    201c:	b1 2c       	mov	r11, r1
    201e:	a8 22       	and	r10, r24
    2020:	b9 22       	and	r11, r25
    2022:	89 c0       	rjmp	.+274    	;  0x2136
    2024:	f8 01       	movw	r30, r16
    2026:	80 81       	ld	r24, Z
    2028:	88 23       	and	r24, r24
    202a:	09 f4       	brne	.+2      	;  0x202e
    202c:	8b c0       	rjmp	.+278    	;  0x2144
    202e:	85 3e       	cpi	r24, 0xE5	; 229
    2030:	09 f4       	brne	.+2      	;  0x2034
    2032:	81 c0       	rjmp	.+258    	;  0x2136
    2034:	8e 32       	cpi	r24, 0x2E	; 46
    2036:	09 f4       	brne	.+2      	;  0x203a
    2038:	7e c0       	rjmp	.+252    	;  0x2136
    203a:	83 85       	ldd	r24, Z+11	; 0x0b
    203c:	83 fd       	sbrc	r24, 3
    203e:	7b c0       	rjmp	.+246    	;  0x2136
    2040:	ff 24       	eor	r15, r15
    2042:	08 c0       	rjmp	.+16     	;  0x2054
    2044:	87 ea       	ldi	r24, 0xA7	; 167
    2046:	95 e0       	ldi	r25, 0x05	; 5
    2048:	60 e2       	ldi	r22, 0x20	; 32
    204a:	40 e0       	ldi	r20, 0x00	; 0
    204c:	50 e0       	ldi	r21, 0x00	; 0
    204e:	0e 94 69 23 	call	0x46d2	;  0x46d2
    2052:	f3 94       	inc	r15
    2054:	fe 14       	cp	r15, r14
    2056:	b1 f7       	brne	.-20     	;  0x2044
    2058:	41 14       	cp	r4, r1
    205a:	51 04       	cpc	r5, r1
    205c:	11 f4       	brne	.+4      	;  0x2062
    205e:	60 e0       	ldi	r22, 0x00	; 0
    2060:	01 c0       	rjmp	.+2      	;  0x2064
    2062:	6e e0       	ldi	r22, 0x0E	; 14
    2064:	c8 01       	movw	r24, r16
    2066:	0e 94 c3 0d 	call	0x1b86	;  0x1b86
    206a:	61 14       	cp	r6, r1
    206c:	71 04       	cpc	r7, r1
    206e:	89 f0       	breq	.+34     	;  0x2092
    2070:	f8 01       	movw	r30, r16
    2072:	80 8d       	ldd	r24, Z+24	; 0x18
    2074:	91 8d       	ldd	r25, Z+25	; 0x19
    2076:	0e 94 93 0d 	call	0x1b26	;  0x1b26
    207a:	87 ea       	ldi	r24, 0xA7	; 167
    207c:	95 e0       	ldi	r25, 0x05	; 5
    207e:	60 e2       	ldi	r22, 0x20	; 32
    2080:	40 e0       	ldi	r20, 0x00	; 0
    2082:	50 e0       	ldi	r21, 0x00	; 0
    2084:	0e 94 69 23 	call	0x46d2	;  0x46d2
    2088:	f8 01       	movw	r30, r16
    208a:	86 89       	ldd	r24, Z+22	; 0x16
    208c:	97 89       	ldd	r25, Z+23	; 0x17
    208e:	0e 94 64 0d 	call	0x1ac8	;  0x1ac8
    2092:	f8 01       	movw	r30, r16
    2094:	83 85       	ldd	r24, Z+11	; 0x0b
    2096:	88 71       	andi	r24, 0x18	; 24
    2098:	80 31       	cpi	r24, 0x10	; 16
    209a:	a9 f0       	breq	.+42     	;  0x20c6
    209c:	a1 14       	cp	r10, r1
    209e:	b1 04       	cpc	r11, r1
    20a0:	91 f0       	breq	.+36     	;  0x20c6
    20a2:	87 ea       	ldi	r24, 0xA7	; 167
    20a4:	95 e0       	ldi	r25, 0x05	; 5
    20a6:	60 e2       	ldi	r22, 0x20	; 32
    20a8:	40 e0       	ldi	r20, 0x00	; 0
    20aa:	50 e0       	ldi	r21, 0x00	; 0
    20ac:	0e 94 69 23 	call	0x46d2	;  0x46d2
    20b0:	f8 01       	movw	r30, r16
    20b2:	44 8d       	ldd	r20, Z+28	; 0x1c
    20b4:	55 8d       	ldd	r21, Z+29	; 0x1d
    20b6:	66 8d       	ldd	r22, Z+30	; 0x1e
    20b8:	77 8d       	ldd	r23, Z+31	; 0x1f
    20ba:	87 ea       	ldi	r24, 0xA7	; 167
    20bc:	95 e0       	ldi	r25, 0x05	; 5
    20be:	2a e0       	ldi	r18, 0x0A	; 10
    20c0:	30 e0       	ldi	r19, 0x00	; 0
    20c2:	0e 94 ee 22 	call	0x45dc	;  0x45dc
    20c6:	87 ea       	ldi	r24, 0xA7	; 167
    20c8:	95 e0       	ldi	r25, 0x05	; 5
    20ca:	0e 94 7b 23 	call	0x46f6	;  0x46f6
    20ce:	81 14       	cp	r8, r1
    20d0:	91 04       	cpc	r9, r1
    20d2:	89 f1       	breq	.+98     	;  0x2136
    20d4:	f8 01       	movw	r30, r16
    20d6:	83 85       	ldd	r24, Z+11	; 0x0b
    20d8:	88 71       	andi	r24, 0x18	; 24
    20da:	80 31       	cpi	r24, 0x10	; 16
    20dc:	61 f5       	brne	.+88     	;  0x2136
    20de:	f6 01       	movw	r30, r12
    20e0:	81 85       	ldd	r24, Z+9	; 0x09
    20e2:	92 85       	ldd	r25, Z+10	; 0x0a
    20e4:	a3 85       	ldd	r26, Z+11	; 0x0b
    20e6:	b4 85       	ldd	r27, Z+12	; 0x0c
    20e8:	25 e0       	ldi	r18, 0x05	; 5
    20ea:	b6 95       	lsr	r27
    20ec:	a7 95       	ror	r26
    20ee:	97 95       	ror	r25
    20f0:	87 95       	ror	r24
    20f2:	2a 95       	dec	r18
    20f4:	d1 f7       	brne	.-12     	;  0x20ea
    20f6:	8c 01       	movw	r16, r24
    20f8:	84 e0       	ldi	r24, 0x04	; 4
    20fa:	91 e0       	ldi	r25, 0x01	; 1
    20fc:	9a 83       	std	Y+2, r25	; 0x02
    20fe:	89 83       	std	Y+1, r24	; 0x01
    2100:	1d 82       	std	Y+5, r1	; 0x05
    2102:	a8 01       	movw	r20, r16
    2104:	41 50       	subi	r20, 0x01	; 1
    2106:	50 40       	sbci	r21, 0x00	; 0
    2108:	c1 01       	movw	r24, r2
    210a:	b6 01       	movw	r22, r12
    210c:	21 e0       	ldi	r18, 0x01	; 1
    210e:	0e 94 c2 0e 	call	0x1d84	;  0x1d84
    2112:	88 23       	and	r24, r24
    2114:	29 f0       	breq	.+10     	;  0x2120
    2116:	c1 01       	movw	r24, r2
    2118:	6d 8d       	ldd	r22, Y+29	; 0x1d
    211a:	4e 8d       	ldd	r20, Y+30	; 0x1e
    211c:	0e 94 ce 0f 	call	0x1f9c	;  0x1f9c
    2120:	85 e0       	ldi	r24, 0x05	; 5
    2122:	00 0f       	add	r16, r16
    2124:	11 1f       	adc	r17, r17
    2126:	8a 95       	dec	r24
    2128:	e1 f7       	brne	.-8      	;  0x2122
    212a:	a8 01       	movw	r20, r16
    212c:	60 e0       	ldi	r22, 0x00	; 0
    212e:	70 e0       	ldi	r23, 0x00	; 0
    2130:	c6 01       	movw	r24, r12
    2132:	0e 94 2a 08 	call	0x1054	;  0x1054
    2136:	c6 01       	movw	r24, r12
    2138:	0e 94 8d 0c 	call	0x191a	;  0x191a
    213c:	8c 01       	movw	r16, r24
    213e:	00 97       	sbiw	r24, 0x00	; 0
    2140:	09 f0       	breq	.+2      	;  0x2144
    2142:	70 cf       	rjmp	.-288    	;  0x2024
    2144:	6e 96       	adiw	r28, 0x1e	; 30
    2146:	0f b6       	in	r0, 0x3f	; 63
    2148:	f8 94       	cli
    214a:	de bf       	out	0x3e, r29	; 62
    214c:	0f be       	out	0x3f, r0	; 63
    214e:	cd bf       	out	0x3d, r28	; 61
    2150:	cf 91       	pop	r28
    2152:	df 91       	pop	r29
    2154:	1f 91       	pop	r17
    2156:	0f 91       	pop	r16
    2158:	ff 90       	pop	r15
    215a:	ef 90       	pop	r14
    215c:	df 90       	pop	r13
    215e:	cf 90       	pop	r12
    2160:	bf 90       	pop	r11
    2162:	af 90       	pop	r10
    2164:	9f 90       	pop	r9
    2166:	8f 90       	pop	r8
    2168:	7f 90       	pop	r7
    216a:	6f 90       	pop	r6
    216c:	5f 90       	pop	r5
    216e:	4f 90       	pop	r4
    2170:	3f 90       	pop	r3
    2172:	2f 90       	pop	r2
    2174:	08 95       	ret
    2176:	cf 93       	push	r28
    2178:	df 93       	push	r29
    217a:	ec 01       	movw	r28, r24
    217c:	9c 01       	movw	r18, r24
    217e:	2b 5f       	subi	r18, 0xFB	; 251
    2180:	3f 4f       	sbci	r19, 0xFF	; 255
    2182:	8a 8d       	ldd	r24, Y+26	; 0x1a
    2184:	9b 8d       	ldd	r25, Y+27	; 0x1b
    2186:	41 e0       	ldi	r20, 0x01	; 1
    2188:	50 e0       	ldi	r21, 0x00	; 0
    218a:	60 e0       	ldi	r22, 0x00	; 0
    218c:	70 e0       	ldi	r23, 0x00	; 0
    218e:	0e 94 f9 18 	call	0x31f2	;  0x31f2
    2192:	88 23       	and	r24, r24
    2194:	a1 f0       	breq	.+40     	;  0x21be
    2196:	8e 89       	ldd	r24, Y+22	; 0x16
    2198:	9f 89       	ldd	r25, Y+23	; 0x17
    219a:	a8 8d       	ldd	r26, Y+24	; 0x18
    219c:	b9 8d       	ldd	r27, Y+25	; 0x19
    219e:	00 97       	sbiw	r24, 0x00	; 0
    21a0:	a1 05       	cpc	r26, r1
    21a2:	b1 05       	cpc	r27, r1
    21a4:	59 f4       	brne	.+22     	;  0x21bc
    21a6:	8d 81       	ldd	r24, Y+5	; 0x05
    21a8:	9e 81       	ldd	r25, Y+6	; 0x06
    21aa:	af 81       	ldd	r26, Y+7	; 0x07
    21ac:	b8 85       	ldd	r27, Y+8	; 0x08
    21ae:	8e 8b       	std	Y+22, r24	; 0x16
    21b0:	9f 8b       	std	Y+23, r25	; 0x17
    21b2:	a8 8f       	std	Y+24, r26	; 0x18
    21b4:	b9 8f       	std	Y+25, r27	; 0x19
    21b6:	8b 81       	ldd	r24, Y+3	; 0x03
    21b8:	80 68       	ori	r24, 0x80	; 128
    21ba:	8b 83       	std	Y+3, r24	; 0x03
    21bc:	81 e0       	ldi	r24, 0x01	; 1
    21be:	df 91       	pop	r29
    21c0:	cf 91       	pop	r28
    21c2:	08 95       	ret
    21c4:	2f 92       	push	r2
    21c6:	3f 92       	push	r3
    21c8:	4f 92       	push	r4
    21ca:	5f 92       	push	r5
    21cc:	7f 92       	push	r7
    21ce:	8f 92       	push	r8
    21d0:	9f 92       	push	r9
    21d2:	af 92       	push	r10
    21d4:	bf 92       	push	r11
    21d6:	cf 92       	push	r12
    21d8:	df 92       	push	r13
    21da:	ef 92       	push	r14
    21dc:	ff 92       	push	r15
    21de:	0f 93       	push	r16
    21e0:	1f 93       	push	r17
    21e2:	df 93       	push	r29
    21e4:	cf 93       	push	r28
    21e6:	00 d0       	rcall	.+0      	;  0x21e8
    21e8:	00 d0       	rcall	.+0      	;  0x21ea
    21ea:	00 d0       	rcall	.+0      	;  0x21ec
    21ec:	cd b7       	in	r28, 0x3d	; 61
    21ee:	de b7       	in	r29, 0x3e	; 62
    21f0:	6c 01       	movw	r12, r24
    21f2:	16 2f       	mov	r17, r22
    21f4:	07 2f       	mov	r16, r23
    21f6:	5e 83       	std	Y+6, r21	; 0x06
    21f8:	4d 83       	std	Y+5, r20	; 0x05
    21fa:	dc 01       	movw	r26, r24
    21fc:	14 96       	adiw	r26, 0x04	; 4
    21fe:	8c 91       	ld	r24, X
    2200:	14 97       	sbiw	r26, 0x04	; 4
    2202:	81 30       	cpi	r24, 0x01	; 1
    2204:	09 f0       	breq	.+2      	;  0x2208
    2206:	75 c1       	rjmp	.+746    	;  0x24f2
    2208:	13 96       	adiw	r26, 0x03	; 3
    220a:	8c 91       	ld	r24, X
    220c:	81 ff       	sbrs	r24, 1
    220e:	71 c1       	rjmp	.+738    	;  0x24f2
    2210:	8f c1       	rjmp	.+798    	;  0x2530
    2212:	f6 01       	movw	r30, r12
    2214:	42 89       	ldd	r20, Z+18	; 0x12
    2216:	53 89       	ldd	r21, Z+19	; 0x13
    2218:	64 89       	ldd	r22, Z+20	; 0x14
    221a:	75 89       	ldd	r23, Z+21	; 0x15
    221c:	81 85       	ldd	r24, Z+9	; 0x09
    221e:	92 85       	ldd	r25, Z+10	; 0x0a
    2220:	a3 85       	ldd	r26, Z+11	; 0x0b
    2222:	b4 85       	ldd	r27, Z+12	; 0x0c
    2224:	84 17       	cp	r24, r20
    2226:	95 07       	cpc	r25, r21
    2228:	a6 07       	cpc	r26, r22
    222a:	b7 07       	cpc	r27, r23
    222c:	31 f0       	breq	.+12     	;  0x223a
    222e:	c6 01       	movw	r24, r12
    2230:	0e 94 2a 08 	call	0x1054	;  0x1054
    2234:	88 23       	and	r24, r24
    2236:	09 f4       	brne	.+2      	;  0x223a
    2238:	5c c1       	rjmp	.+696    	;  0x24f2
    223a:	81 2f       	mov	r24, r17
    223c:	90 2f       	mov	r25, r16
    223e:	9c 01       	movw	r18, r24
    2240:	29 01       	movw	r4, r18
    2242:	2d 80       	ldd	r2, Y+5	; 0x05
    2244:	3e 80       	ldd	r3, Y+6	; 0x06
    2246:	19 c1       	rjmp	.+562    	;  0x247a
    2248:	d6 01       	movw	r26, r12
    224a:	5a 96       	adiw	r26, 0x1a	; 26
    224c:	ed 91       	ld	r30, X+
    224e:	fc 91       	ld	r31, X
    2250:	5b 97       	sbiw	r26, 0x1b	; 27
    2252:	da 01       	movw	r26, r20
    2254:	c9 01       	movw	r24, r18
    2256:	19 e0       	ldi	r17, 0x09	; 9
    2258:	b6 95       	lsr	r27
    225a:	a7 95       	ror	r26
    225c:	97 95       	ror	r25
    225e:	87 95       	ror	r24
    2260:	1a 95       	dec	r17
    2262:	d1 f7       	brne	.-12     	;  0x2258
    2264:	74 80       	ldd	r7, Z+4	; 0x04
    2266:	7a 94       	dec	r7
    2268:	78 22       	and	r7, r24
    226a:	7f ef       	ldi	r23, 0xFF	; 255
    226c:	87 2e       	mov	r8, r23
    226e:	71 e0       	ldi	r23, 0x01	; 1
    2270:	97 2e       	mov	r9, r23
    2272:	82 22       	and	r8, r18
    2274:	93 22       	and	r9, r19
    2276:	77 20       	and	r7, r7
    2278:	09 f0       	breq	.+2      	;  0x227c
    227a:	50 c0       	rjmp	.+160    	;  0x231c
    227c:	81 14       	cp	r8, r1
    227e:	91 04       	cpc	r9, r1
    2280:	09 f0       	breq	.+2      	;  0x2284
    2282:	4c c0       	rjmp	.+152    	;  0x231c
    2284:	d6 01       	movw	r26, r12
    2286:	15 96       	adiw	r26, 0x05	; 5
    2288:	4d 91       	ld	r20, X+
    228a:	5d 91       	ld	r21, X+
    228c:	6d 91       	ld	r22, X+
    228e:	7c 91       	ld	r23, X
    2290:	18 97       	sbiw	r26, 0x08	; 8
    2292:	41 15       	cp	r20, r1
    2294:	51 05       	cpc	r21, r1
    2296:	61 05       	cpc	r22, r1
    2298:	71 05       	cpc	r23, r1
    229a:	81 f4       	brne	.+32     	;  0x22bc
    229c:	56 96       	adiw	r26, 0x16	; 22
    229e:	8d 91       	ld	r24, X+
    22a0:	9d 91       	ld	r25, X+
    22a2:	0d 90       	ld	r0, X+
    22a4:	bc 91       	ld	r27, X
    22a6:	a0 2d       	mov	r26, r0
    22a8:	00 97       	sbiw	r24, 0x00	; 0
    22aa:	a1 05       	cpc	r26, r1
    22ac:	b1 05       	cpc	r27, r1
    22ae:	59 f1       	breq	.+86     	;  0x2306
    22b0:	f6 01       	movw	r30, r12
    22b2:	85 83       	std	Z+5, r24	; 0x05
    22b4:	96 83       	std	Z+6, r25	; 0x06
    22b6:	a7 83       	std	Z+7, r26	; 0x07
    22b8:	b0 87       	std	Z+8, r27	; 0x08
    22ba:	30 c0       	rjmp	.+96     	;  0x231c
    22bc:	cf 01       	movw	r24, r30
    22be:	9e 01       	movw	r18, r28
    22c0:	2f 5f       	subi	r18, 0xFF	; 255
    22c2:	3f 4f       	sbci	r19, 0xFF	; 255
    22c4:	0e 94 be 17 	call	0x2f7c	;  0x2f7c
    22c8:	88 23       	and	r24, r24
    22ca:	19 f4       	brne	.+6      	;  0x22d2
    22cc:	40 e0       	ldi	r20, 0x00	; 0
    22ce:	50 e0       	ldi	r21, 0x00	; 0
    22d0:	16 c1       	rjmp	.+556    	;  0x24fe
    22d2:	29 81       	ldd	r18, Y+1	; 0x01
    22d4:	3a 81       	ldd	r19, Y+2	; 0x02
    22d6:	4b 81       	ldd	r20, Y+3	; 0x03
    22d8:	5c 81       	ldd	r21, Y+4	; 0x04
    22da:	d6 01       	movw	r26, r12
    22dc:	5a 96       	adiw	r26, 0x1a	; 26
    22de:	ed 91       	ld	r30, X+
    22e0:	fc 91       	ld	r31, X
    22e2:	5b 97       	sbiw	r26, 0x1b	; 27
    22e4:	87 89       	ldd	r24, Z+23	; 0x17
    22e6:	80 31       	cpi	r24, 0x10	; 16
    22e8:	29 f0       	breq	.+10     	;  0x22f4
    22ea:	88 ef       	ldi	r24, 0xF8	; 248
    22ec:	9f ef       	ldi	r25, 0xFF	; 255
    22ee:	af ef       	ldi	r26, 0xFF	; 255
    22f0:	bf e0       	ldi	r27, 0x0F	; 15
    22f2:	04 c0       	rjmp	.+8      	;  0x22fc
    22f4:	88 ef       	ldi	r24, 0xF8	; 248
    22f6:	9f ef       	ldi	r25, 0xFF	; 255
    22f8:	a0 e0       	ldi	r26, 0x00	; 0
    22fa:	b0 e0       	ldi	r27, 0x00	; 0
    22fc:	28 17       	cp	r18, r24
    22fe:	39 07       	cpc	r19, r25
    2300:	4a 07       	cpc	r20, r26
    2302:	5b 07       	cpc	r21, r27
    2304:	30 f0       	brcs	.+12     	;  0x2312
    2306:	c6 01       	movw	r24, r12
    2308:	0e 94 bb 10 	call	0x2176	;  0x2176
    230c:	88 23       	and	r24, r24
    230e:	31 f4       	brne	.+12     	;  0x231c
    2310:	f0 c0       	rjmp	.+480    	;  0x24f2
    2312:	f6 01       	movw	r30, r12
    2314:	25 83       	std	Z+5, r18	; 0x05
    2316:	36 83       	std	Z+6, r19	; 0x06
    2318:	47 83       	std	Z+7, r20	; 0x07
    231a:	50 87       	std	Z+8, r21	; 0x08
    231c:	80 e0       	ldi	r24, 0x00	; 0
    231e:	92 e0       	ldi	r25, 0x02	; 2
    2320:	88 19       	sub	r24, r8
    2322:	99 09       	sbc	r25, r9
    2324:	51 01       	movw	r10, r2
    2326:	82 15       	cp	r24, r2
    2328:	93 05       	cpc	r25, r3
    232a:	08 f4       	brcc	.+2      	;  0x232e
    232c:	5c 01       	movw	r10, r24
    232e:	d6 01       	movw	r26, r12
    2330:	5a 96       	adiw	r26, 0x1a	; 26
    2332:	ed 91       	ld	r30, X+
    2334:	fc 91       	ld	r31, X
    2336:	5b 97       	sbiw	r26, 0x1b	; 27
    2338:	15 96       	adiw	r26, 0x05	; 5
    233a:	ed 90       	ld	r14, X+
    233c:	fd 90       	ld	r15, X+
    233e:	0d 91       	ld	r16, X+
    2340:	1c 91       	ld	r17, X
    2342:	18 97       	sbiw	r26, 0x08	; 8
    2344:	8e ef       	ldi	r24, 0xFE	; 254
    2346:	9f ef       	ldi	r25, 0xFF	; 255
    2348:	af ef       	ldi	r26, 0xFF	; 255
    234a:	bf ef       	ldi	r27, 0xFF	; 255
    234c:	e8 0e       	add	r14, r24
    234e:	f9 1e       	adc	r15, r25
    2350:	0a 1f       	adc	r16, r26
    2352:	1b 1f       	adc	r17, r27
    2354:	05 84       	ldd	r0, Z+13	; 0x0d
    2356:	04 c0       	rjmp	.+8      	;  0x2360
    2358:	ee 0c       	add	r14, r14
    235a:	ff 1c       	adc	r15, r15
    235c:	00 1f       	adc	r16, r16
    235e:	11 1f       	adc	r17, r17
    2360:	0a 94       	dec	r0
    2362:	d2 f7       	brpl	.-12     	;  0x2358
    2364:	86 85       	ldd	r24, Z+14	; 0x0e
    2366:	97 85       	ldd	r25, Z+15	; 0x0f
    2368:	a0 89       	ldd	r26, Z+16	; 0x10
    236a:	b1 89       	ldd	r27, Z+17	; 0x11
    236c:	e8 0e       	add	r14, r24
    236e:	f9 1e       	adc	r15, r25
    2370:	0a 1f       	adc	r16, r26
    2372:	1b 1f       	adc	r17, r27
    2374:	e7 0c       	add	r14, r7
    2376:	f1 1c       	adc	r15, r1
    2378:	01 1d       	adc	r16, r1
    237a:	11 1d       	adc	r17, r1
    237c:	90 e0       	ldi	r25, 0x00	; 0
    237e:	a9 16       	cp	r10, r25
    2380:	92 e0       	ldi	r25, 0x02	; 2
    2382:	b9 06       	cpc	r11, r25
    2384:	51 f5       	brne	.+84     	;  0x23da
    2386:	80 91 0a 01 	lds	r24, 0x010A
    238a:	90 91 0b 01 	lds	r25, 0x010B
    238e:	a0 91 0c 01 	lds	r26, 0x010C
    2392:	b0 91 0d 01 	lds	r27, 0x010D
    2396:	8e 15       	cp	r24, r14
    2398:	9f 05       	cpc	r25, r15
    239a:	a0 07       	cpc	r26, r16
    239c:	b1 07       	cpc	r27, r17
    239e:	61 f4       	brne	.+24     	;  0x23b8
    23a0:	8f ef       	ldi	r24, 0xFF	; 255
    23a2:	9f ef       	ldi	r25, 0xFF	; 255
    23a4:	af ef       	ldi	r26, 0xFF	; 255
    23a6:	bf ef       	ldi	r27, 0xFF	; 255
    23a8:	80 93 0a 01 	sts	0x010A, r24
    23ac:	90 93 0b 01 	sts	0x010B, r25
    23b0:	a0 93 0c 01 	sts	0x010C, r26
    23b4:	b0 93 0d 01 	sts	0x010D, r27
    23b8:	80 91 96 04 	lds	r24, 0x0496
    23bc:	90 91 97 04 	lds	r25, 0x0497
    23c0:	b8 01       	movw	r22, r16
    23c2:	a7 01       	movw	r20, r14
    23c4:	92 01       	movw	r18, r4
    23c6:	0e 94 77 04 	call	0x8ee	;  0x8ee
    23ca:	88 23       	and	r24, r24
    23cc:	09 f4       	brne	.+2      	;  0x23d0
    23ce:	91 c0       	rjmp	.+290    	;  0x24f2
    23d0:	a0 e0       	ldi	r26, 0x00	; 0
    23d2:	b2 e0       	ldi	r27, 0x02	; 2
    23d4:	4a 0e       	add	r4, r26
    23d6:	5b 1e       	adc	r5, r27
    23d8:	3e c0       	rjmp	.+124    	;  0x2456
    23da:	81 14       	cp	r8, r1
    23dc:	91 04       	cpc	r9, r1
    23de:	09 f5       	brne	.+66     	;  0x2422
    23e0:	f6 01       	movw	r30, r12
    23e2:	21 85       	ldd	r18, Z+9	; 0x09
    23e4:	32 85       	ldd	r19, Z+10	; 0x0a
    23e6:	43 85       	ldd	r20, Z+11	; 0x0b
    23e8:	54 85       	ldd	r21, Z+12	; 0x0c
    23ea:	82 89       	ldd	r24, Z+18	; 0x12
    23ec:	93 89       	ldd	r25, Z+19	; 0x13
    23ee:	a4 89       	ldd	r26, Z+20	; 0x14
    23f0:	b5 89       	ldd	r27, Z+21	; 0x15
    23f2:	28 17       	cp	r18, r24
    23f4:	39 07       	cpc	r19, r25
    23f6:	4a 07       	cpc	r20, r26
    23f8:	5b 07       	cpc	r21, r27
    23fa:	98 f0       	brcs	.+38     	;  0x2422
    23fc:	0e 94 43 15 	call	0x2a86	;  0x2a86
    2400:	88 23       	and	r24, r24
    2402:	09 f4       	brne	.+2      	;  0x2406
    2404:	76 c0       	rjmp	.+236    	;  0x24f2
    2406:	e0 92 0a 01 	sts	0x010A, r14
    240a:	f0 92 0b 01 	sts	0x010B, r15
    240e:	00 93 0c 01 	sts	0x010C, r16
    2412:	10 93 0d 01 	sts	0x010D, r17
    2416:	80 91 98 04 	lds	r24, 0x0498
    241a:	81 60       	ori	r24, 0x01	; 1
    241c:	80 93 98 04 	sts	0x0498, r24
    2420:	08 c0       	rjmp	.+16     	;  0x2432
    2422:	c8 01       	movw	r24, r16
    2424:	b7 01       	movw	r22, r14
    2426:	41 e0       	ldi	r20, 0x01	; 1
    2428:	0e 94 a2 15 	call	0x2b44	;  0x2b44
    242c:	88 23       	and	r24, r24
    242e:	09 f4       	brne	.+2      	;  0x2432
    2430:	60 c0       	rjmp	.+192    	;  0x24f2
    2432:	94 01       	movw	r18, r8
    2434:	2a 56       	subi	r18, 0x6A	; 106
    2436:	3d 4f       	sbci	r19, 0xFD	; 253
    2438:	a9 01       	movw	r20, r18
    243a:	4a 0d       	add	r20, r10
    243c:	5b 1d       	adc	r21, r11
    243e:	d2 01       	movw	r26, r4
    2440:	f9 01       	movw	r30, r18
    2442:	02 c0       	rjmp	.+4      	;  0x2448
    2444:	8d 91       	ld	r24, X+
    2446:	81 93       	st	Z+, r24
    2448:	e4 17       	cp	r30, r20
    244a:	f5 07       	cpc	r31, r21
    244c:	d9 f7       	brne	.-10     	;  0x2444
    244e:	e2 1b       	sub	r30, r18
    2450:	f3 0b       	sbc	r31, r19
    2452:	4e 0e       	add	r4, r30
    2454:	5f 1e       	adc	r5, r31
    2456:	2a 18       	sub	r2, r10
    2458:	3b 08       	sbc	r3, r11
    245a:	95 01       	movw	r18, r10
    245c:	40 e0       	ldi	r20, 0x00	; 0
    245e:	50 e0       	ldi	r21, 0x00	; 0
    2460:	f6 01       	movw	r30, r12
    2462:	81 85       	ldd	r24, Z+9	; 0x09
    2464:	92 85       	ldd	r25, Z+10	; 0x0a
    2466:	a3 85       	ldd	r26, Z+11	; 0x0b
    2468:	b4 85       	ldd	r27, Z+12	; 0x0c
    246a:	82 0f       	add	r24, r18
    246c:	93 1f       	adc	r25, r19
    246e:	a4 1f       	adc	r26, r20
    2470:	b5 1f       	adc	r27, r21
    2472:	81 87       	std	Z+9, r24	; 0x09
    2474:	92 87       	std	Z+10, r25	; 0x0a
    2476:	a3 87       	std	Z+11, r26	; 0x0b
    2478:	b4 87       	std	Z+12, r27	; 0x0c
    247a:	d6 01       	movw	r26, r12
    247c:	19 96       	adiw	r26, 0x09	; 9
    247e:	2d 91       	ld	r18, X+
    2480:	3d 91       	ld	r19, X+
    2482:	4d 91       	ld	r20, X+
    2484:	5c 91       	ld	r21, X
    2486:	1c 97       	sbiw	r26, 0x0c	; 12
    2488:	21 14       	cp	r2, r1
    248a:	31 04       	cpc	r3, r1
    248c:	09 f0       	breq	.+2      	;  0x2490
    248e:	dc ce       	rjmp	.-584    	;  0x2248
    2490:	52 96       	adiw	r26, 0x12	; 18
    2492:	8d 91       	ld	r24, X+
    2494:	9d 91       	ld	r25, X+
    2496:	0d 90       	ld	r0, X+
    2498:	bc 91       	ld	r27, X
    249a:	a0 2d       	mov	r26, r0
    249c:	82 17       	cp	r24, r18
    249e:	93 07       	cpc	r25, r19
    24a0:	a4 07       	cpc	r26, r20
    24a2:	b5 07       	cpc	r27, r21
    24a4:	48 f4       	brcc	.+18     	;  0x24b8
    24a6:	f6 01       	movw	r30, r12
    24a8:	22 8b       	std	Z+18, r18	; 0x12
    24aa:	33 8b       	std	Z+19, r19	; 0x13
    24ac:	44 8b       	std	Z+20, r20	; 0x14
    24ae:	55 8b       	std	Z+21, r21	; 0x15
    24b0:	83 81       	ldd	r24, Z+3	; 0x03
    24b2:	80 68       	ori	r24, 0x80	; 128
    24b4:	83 83       	std	Z+3, r24	; 0x03
    24b6:	11 c0       	rjmp	.+34     	;  0x24da
    24b8:	80 91 92 02 	lds	r24, 0x0292
    24bc:	90 91 93 02 	lds	r25, 0x0293
    24c0:	89 2b       	or	r24, r25
    24c2:	59 f0       	breq	.+22     	;  0x24da
    24c4:	8d 81       	ldd	r24, Y+5	; 0x05
    24c6:	9e 81       	ldd	r25, Y+6	; 0x06
    24c8:	89 2b       	or	r24, r25
    24ca:	39 f0       	breq	.+14     	;  0x24da
    24cc:	d6 01       	movw	r26, r12
    24ce:	13 96       	adiw	r26, 0x03	; 3
    24d0:	8c 91       	ld	r24, X
    24d2:	13 97       	sbiw	r26, 0x03	; 3
    24d4:	80 68       	ori	r24, 0x80	; 128
    24d6:	13 96       	adiw	r26, 0x03	; 3
    24d8:	8c 93       	st	X, r24
    24da:	f6 01       	movw	r30, r12
    24dc:	83 81       	ldd	r24, Z+3	; 0x03
    24de:	83 ff       	sbrs	r24, 3
    24e0:	05 c0       	rjmp	.+10     	;  0x24ec
    24e2:	c6 01       	movw	r24, r12
    24e4:	0e 94 a8 09 	call	0x1350	;  0x1350
    24e8:	88 23       	and	r24, r24
    24ea:	19 f0       	breq	.+6      	;  0x24f2
    24ec:	4d 81       	ldd	r20, Y+5	; 0x05
    24ee:	5e 81       	ldd	r21, Y+6	; 0x06
    24f0:	06 c0       	rjmp	.+12     	;  0x24fe
    24f2:	81 e0       	ldi	r24, 0x01	; 1
    24f4:	d6 01       	movw	r26, r12
    24f6:	12 96       	adiw	r26, 0x02	; 2
    24f8:	8c 93       	st	X, r24
    24fa:	4f ef       	ldi	r20, 0xFF	; 255
    24fc:	5f ef       	ldi	r21, 0xFF	; 255
    24fe:	ca 01       	movw	r24, r20
    2500:	26 96       	adiw	r28, 0x06	; 6
    2502:	0f b6       	in	r0, 0x3f	; 63
    2504:	f8 94       	cli
    2506:	de bf       	out	0x3e, r29	; 62
    2508:	0f be       	out	0x3f, r0	; 63
    250a:	cd bf       	out	0x3d, r28	; 61
    250c:	cf 91       	pop	r28
    250e:	df 91       	pop	r29
    2510:	1f 91       	pop	r17
    2512:	0f 91       	pop	r16
    2514:	ff 90       	pop	r15
    2516:	ef 90       	pop	r14
    2518:	df 90       	pop	r13
    251a:	cf 90       	pop	r12
    251c:	bf 90       	pop	r11
    251e:	af 90       	pop	r10
    2520:	9f 90       	pop	r9
    2522:	8f 90       	pop	r8
    2524:	7f 90       	pop	r7
    2526:	5f 90       	pop	r5
    2528:	4f 90       	pop	r4
    252a:	3f 90       	pop	r3
    252c:	2f 90       	pop	r2
    252e:	08 95       	ret
    2530:	82 fd       	sbrc	r24, 2
    2532:	6f ce       	rjmp	.-802    	;  0x2212
    2534:	82 ce       	rjmp	.-764    	;  0x223a
    2536:	db 01       	movw	r26, r22
    2538:	0d 90       	ld	r0, X+
    253a:	00 20       	and	r0, r0
    253c:	e9 f7       	brne	.-6      	;  0x2538
    253e:	11 97       	sbiw	r26, 0x01	; 1
    2540:	a6 1b       	sub	r26, r22
    2542:	b7 0b       	sbc	r27, r23
    2544:	ad 01       	movw	r20, r26
    2546:	0e 94 e2 10 	call	0x21c4	;  0x21c4
    254a:	08 95       	ret
    254c:	df 93       	push	r29
    254e:	cf 93       	push	r28
    2550:	0f 92       	push	r0
    2552:	cd b7       	in	r28, 0x3d	; 61
    2554:	de b7       	in	r29, 0x3e	; 62
    2556:	69 83       	std	Y+1, r22	; 0x01
    2558:	be 01       	movw	r22, r28
    255a:	6f 5f       	subi	r22, 0xFF	; 255
    255c:	7f 4f       	sbci	r23, 0xFF	; 255
    255e:	41 e0       	ldi	r20, 0x01	; 1
    2560:	50 e0       	ldi	r21, 0x00	; 0
    2562:	0e 94 e2 10 	call	0x21c4	;  0x21c4
    2566:	0f 90       	pop	r0
    2568:	cf 91       	pop	r28
    256a:	df 91       	pop	r29
    256c:	08 95       	ret
    256e:	df 92       	push	r13
    2570:	ef 92       	push	r14
    2572:	ff 92       	push	r15
    2574:	0f 93       	push	r16
    2576:	1f 93       	push	r17
    2578:	cf 93       	push	r28
    257a:	df 93       	push	r29
    257c:	ec 01       	movw	r28, r24
    257e:	0e 94 bb 10 	call	0x2176	;  0x2176
    2582:	88 23       	and	r24, r24
    2584:	09 f4       	brne	.+2      	;  0x2588
    2586:	4e c0       	rjmp	.+156    	;  0x2624
    2588:	ea 8d       	ldd	r30, Y+26	; 0x1a
    258a:	fb 8d       	ldd	r31, Y+27	; 0x1b
    258c:	ed 80       	ldd	r14, Y+5	; 0x05
    258e:	fe 80       	ldd	r15, Y+6	; 0x06
    2590:	0f 81       	ldd	r16, Y+7	; 0x07
    2592:	18 85       	ldd	r17, Y+8	; 0x08
    2594:	8e ef       	ldi	r24, 0xFE	; 254
    2596:	9f ef       	ldi	r25, 0xFF	; 255
    2598:	af ef       	ldi	r26, 0xFF	; 255
    259a:	bf ef       	ldi	r27, 0xFF	; 255
    259c:	e8 0e       	add	r14, r24
    259e:	f9 1e       	adc	r15, r25
    25a0:	0a 1f       	adc	r16, r26
    25a2:	1b 1f       	adc	r17, r27
    25a4:	05 84       	ldd	r0, Z+13	; 0x0d
    25a6:	04 c0       	rjmp	.+8      	;  0x25b0
    25a8:	ee 0c       	add	r14, r14
    25aa:	ff 1c       	adc	r15, r15
    25ac:	00 1f       	adc	r16, r16
    25ae:	11 1f       	adc	r17, r17
    25b0:	0a 94       	dec	r0
    25b2:	d2 f7       	brpl	.-12     	;  0x25a8
    25b4:	86 85       	ldd	r24, Z+14	; 0x0e
    25b6:	97 85       	ldd	r25, Z+15	; 0x0f
    25b8:	a0 89       	ldd	r26, Z+16	; 0x10
    25ba:	b1 89       	ldd	r27, Z+17	; 0x11
    25bc:	e8 0e       	add	r14, r24
    25be:	f9 1e       	adc	r15, r25
    25c0:	0a 1f       	adc	r16, r26
    25c2:	1b 1f       	adc	r17, r27
    25c4:	d4 80       	ldd	r13, Z+4	; 0x04
    25c6:	08 94       	sec
    25c8:	e1 08       	sbc	r14, r1
    25ca:	f1 08       	sbc	r15, r1
    25cc:	01 09       	sbc	r16, r1
    25ce:	11 09       	sbc	r17, r1
    25d0:	0b c0       	rjmp	.+22     	;  0x25e8
    25d2:	c8 01       	movw	r24, r16
    25d4:	b7 01       	movw	r22, r14
    25d6:	6d 0d       	add	r22, r13
    25d8:	71 1d       	adc	r23, r1
    25da:	81 1d       	adc	r24, r1
    25dc:	91 1d       	adc	r25, r1
    25de:	0e 94 7e 15 	call	0x2afc	;  0x2afc
    25e2:	88 23       	and	r24, r24
    25e4:	f9 f0       	breq	.+62     	;  0x2624
    25e6:	da 94       	dec	r13
    25e8:	dd 20       	and	r13, r13
    25ea:	99 f7       	brne	.-26     	;  0x25d2
    25ec:	ea 8d       	ldd	r30, Y+26	; 0x1a
    25ee:	fb 8d       	ldd	r31, Y+27	; 0x1b
    25f0:	20 e0       	ldi	r18, 0x00	; 0
    25f2:	32 e0       	ldi	r19, 0x02	; 2
    25f4:	40 e0       	ldi	r20, 0x00	; 0
    25f6:	50 e0       	ldi	r21, 0x00	; 0
    25f8:	05 84       	ldd	r0, Z+13	; 0x0d
    25fa:	04 c0       	rjmp	.+8      	;  0x2604
    25fc:	22 0f       	add	r18, r18
    25fe:	33 1f       	adc	r19, r19
    2600:	44 1f       	adc	r20, r20
    2602:	55 1f       	adc	r21, r21
    2604:	0a 94       	dec	r0
    2606:	d2 f7       	brpl	.-12     	;  0x25fc
    2608:	8a 89       	ldd	r24, Y+18	; 0x12
    260a:	9b 89       	ldd	r25, Y+19	; 0x13
    260c:	ac 89       	ldd	r26, Y+20	; 0x14
    260e:	bd 89       	ldd	r27, Y+21	; 0x15
    2610:	82 0f       	add	r24, r18
    2612:	93 1f       	adc	r25, r19
    2614:	a4 1f       	adc	r26, r20
    2616:	b5 1f       	adc	r27, r21
    2618:	8a 8b       	std	Y+18, r24	; 0x12
    261a:	9b 8b       	std	Y+19, r25	; 0x13
    261c:	ac 8b       	std	Y+20, r26	; 0x14
    261e:	bd 8b       	std	Y+21, r27	; 0x15
    2620:	81 e0       	ldi	r24, 0x01	; 1
    2622:	01 c0       	rjmp	.+2      	;  0x2626
    2624:	80 e0       	ldi	r24, 0x00	; 0
    2626:	df 91       	pop	r29
    2628:	cf 91       	pop	r28
    262a:	1f 91       	pop	r17
    262c:	0f 91       	pop	r16
    262e:	ff 90       	pop	r15
    2630:	ef 90       	pop	r14
    2632:	df 90       	pop	r13
    2634:	08 95       	ret
    2636:	6f 92       	push	r6
    2638:	7f 92       	push	r7
    263a:	8f 92       	push	r8
    263c:	9f 92       	push	r9
    263e:	af 92       	push	r10
    2640:	bf 92       	push	r11
    2642:	cf 92       	push	r12
    2644:	df 92       	push	r13
    2646:	ef 92       	push	r14
    2648:	ff 92       	push	r15
    264a:	0f 93       	push	r16
    264c:	1f 93       	push	r17
    264e:	df 93       	push	r29
    2650:	cf 93       	push	r28
    2652:	cd b7       	in	r28, 0x3d	; 61
    2654:	de b7       	in	r29, 0x3e	; 62
    2656:	2b 97       	sbiw	r28, 0x0b	; 11
    2658:	0f b6       	in	r0, 0x3f	; 63
    265a:	f8 94       	cli
    265c:	de bf       	out	0x3e, r29	; 62
    265e:	0f be       	out	0x3f, r0	; 63
    2660:	cd bf       	out	0x3d, r28	; 61
    2662:	5c 01       	movw	r10, r24
    2664:	6b 01       	movw	r12, r22
    2666:	82 2e       	mov	r8, r18
    2668:	dc 01       	movw	r26, r24
    266a:	14 96       	adiw	r26, 0x04	; 4
    266c:	8c 91       	ld	r24, X
    266e:	88 23       	and	r24, r24
    2670:	09 f0       	breq	.+2      	;  0x2674
    2672:	d2 c0       	rjmp	.+420    	;  0x2818
    2674:	ca 01       	movw	r24, r20
    2676:	8e 01       	movw	r16, r28
    2678:	0f 5f       	subi	r16, 0xFF	; 255
    267a:	1f 4f       	sbci	r17, 0xFF	; 255
    267c:	b8 01       	movw	r22, r16
    267e:	0e 94 c5 07 	call	0xf8a	;  0xf8a
    2682:	88 23       	and	r24, r24
    2684:	09 f4       	brne	.+2      	;  0x2688
    2686:	c8 c0       	rjmp	.+400    	;  0x2818
    2688:	f6 01       	movw	r30, r12
    268a:	82 8d       	ldd	r24, Z+26	; 0x1a
    268c:	93 8d       	ldd	r25, Z+27	; 0x1b
    268e:	d5 01       	movw	r26, r10
    2690:	5b 96       	adiw	r26, 0x1b	; 27
    2692:	9c 93       	st	X, r25
    2694:	8e 93       	st	-X, r24
    2696:	5a 97       	sbiw	r26, 0x1a	; 26
    2698:	15 82       	std	Z+5, r1	; 0x05
    269a:	16 82       	std	Z+6, r1	; 0x06
    269c:	17 82       	std	Z+7, r1	; 0x07
    269e:	10 86       	std	Z+8, r1	; 0x08
    26a0:	d6 01       	movw	r26, r12
    26a2:	19 96       	adiw	r26, 0x09	; 9
    26a4:	1d 92       	st	X+, r1
    26a6:	1d 92       	st	X+, r1
    26a8:	1d 92       	st	X+, r1
    26aa:	1c 92       	st	X, r1
    26ac:	1c 97       	sbiw	r26, 0x0c	; 12
    26ae:	99 24       	eor	r9, r9
    26b0:	38 01       	movw	r6, r16
    26b2:	41 c0       	rjmp	.+130    	;  0x2736
    26b4:	c6 01       	movw	r24, r12
    26b6:	0e 94 8d 0c 	call	0x191a	;  0x191a
    26ba:	fc 01       	movw	r30, r24
    26bc:	00 97       	sbiw	r24, 0x00	; 0
    26be:	09 f4       	brne	.+2      	;  0x26c2
    26c0:	ab c0       	rjmp	.+342    	;  0x2818
    26c2:	85 e0       	ldi	r24, 0x05	; 5
    26c4:	16 95       	lsr	r17
    26c6:	07 95       	ror	r16
    26c8:	f7 94       	ror	r15
    26ca:	e7 94       	ror	r14
    26cc:	8a 95       	dec	r24
    26ce:	d1 f7       	brne	.-12     	;  0x26c4
    26d0:	1e 2d       	mov	r17, r14
    26d2:	1f 70       	andi	r17, 0x0F	; 15
    26d4:	80 81       	ld	r24, Z
    26d6:	88 23       	and	r24, r24
    26d8:	11 f0       	breq	.+4      	;  0x26de
    26da:	85 3e       	cpi	r24, 0xE5	; 229
    26dc:	d1 f4       	brne	.+52     	;  0x2712
    26de:	99 20       	and	r9, r9
    26e0:	91 f4       	brne	.+36     	;  0x2706
    26e2:	d5 01       	movw	r26, r10
    26e4:	51 96       	adiw	r26, 0x11	; 17
    26e6:	1c 93       	st	X, r17
    26e8:	51 97       	sbiw	r26, 0x11	; 17
    26ea:	20 91 0a 01 	lds	r18, 0x010A
    26ee:	30 91 0b 01 	lds	r19, 0x010B
    26f2:	40 91 0c 01 	lds	r20, 0x010C
    26f6:	50 91 0d 01 	lds	r21, 0x010D
    26fa:	1d 96       	adiw	r26, 0x0d	; 13
    26fc:	2d 93       	st	X+, r18
    26fe:	3d 93       	st	X+, r19
    2700:	4d 93       	st	X+, r20
    2702:	5c 93       	st	X, r21
    2704:	50 97       	sbiw	r26, 0x10	; 16
    2706:	80 81       	ld	r24, Z
    2708:	88 23       	and	r24, r24
    270a:	99 f4       	brne	.+38     	;  0x2732
    270c:	99 24       	eor	r9, r9
    270e:	93 94       	inc	r9
    2710:	21 c0       	rjmp	.+66     	;  0x2754
    2712:	c3 01       	movw	r24, r6
    2714:	bf 01       	movw	r22, r30
    2716:	4b e0       	ldi	r20, 0x0B	; 11
    2718:	50 e0       	ldi	r21, 0x00	; 0
    271a:	0e 94 2a 33 	call	0x6654	;  0x6654
    271e:	00 97       	sbiw	r24, 0x00	; 0
    2720:	51 f4       	brne	.+20     	;  0x2736
    2722:	88 2d       	mov	r24, r8
    2724:	80 73       	andi	r24, 0x30	; 48
    2726:	80 33       	cpi	r24, 0x30	; 48
    2728:	09 f4       	brne	.+2      	;  0x272c
    272a:	76 c0       	rjmp	.+236    	;  0x2818
    272c:	c5 01       	movw	r24, r10
    272e:	61 2f       	mov	r22, r17
    2730:	6f c0       	rjmp	.+222    	;  0x2810
    2732:	99 24       	eor	r9, r9
    2734:	93 94       	inc	r9
    2736:	f6 01       	movw	r30, r12
    2738:	e1 84       	ldd	r14, Z+9	; 0x09
    273a:	f2 84       	ldd	r15, Z+10	; 0x0a
    273c:	03 85       	ldd	r16, Z+11	; 0x0b
    273e:	14 85       	ldd	r17, Z+12	; 0x0c
    2740:	82 89       	ldd	r24, Z+18	; 0x12
    2742:	93 89       	ldd	r25, Z+19	; 0x13
    2744:	a4 89       	ldd	r26, Z+20	; 0x14
    2746:	b5 89       	ldd	r27, Z+21	; 0x15
    2748:	e8 16       	cp	r14, r24
    274a:	f9 06       	cpc	r15, r25
    274c:	0a 07       	cpc	r16, r26
    274e:	1b 07       	cpc	r17, r27
    2750:	08 f4       	brcc	.+2      	;  0x2754
    2752:	b0 cf       	rjmp	.-160    	;  0x26b4
    2754:	88 2d       	mov	r24, r8
    2756:	82 71       	andi	r24, 0x12	; 18
    2758:	82 31       	cpi	r24, 0x12	; 18
    275a:	09 f0       	breq	.+2      	;  0x275e
    275c:	5d c0       	rjmp	.+186    	;  0x2818
    275e:	99 20       	and	r9, r9
    2760:	41 f0       	breq	.+16     	;  0x2772
    2762:	c5 01       	movw	r24, r10
    2764:	61 e0       	ldi	r22, 0x01	; 1
    2766:	0e 94 8b 09 	call	0x1316	;  0x1316
    276a:	8c 01       	movw	r16, r24
    276c:	00 97       	sbiw	r24, 0x00	; 0
    276e:	89 f4       	brne	.+34     	;  0x2792
    2770:	53 c0       	rjmp	.+166    	;  0x2818
    2772:	d6 01       	movw	r26, r12
    2774:	14 96       	adiw	r26, 0x04	; 4
    2776:	8c 91       	ld	r24, X
    2778:	82 30       	cpi	r24, 0x02	; 2
    277a:	09 f4       	brne	.+2      	;  0x277e
    277c:	4d c0       	rjmp	.+154    	;  0x2818
    277e:	c6 01       	movw	r24, r12
    2780:	0e 94 b7 12 	call	0x256e	;  0x256e
    2784:	88 23       	and	r24, r24
    2786:	09 f4       	brne	.+2      	;  0x278a
    2788:	47 c0       	rjmp	.+142    	;  0x2818
    278a:	f5 01       	movw	r30, r10
    278c:	11 8a       	std	Z+17, r1	; 0x11
    278e:	06 e9       	ldi	r16, 0x96	; 150
    2790:	12 e0       	ldi	r17, 0x02	; 2
    2792:	80 e2       	ldi	r24, 0x20	; 32
    2794:	d8 01       	movw	r26, r16
    2796:	1d 92       	st	X+, r1
    2798:	8a 95       	dec	r24
    279a:	e9 f7       	brne	.-6      	;  0x2796
    279c:	d8 01       	movw	r26, r16
    279e:	fe 01       	movw	r30, r28
    27a0:	31 96       	adiw	r30, 0x01	; 1
    27a2:	8b e0       	ldi	r24, 0x0B	; 11
    27a4:	01 90       	ld	r0, Z+
    27a6:	0d 92       	st	X+, r0
    27a8:	81 50       	subi	r24, 0x01	; 1
    27aa:	e1 f7       	brne	.-8      	;  0x27a4
    27ac:	e0 91 92 02 	lds	r30, 0x0292
    27b0:	f0 91 93 02 	lds	r31, 0x0293
    27b4:	30 97       	sbiw	r30, 0x00	; 0
    27b6:	39 f0       	breq	.+14     	;  0x27c6
    27b8:	b8 01       	movw	r22, r16
    27ba:	62 5f       	subi	r22, 0xF2	; 242
    27bc:	7f 4f       	sbci	r23, 0xFF	; 255
    27be:	c8 01       	movw	r24, r16
    27c0:	40 96       	adiw	r24, 0x10	; 16
    27c2:	09 95       	icall
    27c4:	09 c0       	rjmp	.+18     	;  0x27d8
    27c6:	81 e2       	ldi	r24, 0x21	; 33
    27c8:	98 e2       	ldi	r25, 0x28	; 40
    27ca:	f8 01       	movw	r30, r16
    27cc:	91 8b       	std	Z+17, r25	; 0x11
    27ce:	80 8b       	std	Z+16, r24	; 0x10
    27d0:	80 e0       	ldi	r24, 0x00	; 0
    27d2:	98 e0       	ldi	r25, 0x08	; 8
    27d4:	97 87       	std	Z+15, r25	; 0x0f
    27d6:	86 87       	std	Z+14, r24	; 0x0e
    27d8:	d8 01       	movw	r26, r16
    27da:	50 96       	adiw	r26, 0x10	; 16
    27dc:	8d 91       	ld	r24, X+
    27de:	9c 91       	ld	r25, X
    27e0:	51 97       	sbiw	r26, 0x11	; 17
    27e2:	53 96       	adiw	r26, 0x13	; 19
    27e4:	9c 93       	st	X, r25
    27e6:	8e 93       	st	-X, r24
    27e8:	52 97       	sbiw	r26, 0x12	; 18
    27ea:	59 96       	adiw	r26, 0x19	; 25
    27ec:	9c 93       	st	X, r25
    27ee:	8e 93       	st	-X, r24
    27f0:	58 97       	sbiw	r26, 0x18	; 24
    27f2:	1e 96       	adiw	r26, 0x0e	; 14
    27f4:	8d 91       	ld	r24, X+
    27f6:	9c 91       	ld	r25, X
    27f8:	1f 97       	sbiw	r26, 0x0f	; 15
    27fa:	57 96       	adiw	r26, 0x17	; 23
    27fc:	9c 93       	st	X, r25
    27fe:	8e 93       	st	-X, r24
    2800:	56 97       	sbiw	r26, 0x16	; 22
    2802:	0e 94 43 15 	call	0x2a86	;  0x2a86
    2806:	88 23       	and	r24, r24
    2808:	39 f0       	breq	.+14     	;  0x2818
    280a:	c5 01       	movw	r24, r10
    280c:	f5 01       	movw	r30, r10
    280e:	61 89       	ldd	r22, Z+17	; 0x11
    2810:	48 2d       	mov	r20, r8
    2812:	0e 94 54 0e 	call	0x1ca8	;  0x1ca8
    2816:	01 c0       	rjmp	.+2      	;  0x281a
    2818:	80 e0       	ldi	r24, 0x00	; 0
    281a:	2b 96       	adiw	r28, 0x0b	; 11
    281c:	0f b6       	in	r0, 0x3f	; 63
    281e:	f8 94       	cli
    2820:	de bf       	out	0x3e, r29	; 62
    2822:	0f be       	out	0x3f, r0	; 63
    2824:	cd bf       	out	0x3d, r28	; 61
    2826:	cf 91       	pop	r28
    2828:	df 91       	pop	r29
    282a:	1f 91       	pop	r17
    282c:	0f 91       	pop	r16
    282e:	ff 90       	pop	r15
    2830:	ef 90       	pop	r14
    2832:	df 90       	pop	r13
    2834:	cf 90       	pop	r12
    2836:	bf 90       	pop	r11
    2838:	af 90       	pop	r10
    283a:	9f 90       	pop	r9
    283c:	8f 90       	pop	r8
    283e:	7f 90       	pop	r7
    2840:	6f 90       	pop	r6
    2842:	08 95       	ret
    2844:	0f 93       	push	r16
    2846:	1f 93       	push	r17
    2848:	df 93       	push	r29
    284a:	cf 93       	push	r28
    284c:	cd b7       	in	r28, 0x3d	; 61
    284e:	de b7       	in	r29, 0x3e	; 62
    2850:	6c 97       	sbiw	r28, 0x1c	; 28
    2852:	0f b6       	in	r0, 0x3f	; 63
    2854:	f8 94       	cli
    2856:	de bf       	out	0x3e, r29	; 62
    2858:	0f be       	out	0x3f, r0	; 63
    285a:	cd bf       	out	0x3d, r28	; 61
    285c:	9c 01       	movw	r18, r24
    285e:	ab 01       	movw	r20, r22
    2860:	84 e0       	ldi	r24, 0x04	; 4
    2862:	91 e0       	ldi	r25, 0x01	; 1
    2864:	9a 83       	std	Y+2, r25	; 0x02
    2866:	89 83       	std	Y+1, r24	; 0x01
    2868:	1d 82       	std	Y+5, r1	; 0x05
    286a:	8e 01       	movw	r16, r28
    286c:	0f 5f       	subi	r16, 0xFF	; 255
    286e:	1f 4f       	sbci	r17, 0xFF	; 255
    2870:	c8 01       	movw	r24, r16
    2872:	b9 01       	movw	r22, r18
    2874:	22 e0       	ldi	r18, 0x02	; 2
    2876:	0e 94 1b 13 	call	0x2636	;  0x2636
    287a:	88 23       	and	r24, r24
    287c:	19 f0       	breq	.+6      	;  0x2884
    287e:	c8 01       	movw	r24, r16
    2880:	0e 94 5c 0b 	call	0x16b8	;  0x16b8
    2884:	6c 96       	adiw	r28, 0x1c	; 28
    2886:	0f b6       	in	r0, 0x3f	; 63
    2888:	f8 94       	cli
    288a:	de bf       	out	0x3e, r29	; 62
    288c:	0f be       	out	0x3f, r0	; 63
    288e:	cd bf       	out	0x3d, r28	; 61
    2890:	cf 91       	pop	r28
    2892:	df 91       	pop	r29
    2894:	1f 91       	pop	r17
    2896:	0f 91       	pop	r16
    2898:	08 95       	ret
    289a:	ef 92       	push	r14
    289c:	ff 92       	push	r15
    289e:	0f 93       	push	r16
    28a0:	1f 93       	push	r17
    28a2:	cf 93       	push	r28
    28a4:	df 93       	push	r29
    28a6:	ec 01       	movw	r28, r24
    28a8:	78 01       	movw	r14, r16
    28aa:	89 01       	movw	r16, r18
    28ac:	e1 14       	cp	r14, r1
    28ae:	f1 04       	cpc	r15, r1
    28b0:	01 05       	cpc	r16, r1
    28b2:	11 05       	cpc	r17, r1
    28b4:	91 f1       	breq	.+100    	;  0x291a
    28b6:	23 e3       	ldi	r18, 0x33	; 51
    28b8:	0e 94 1b 13 	call	0x2636	;  0x2636
    28bc:	88 23       	and	r24, r24
    28be:	69 f1       	breq	.+90     	;  0x291a
    28c0:	ea 8d       	ldd	r30, Y+26	; 0x1a
    28c2:	fb 8d       	ldd	r31, Y+27	; 0x1b
    28c4:	b8 01       	movw	r22, r16
    28c6:	a7 01       	movw	r20, r14
    28c8:	41 50       	subi	r20, 0x01	; 1
    28ca:	50 40       	sbci	r21, 0x00	; 0
    28cc:	60 40       	sbci	r22, 0x00	; 0
    28ce:	70 40       	sbci	r23, 0x00	; 0
    28d0:	85 85       	ldd	r24, Z+13	; 0x0d
    28d2:	90 e0       	ldi	r25, 0x00	; 0
    28d4:	09 96       	adiw	r24, 0x09	; 9
    28d6:	04 c0       	rjmp	.+8      	;  0x28e0
    28d8:	76 95       	lsr	r23
    28da:	67 95       	ror	r22
    28dc:	57 95       	ror	r21
    28de:	47 95       	ror	r20
    28e0:	8a 95       	dec	r24
    28e2:	d2 f7       	brpl	.-12     	;  0x28d8
    28e4:	4f 5f       	subi	r20, 0xFF	; 255
    28e6:	5f 4f       	sbci	r21, 0xFF	; 255
    28e8:	6f 4f       	sbci	r22, 0xFF	; 255
    28ea:	7f 4f       	sbci	r23, 0xFF	; 255
    28ec:	9e 01       	movw	r18, r28
    28ee:	2a 5e       	subi	r18, 0xEA	; 234
    28f0:	3f 4f       	sbci	r19, 0xFF	; 255
    28f2:	cf 01       	movw	r24, r30
    28f4:	0e 94 f9 18 	call	0x31f2	;  0x31f2
    28f8:	88 23       	and	r24, r24
    28fa:	21 f4       	brne	.+8      	;  0x2904
    28fc:	ce 01       	movw	r24, r28
    28fe:	0e 94 5c 0b 	call	0x16b8	;  0x16b8
    2902:	0b c0       	rjmp	.+22     	;  0x291a
    2904:	ea 8a       	std	Y+18, r14	; 0x12
    2906:	fb 8a       	std	Y+19, r15	; 0x13
    2908:	0c 8b       	std	Y+20, r16	; 0x14
    290a:	1d 8b       	std	Y+21, r17	; 0x15
    290c:	8b 81       	ldd	r24, Y+3	; 0x03
    290e:	80 68       	ori	r24, 0x80	; 128
    2910:	8b 83       	std	Y+3, r24	; 0x03
    2912:	ce 01       	movw	r24, r28
    2914:	0e 94 a8 09 	call	0x1350	;  0x1350
    2918:	01 c0       	rjmp	.+2      	;  0x291c
    291a:	80 e0       	ldi	r24, 0x00	; 0
    291c:	df 91       	pop	r29
    291e:	cf 91       	pop	r28
    2920:	1f 91       	pop	r17
    2922:	0f 91       	pop	r16
    2924:	ff 90       	pop	r15
    2926:	ef 90       	pop	r14
    2928:	08 95       	ret
    292a:	ef 92       	push	r14
    292c:	ff 92       	push	r15
    292e:	0f 93       	push	r16
    2930:	1f 93       	push	r17
    2932:	df 93       	push	r29
    2934:	cf 93       	push	r28
    2936:	cd b7       	in	r28, 0x3d	; 61
    2938:	de b7       	in	r29, 0x3e	; 62
    293a:	a0 97       	sbiw	r28, 0x20	; 32
    293c:	0f b6       	in	r0, 0x3f	; 63
    293e:	f8 94       	cli
    2940:	de bf       	out	0x3e, r29	; 62
    2942:	0f be       	out	0x3f, r0	; 63
    2944:	cd bf       	out	0x3d, r28	; 61
    2946:	8c 01       	movw	r16, r24
    2948:	7b 01       	movw	r14, r22
    294a:	23 e3       	ldi	r18, 0x33	; 51
    294c:	0e 94 1b 13 	call	0x2636	;  0x2636
    2950:	88 23       	and	r24, r24
    2952:	09 f4       	brne	.+2      	;  0x2956
    2954:	8a c0       	rjmp	.+276    	;  0x2a6a
    2956:	81 e0       	ldi	r24, 0x01	; 1
    2958:	d8 01       	movw	r26, r16
    295a:	13 96       	adiw	r26, 0x03	; 3
    295c:	8c 93       	st	X, r24
    295e:	13 97       	sbiw	r26, 0x03	; 3
    2960:	84 e0       	ldi	r24, 0x04	; 4
    2962:	14 96       	adiw	r26, 0x04	; 4
    2964:	8c 93       	st	X, r24
    2966:	c8 01       	movw	r24, r16
    2968:	0e 94 b7 12 	call	0x256e	;  0x256e
    296c:	88 23       	and	r24, r24
    296e:	09 f4       	brne	.+2      	;  0x2972
    2970:	7c c0       	rjmp	.+248    	;  0x2a6a
    2972:	c8 01       	movw	r24, r16
    2974:	0e 94 a8 09 	call	0x1350	;  0x1350
    2978:	88 23       	and	r24, r24
    297a:	09 f4       	brne	.+2      	;  0x297e
    297c:	76 c0       	rjmp	.+236    	;  0x2a6a
    297e:	c8 01       	movw	r24, r16
    2980:	61 e0       	ldi	r22, 0x01	; 1
    2982:	0e 94 8b 09 	call	0x1316	;  0x1316
    2986:	fc 01       	movw	r30, r24
    2988:	00 97       	sbiw	r24, 0x00	; 0
    298a:	09 f4       	brne	.+2      	;  0x298e
    298c:	6e c0       	rjmp	.+220    	;  0x2a6a
    298e:	80 e1       	ldi	r24, 0x10	; 16
    2990:	83 87       	std	Z+11, r24	; 0x0b
    2992:	de 01       	movw	r26, r28
    2994:	11 96       	adiw	r26, 0x01	; 1
    2996:	80 e2       	ldi	r24, 0x20	; 32
    2998:	01 90       	ld	r0, Z+
    299a:	0d 92       	st	X+, r0
    299c:	81 50       	subi	r24, 0x01	; 1
    299e:	e1 f7       	brne	.-8      	;  0x2998
    29a0:	fe 01       	movw	r30, r28
    29a2:	32 96       	adiw	r30, 0x02	; 2
    29a4:	20 e2       	ldi	r18, 0x20	; 32
    29a6:	ce 01       	movw	r24, r28
    29a8:	0c 96       	adiw	r24, 0x0c	; 12
    29aa:	21 93       	st	Z+, r18
    29ac:	e8 17       	cp	r30, r24
    29ae:	f9 07       	cpc	r31, r25
    29b0:	e1 f7       	brne	.-8      	;  0x29aa
    29b2:	8e e2       	ldi	r24, 0x2E	; 46
    29b4:	89 83       	std	Y+1, r24	; 0x01
    29b6:	d8 01       	movw	r26, r16
    29b8:	5a 96       	adiw	r26, 0x1a	; 26
    29ba:	ed 91       	ld	r30, X+
    29bc:	fc 91       	ld	r31, X
    29be:	5b 97       	sbiw	r26, 0x1b	; 27
    29c0:	56 96       	adiw	r26, 0x16	; 22
    29c2:	6d 91       	ld	r22, X+
    29c4:	7d 91       	ld	r23, X+
    29c6:	8d 91       	ld	r24, X+
    29c8:	9c 91       	ld	r25, X
    29ca:	59 97       	sbiw	r26, 0x19	; 25
    29cc:	62 50       	subi	r22, 0x02	; 2
    29ce:	70 40       	sbci	r23, 0x00	; 0
    29d0:	80 40       	sbci	r24, 0x00	; 0
    29d2:	90 40       	sbci	r25, 0x00	; 0
    29d4:	05 84       	ldd	r0, Z+13	; 0x0d
    29d6:	04 c0       	rjmp	.+8      	;  0x29e0
    29d8:	66 0f       	add	r22, r22
    29da:	77 1f       	adc	r23, r23
    29dc:	88 1f       	adc	r24, r24
    29de:	99 1f       	adc	r25, r25
    29e0:	0a 94       	dec	r0
    29e2:	d2 f7       	brpl	.-12     	;  0x29d8
    29e4:	26 85       	ldd	r18, Z+14	; 0x0e
    29e6:	37 85       	ldd	r19, Z+15	; 0x0f
    29e8:	40 89       	ldd	r20, Z+16	; 0x10
    29ea:	51 89       	ldd	r21, Z+17	; 0x11
    29ec:	62 0f       	add	r22, r18
    29ee:	73 1f       	adc	r23, r19
    29f0:	84 1f       	adc	r24, r20
    29f2:	95 1f       	adc	r25, r21
    29f4:	41 e0       	ldi	r20, 0x01	; 1
    29f6:	0e 94 a2 15 	call	0x2b44	;  0x2b44
    29fa:	88 23       	and	r24, r24
    29fc:	b1 f1       	breq	.+108    	;  0x2a6a
    29fe:	a6 e9       	ldi	r26, 0x96	; 150
    2a00:	b2 e0       	ldi	r27, 0x02	; 2
    2a02:	fe 01       	movw	r30, r28
    2a04:	31 96       	adiw	r30, 0x01	; 1
    2a06:	80 e2       	ldi	r24, 0x20	; 32
    2a08:	01 90       	ld	r0, Z+
    2a0a:	0d 92       	st	X+, r0
    2a0c:	81 50       	subi	r24, 0x01	; 1
    2a0e:	e1 f7       	brne	.-8      	;  0x2a08
    2a10:	8e e2       	ldi	r24, 0x2E	; 46
    2a12:	8a 83       	std	Y+2, r24	; 0x02
    2a14:	f7 01       	movw	r30, r14
    2a16:	84 81       	ldd	r24, Z+4	; 0x04
    2a18:	82 50       	subi	r24, 0x02	; 2
    2a1a:	82 30       	cpi	r24, 0x02	; 2
    2a1c:	28 f4       	brcc	.+10     	;  0x2a28
    2a1e:	1c 8e       	std	Y+28, r1	; 0x1c
    2a20:	1b 8e       	std	Y+27, r1	; 0x1b
    2a22:	1e 8a       	std	Y+22, r1	; 0x16
    2a24:	1d 8a       	std	Y+21, r1	; 0x15
    2a26:	0c c0       	rjmp	.+24     	;  0x2a40
    2a28:	f7 01       	movw	r30, r14
    2a2a:	86 89       	ldd	r24, Z+22	; 0x16
    2a2c:	97 89       	ldd	r25, Z+23	; 0x17
    2a2e:	a0 8d       	ldd	r26, Z+24	; 0x18
    2a30:	b1 8d       	ldd	r27, Z+25	; 0x19
    2a32:	9c 8f       	std	Y+28, r25	; 0x1c
    2a34:	8b 8f       	std	Y+27, r24	; 0x1b
    2a36:	cd 01       	movw	r24, r26
    2a38:	aa 27       	eor	r26, r26
    2a3a:	bb 27       	eor	r27, r27
    2a3c:	9e 8b       	std	Y+22, r25	; 0x16
    2a3e:	8d 8b       	std	Y+21, r24	; 0x15
    2a40:	a6 eb       	ldi	r26, 0xB6	; 182
    2a42:	b2 e0       	ldi	r27, 0x02	; 2
    2a44:	fe 01       	movw	r30, r28
    2a46:	31 96       	adiw	r30, 0x01	; 1
    2a48:	80 e2       	ldi	r24, 0x20	; 32
    2a4a:	01 90       	ld	r0, Z+
    2a4c:	0d 92       	st	X+, r0
    2a4e:	81 50       	subi	r24, 0x01	; 1
    2a50:	e1 f7       	brne	.-8      	;  0x2a4a
    2a52:	80 e4       	ldi	r24, 0x40	; 64
    2a54:	90 e0       	ldi	r25, 0x00	; 0
    2a56:	a0 e0       	ldi	r26, 0x00	; 0
    2a58:	b0 e0       	ldi	r27, 0x00	; 0
    2a5a:	f8 01       	movw	r30, r16
    2a5c:	81 87       	std	Z+9, r24	; 0x09
    2a5e:	92 87       	std	Z+10, r25	; 0x0a
    2a60:	a3 87       	std	Z+11, r26	; 0x0b
    2a62:	b4 87       	std	Z+12, r27	; 0x0c
    2a64:	0e 94 43 15 	call	0x2a86	;  0x2a86
    2a68:	01 c0       	rjmp	.+2      	;  0x2a6c
    2a6a:	80 e0       	ldi	r24, 0x00	; 0
    2a6c:	a0 96       	adiw	r28, 0x20	; 32
    2a6e:	0f b6       	in	r0, 0x3f	; 63
    2a70:	f8 94       	cli
    2a72:	de bf       	out	0x3e, r29	; 62
    2a74:	0f be       	out	0x3f, r0	; 63
    2a76:	cd bf       	out	0x3d, r28	; 61
    2a78:	cf 91       	pop	r28
    2a7a:	df 91       	pop	r29
    2a7c:	1f 91       	pop	r17
    2a7e:	0f 91       	pop	r16
    2a80:	ff 90       	pop	r15
    2a82:	ef 90       	pop	r14
    2a84:	08 95       	ret
    2a86:	80 91 98 04 	lds	r24, 0x0498
    2a8a:	88 23       	and	r24, r24
    2a8c:	99 f1       	breq	.+102    	;  0x2af4
    2a8e:	40 91 0a 01 	lds	r20, 0x010A
    2a92:	50 91 0b 01 	lds	r21, 0x010B
    2a96:	60 91 0c 01 	lds	r22, 0x010C
    2a9a:	70 91 0d 01 	lds	r23, 0x010D
    2a9e:	80 91 96 04 	lds	r24, 0x0496
    2aa2:	90 91 97 04 	lds	r25, 0x0497
    2aa6:	26 e9       	ldi	r18, 0x96	; 150
    2aa8:	32 e0       	ldi	r19, 0x02	; 2
    2aaa:	0e 94 77 04 	call	0x8ee	;  0x8ee
    2aae:	88 23       	and	r24, r24
    2ab0:	19 f1       	breq	.+70     	;  0x2af8
    2ab2:	40 91 99 04 	lds	r20, 0x0499
    2ab6:	50 91 9a 04 	lds	r21, 0x049A
    2aba:	60 91 9b 04 	lds	r22, 0x049B
    2abe:	70 91 9c 04 	lds	r23, 0x049C
    2ac2:	41 15       	cp	r20, r1
    2ac4:	51 05       	cpc	r21, r1
    2ac6:	61 05       	cpc	r22, r1
    2ac8:	71 05       	cpc	r23, r1
    2aca:	91 f0       	breq	.+36     	;  0x2af0
    2acc:	80 91 96 04 	lds	r24, 0x0496
    2ad0:	90 91 97 04 	lds	r25, 0x0497
    2ad4:	26 e9       	ldi	r18, 0x96	; 150
    2ad6:	32 e0       	ldi	r19, 0x02	; 2
    2ad8:	0e 94 77 04 	call	0x8ee	;  0x8ee
    2adc:	88 23       	and	r24, r24
    2ade:	61 f0       	breq	.+24     	;  0x2af8
    2ae0:	10 92 99 04 	sts	0x0499, r1
    2ae4:	10 92 9a 04 	sts	0x049A, r1
    2ae8:	10 92 9b 04 	sts	0x049B, r1
    2aec:	10 92 9c 04 	sts	0x049C, r1
    2af0:	10 92 98 04 	sts	0x0498, r1
    2af4:	81 e0       	ldi	r24, 0x01	; 1
    2af6:	08 95       	ret
    2af8:	80 e0       	ldi	r24, 0x00	; 0
    2afa:	08 95       	ret
    2afc:	ef 92       	push	r14
    2afe:	ff 92       	push	r15
    2b00:	0f 93       	push	r16
    2b02:	1f 93       	push	r17
    2b04:	7b 01       	movw	r14, r22
    2b06:	8c 01       	movw	r16, r24
    2b08:	0e 94 43 15 	call	0x2a86	;  0x2a86
    2b0c:	88 23       	and	r24, r24
    2b0e:	a9 f0       	breq	.+42     	;  0x2b3a
    2b10:	e6 e9       	ldi	r30, 0x96	; 150
    2b12:	f2 e0       	ldi	r31, 0x02	; 2
    2b14:	11 92       	st	Z+, r1
    2b16:	84 e0       	ldi	r24, 0x04	; 4
    2b18:	e6 39       	cpi	r30, 0x96	; 150
    2b1a:	f8 07       	cpc	r31, r24
    2b1c:	d9 f7       	brne	.-10     	;  0x2b14
    2b1e:	e0 92 0a 01 	sts	0x010A, r14
    2b22:	f0 92 0b 01 	sts	0x010B, r15
    2b26:	00 93 0c 01 	sts	0x010C, r16
    2b2a:	10 93 0d 01 	sts	0x010D, r17
    2b2e:	80 91 98 04 	lds	r24, 0x0498
    2b32:	81 60       	ori	r24, 0x01	; 1
    2b34:	80 93 98 04 	sts	0x0498, r24
    2b38:	81 e0       	ldi	r24, 0x01	; 1
    2b3a:	1f 91       	pop	r17
    2b3c:	0f 91       	pop	r16
    2b3e:	ff 90       	pop	r15
    2b40:	ef 90       	pop	r14
    2b42:	08 95       	ret
    2b44:	df 92       	push	r13
    2b46:	ef 92       	push	r14
    2b48:	ff 92       	push	r15
    2b4a:	0f 93       	push	r16
    2b4c:	1f 93       	push	r17
    2b4e:	7b 01       	movw	r14, r22
    2b50:	8c 01       	movw	r16, r24
    2b52:	d4 2e       	mov	r13, r20
    2b54:	80 91 0a 01 	lds	r24, 0x010A
    2b58:	90 91 0b 01 	lds	r25, 0x010B
    2b5c:	a0 91 0c 01 	lds	r26, 0x010C
    2b60:	b0 91 0d 01 	lds	r27, 0x010D
    2b64:	8e 15       	cp	r24, r14
    2b66:	9f 05       	cpc	r25, r15
    2b68:	a0 07       	cpc	r26, r16
    2b6a:	b1 07       	cpc	r27, r17
    2b6c:	c1 f0       	breq	.+48     	;  0x2b9e
    2b6e:	0e 94 43 15 	call	0x2a86	;  0x2a86
    2b72:	88 23       	and	r24, r24
    2b74:	d9 f0       	breq	.+54     	;  0x2bac
    2b76:	80 91 96 04 	lds	r24, 0x0496
    2b7a:	90 91 97 04 	lds	r25, 0x0497
    2b7e:	b8 01       	movw	r22, r16
    2b80:	a7 01       	movw	r20, r14
    2b82:	26 e9       	ldi	r18, 0x96	; 150
    2b84:	32 e0       	ldi	r19, 0x02	; 2
    2b86:	0e 94 5d 06 	call	0xcba	;  0xcba
    2b8a:	88 23       	and	r24, r24
    2b8c:	79 f0       	breq	.+30     	;  0x2bac
    2b8e:	e0 92 0a 01 	sts	0x010A, r14
    2b92:	f0 92 0b 01 	sts	0x010B, r15
    2b96:	00 93 0c 01 	sts	0x010C, r16
    2b9a:	10 93 0d 01 	sts	0x010D, r17
    2b9e:	80 91 98 04 	lds	r24, 0x0498
    2ba2:	8d 29       	or	r24, r13
    2ba4:	80 93 98 04 	sts	0x0498, r24
    2ba8:	81 e0       	ldi	r24, 0x01	; 1
    2baa:	01 c0       	rjmp	.+2      	;  0x2bae
    2bac:	80 e0       	ldi	r24, 0x00	; 0
    2bae:	1f 91       	pop	r17
    2bb0:	0f 91       	pop	r16
    2bb2:	ff 90       	pop	r15
    2bb4:	ef 90       	pop	r14
    2bb6:	df 90       	pop	r13
    2bb8:	08 95       	ret
    2bba:	8f 92       	push	r8
    2bbc:	9f 92       	push	r9
    2bbe:	af 92       	push	r10
    2bc0:	bf 92       	push	r11
    2bc2:	cf 92       	push	r12
    2bc4:	df 92       	push	r13
    2bc6:	ef 92       	push	r14
    2bc8:	ff 92       	push	r15
    2bca:	0f 93       	push	r16
    2bcc:	1f 93       	push	r17
    2bce:	cf 93       	push	r28
    2bd0:	df 93       	push	r29
    2bd2:	6c 01       	movw	r12, r24
    2bd4:	14 2f       	mov	r17, r20
    2bd6:	70 93 97 04 	sts	0x0497, r23
    2bda:	60 93 96 04 	sts	0x0496, r22
    2bde:	44 23       	and	r20, r20
    2be0:	21 f4       	brne	.+8      	;  0x2bea
    2be2:	88 24       	eor	r8, r8
    2be4:	99 24       	eor	r9, r9
    2be6:	54 01       	movw	r10, r8
    2be8:	40 c0       	rjmp	.+128    	;  0x2c6a
    2bea:	45 30       	cpi	r20, 0x05	; 5
    2bec:	08 f0       	brcs	.+2      	;  0x2bf0
    2bee:	1c c1       	rjmp	.+568    	;  0x2e28
    2bf0:	60 e0       	ldi	r22, 0x00	; 0
    2bf2:	70 e0       	ldi	r23, 0x00	; 0
    2bf4:	80 e0       	ldi	r24, 0x00	; 0
    2bf6:	90 e0       	ldi	r25, 0x00	; 0
    2bf8:	40 e0       	ldi	r20, 0x00	; 0
    2bfa:	0e 94 a2 15 	call	0x2b44	;  0x2b44
    2bfe:	88 23       	and	r24, r24
    2c00:	09 f4       	brne	.+2      	;  0x2c04
    2c02:	12 c1       	rjmp	.+548    	;  0x2e28
    2c04:	c1 2f       	mov	r28, r17
    2c06:	d0 e0       	ldi	r29, 0x00	; 0
    2c08:	21 97       	sbiw	r28, 0x01	; 1
    2c0a:	fe 01       	movw	r30, r28
    2c0c:	74 e0       	ldi	r23, 0x04	; 4
    2c0e:	ee 0f       	add	r30, r30
    2c10:	ff 1f       	adc	r31, r31
    2c12:	7a 95       	dec	r23
    2c14:	e1 f7       	brne	.-8      	;  0x2c0e
    2c16:	ea 56       	subi	r30, 0x6A	; 106
    2c18:	fd 4f       	sbci	r31, 0xFD	; 253
    2c1a:	e2 54       	subi	r30, 0x42	; 66
    2c1c:	fe 4f       	sbci	r31, 0xFE	; 254
    2c1e:	80 81       	ld	r24, Z
    2c20:	ee 5b       	subi	r30, 0xBE	; 190
    2c22:	f1 40       	sbci	r31, 0x01	; 1
    2c24:	90 e0       	ldi	r25, 0x00	; 0
    2c26:	8f 77       	andi	r24, 0x7F	; 127
    2c28:	90 70       	andi	r25, 0x00	; 0
    2c2a:	89 2b       	or	r24, r25
    2c2c:	09 f0       	breq	.+2      	;  0x2c30
    2c2e:	fc c0       	rjmp	.+504    	;  0x2e28
    2c30:	e6 53       	subi	r30, 0x36	; 54
    2c32:	fe 4f       	sbci	r31, 0xFE	; 254
    2c34:	80 81       	ld	r24, Z
    2c36:	91 81       	ldd	r25, Z+1	; 0x01
    2c38:	a2 81       	ldd	r26, Z+2	; 0x02
    2c3a:	b3 81       	ldd	r27, Z+3	; 0x03
    2c3c:	84 36       	cpi	r24, 0x64	; 100
    2c3e:	91 05       	cpc	r25, r1
    2c40:	a1 05       	cpc	r26, r1
    2c42:	b1 05       	cpc	r27, r1
    2c44:	08 f4       	brcc	.+2      	;  0x2c48
    2c46:	f0 c0       	rjmp	.+480    	;  0x2e28
    2c48:	64 e0       	ldi	r22, 0x04	; 4
    2c4a:	cc 0f       	add	r28, r28
    2c4c:	dd 1f       	adc	r29, r29
    2c4e:	6a 95       	dec	r22
    2c50:	e1 f7       	brne	.-8      	;  0x2c4a
    2c52:	c4 5a       	subi	r28, 0xA4	; 164
    2c54:	db 4f       	sbci	r29, 0xFB	; 251
    2c56:	88 80       	ld	r8, Y
    2c58:	99 80       	ldd	r9, Y+1	; 0x01
    2c5a:	aa 80       	ldd	r10, Y+2	; 0x02
    2c5c:	bb 80       	ldd	r11, Y+3	; 0x03
    2c5e:	81 14       	cp	r8, r1
    2c60:	91 04       	cpc	r9, r1
    2c62:	a1 04       	cpc	r10, r1
    2c64:	b1 04       	cpc	r11, r1
    2c66:	09 f4       	brne	.+2      	;  0x2c6a
    2c68:	df c0       	rjmp	.+446    	;  0x2e28
    2c6a:	c5 01       	movw	r24, r10
    2c6c:	b4 01       	movw	r22, r8
    2c6e:	40 e0       	ldi	r20, 0x00	; 0
    2c70:	0e 94 a2 15 	call	0x2b44	;  0x2b44
    2c74:	88 23       	and	r24, r24
    2c76:	09 f4       	brne	.+2      	;  0x2c7a
    2c78:	d7 c0       	rjmp	.+430    	;  0x2e28
    2c7a:	80 91 a1 02 	lds	r24, 0x02A1
    2c7e:	90 91 a2 02 	lds	r25, 0x02A2
    2c82:	80 50       	subi	r24, 0x00	; 0
    2c84:	92 40       	sbci	r25, 0x02	; 2
    2c86:	09 f0       	breq	.+2      	;  0x2c8a
    2c88:	cf c0       	rjmp	.+414    	;  0x2e28
    2c8a:	20 91 a6 02 	lds	r18, 0x02A6
    2c8e:	22 23       	and	r18, r18
    2c90:	09 f4       	brne	.+2      	;  0x2c94
    2c92:	ca c0       	rjmp	.+404    	;  0x2e28
    2c94:	80 91 a4 02 	lds	r24, 0x02A4
    2c98:	90 91 a5 02 	lds	r25, 0x02A5
    2c9c:	89 2b       	or	r24, r25
    2c9e:	09 f4       	brne	.+2      	;  0x2ca2
    2ca0:	c3 c0       	rjmp	.+390    	;  0x2e28
    2ca2:	80 91 a3 02 	lds	r24, 0x02A3
    2ca6:	88 23       	and	r24, r24
    2ca8:	09 f4       	brne	.+2      	;  0x2cac
    2caa:	be c0       	rjmp	.+380    	;  0x2e28
    2cac:	f6 01       	movw	r30, r12
    2cae:	22 8b       	std	Z+18, r18	; 0x12
    2cb0:	80 91 a3 02 	lds	r24, 0x02A3
    2cb4:	84 83       	std	Z+4, r24	; 0x04
    2cb6:	15 86       	std	Z+13, r1	; 0x0d
    2cb8:	61 e0       	ldi	r22, 0x01	; 1
    2cba:	70 e0       	ldi	r23, 0x00	; 0
    2cbc:	07 c0       	rjmp	.+14     	;  0x2ccc
    2cbe:	4f 5f       	subi	r20, 0xFF	; 255
    2cc0:	f6 01       	movw	r30, r12
    2cc2:	45 87       	std	Z+13, r20	; 0x0d
    2cc4:	41 50       	subi	r20, 0x01	; 1
    2cc6:	48 30       	cpi	r20, 0x08	; 8
    2cc8:	08 f0       	brcs	.+2      	;  0x2ccc
    2cca:	ae c0       	rjmp	.+348    	;  0x2e28
    2ccc:	f6 01       	movw	r30, r12
    2cce:	45 85       	ldd	r20, Z+13	; 0x0d
    2cd0:	84 81       	ldd	r24, Z+4	; 0x04
    2cd2:	90 e0       	ldi	r25, 0x00	; 0
    2cd4:	9b 01       	movw	r18, r22
    2cd6:	04 2e       	mov	r0, r20
    2cd8:	02 c0       	rjmp	.+4      	;  0x2cde
    2cda:	22 0f       	add	r18, r18
    2cdc:	33 1f       	adc	r19, r19
    2cde:	0a 94       	dec	r0
    2ce0:	e2 f7       	brpl	.-8      	;  0x2cda
    2ce2:	82 17       	cp	r24, r18
    2ce4:	93 07       	cpc	r25, r19
    2ce6:	59 f7       	brne	.-42     	;  0x2cbe
    2ce8:	20 91 ac 02 	lds	r18, 0x02AC
    2cec:	30 91 ad 02 	lds	r19, 0x02AD
    2cf0:	21 15       	cp	r18, r1
    2cf2:	31 05       	cpc	r19, r1
    2cf4:	19 f0       	breq	.+6      	;  0x2cfc
    2cf6:	40 e0       	ldi	r20, 0x00	; 0
    2cf8:	50 e0       	ldi	r21, 0x00	; 0
    2cfa:	08 c0       	rjmp	.+16     	;  0x2d0c
    2cfc:	20 91 ba 02 	lds	r18, 0x02BA
    2d00:	30 91 bb 02 	lds	r19, 0x02BB
    2d04:	40 91 bc 02 	lds	r20, 0x02BC
    2d08:	50 91 bd 02 	lds	r21, 0x02BD
    2d0c:	f6 01       	movw	r30, r12
    2d0e:	25 83       	std	Z+5, r18	; 0x05
    2d10:	36 83       	std	Z+6, r19	; 0x06
    2d12:	47 83       	std	Z+7, r20	; 0x07
    2d14:	50 87       	std	Z+8, r21	; 0x08
    2d16:	e0 90 a4 02 	lds	r14, 0x02A4
    2d1a:	f0 90 a5 02 	lds	r15, 0x02A5
    2d1e:	00 e0       	ldi	r16, 0x00	; 0
    2d20:	10 e0       	ldi	r17, 0x00	; 0
    2d22:	e8 0c       	add	r14, r8
    2d24:	f9 1c       	adc	r15, r9
    2d26:	0a 1d       	adc	r16, r10
    2d28:	1b 1d       	adc	r17, r11
    2d2a:	e3 8a       	std	Z+19, r14	; 0x13
    2d2c:	f4 8a       	std	Z+20, r15	; 0x14
    2d2e:	05 8b       	std	Z+21, r16	; 0x15
    2d30:	16 8b       	std	Z+22, r17	; 0x16
    2d32:	80 91 a7 02 	lds	r24, 0x02A7
    2d36:	90 91 a8 02 	lds	r25, 0x02A8
    2d3a:	91 8f       	std	Z+25, r25	; 0x19
    2d3c:	80 8f       	std	Z+24, r24	; 0x18
    2d3e:	60 91 a6 02 	lds	r22, 0x02A6
    2d42:	70 e0       	ldi	r23, 0x00	; 0
    2d44:	80 e0       	ldi	r24, 0x00	; 0
    2d46:	90 e0       	ldi	r25, 0x00	; 0
    2d48:	0e 94 83 30 	call	0x6106	;  0x6106
    2d4c:	6e 0d       	add	r22, r14
    2d4e:	7f 1d       	adc	r23, r15
    2d50:	80 1f       	adc	r24, r16
    2d52:	91 1f       	adc	r25, r17
    2d54:	f6 01       	movw	r30, r12
    2d56:	62 8f       	std	Z+26, r22	; 0x1a
    2d58:	73 8f       	std	Z+27, r23	; 0x1b
    2d5a:	84 8f       	std	Z+28, r24	; 0x1c
    2d5c:	95 8f       	std	Z+29, r25	; 0x1d
    2d5e:	20 91 a7 02 	lds	r18, 0x02A7
    2d62:	30 91 a8 02 	lds	r19, 0x02A8
    2d66:	55 e0       	ldi	r21, 0x05	; 5
    2d68:	22 0f       	add	r18, r18
    2d6a:	33 1f       	adc	r19, r19
    2d6c:	5a 95       	dec	r21
    2d6e:	e1 f7       	brne	.-8      	;  0x2d68
    2d70:	21 50       	subi	r18, 0x01	; 1
    2d72:	3e 4f       	sbci	r19, 0xFE	; 254
    2d74:	23 2f       	mov	r18, r19
    2d76:	33 27       	eor	r19, r19
    2d78:	26 95       	lsr	r18
    2d7a:	40 e0       	ldi	r20, 0x00	; 0
    2d7c:	50 e0       	ldi	r21, 0x00	; 0
    2d7e:	26 0f       	add	r18, r22
    2d80:	37 1f       	adc	r19, r23
    2d82:	48 1f       	adc	r20, r24
    2d84:	59 1f       	adc	r21, r25
    2d86:	26 87       	std	Z+14, r18	; 0x0e
    2d88:	37 87       	std	Z+15, r19	; 0x0f
    2d8a:	40 8b       	std	Z+16, r20	; 0x10
    2d8c:	51 8b       	std	Z+17, r21	; 0x11
    2d8e:	80 91 a9 02 	lds	r24, 0x02A9
    2d92:	90 91 aa 02 	lds	r25, 0x02AA
    2d96:	00 97       	sbiw	r24, 0x00	; 0
    2d98:	19 f0       	breq	.+6      	;  0x2da0
    2d9a:	a0 e0       	ldi	r26, 0x00	; 0
    2d9c:	b0 e0       	ldi	r27, 0x00	; 0
    2d9e:	08 c0       	rjmp	.+16     	;  0x2db0
    2da0:	80 91 b6 02 	lds	r24, 0x02B6
    2da4:	90 91 b7 02 	lds	r25, 0x02B7
    2da8:	a0 91 b8 02 	lds	r26, 0x02B8
    2dac:	b0 91 b9 02 	lds	r27, 0x02B9
    2db0:	85 01       	movw	r16, r10
    2db2:	74 01       	movw	r14, r8
    2db4:	e2 1a       	sub	r14, r18
    2db6:	f3 0a       	sbc	r15, r19
    2db8:	04 0b       	sbc	r16, r20
    2dba:	15 0b       	sbc	r17, r21
    2dbc:	a8 01       	movw	r20, r16
    2dbe:	97 01       	movw	r18, r14
    2dc0:	28 0f       	add	r18, r24
    2dc2:	39 1f       	adc	r19, r25
    2dc4:	4a 1f       	adc	r20, r26
    2dc6:	5b 1f       	adc	r21, r27
    2dc8:	f6 01       	movw	r30, r12
    2dca:	05 84       	ldd	r0, Z+13	; 0x0d
    2dcc:	04 c0       	rjmp	.+8      	;  0x2dd6
    2dce:	56 95       	lsr	r21
    2dd0:	47 95       	ror	r20
    2dd2:	37 95       	ror	r19
    2dd4:	27 95       	ror	r18
    2dd6:	0a 94       	dec	r0
    2dd8:	d2 f7       	brpl	.-12     	;  0x2dce
    2dda:	21 87       	std	Z+9, r18	; 0x09
    2ddc:	32 87       	std	Z+10, r19	; 0x0a
    2dde:	43 87       	std	Z+11, r20	; 0x0b
    2de0:	54 87       	std	Z+12, r21	; 0x0c
    2de2:	25 3f       	cpi	r18, 0xF5	; 245
    2de4:	ff e0       	ldi	r31, 0x0F	; 15
    2de6:	3f 07       	cpc	r19, r31
    2de8:	f0 e0       	ldi	r31, 0x00	; 0
    2dea:	4f 07       	cpc	r20, r31
    2dec:	f0 e0       	ldi	r31, 0x00	; 0
    2dee:	5f 07       	cpc	r21, r31
    2df0:	10 f4       	brcc	.+4      	;  0x2df6
    2df2:	8c e0       	ldi	r24, 0x0C	; 12
    2df4:	06 c0       	rjmp	.+12     	;  0x2e02
    2df6:	25 5f       	subi	r18, 0xF5	; 245
    2df8:	3f 4f       	sbci	r19, 0xFF	; 255
    2dfa:	40 40       	sbci	r20, 0x00	; 0
    2dfc:	50 40       	sbci	r21, 0x00	; 0
    2dfe:	28 f4       	brcc	.+10     	;  0x2e0a
    2e00:	80 e1       	ldi	r24, 0x10	; 16
    2e02:	f6 01       	movw	r30, r12
    2e04:	87 8b       	std	Z+23, r24	; 0x17
    2e06:	81 e0       	ldi	r24, 0x01	; 1
    2e08:	10 c0       	rjmp	.+32     	;  0x2e2a
    2e0a:	80 91 c2 02 	lds	r24, 0x02C2
    2e0e:	90 91 c3 02 	lds	r25, 0x02C3
    2e12:	a0 91 c4 02 	lds	r26, 0x02C4
    2e16:	b0 91 c5 02 	lds	r27, 0x02C5
    2e1a:	f6 01       	movw	r30, r12
    2e1c:	82 8f       	std	Z+26, r24	; 0x1a
    2e1e:	93 8f       	std	Z+27, r25	; 0x1b
    2e20:	a4 8f       	std	Z+28, r26	; 0x1c
    2e22:	b5 8f       	std	Z+29, r27	; 0x1d
    2e24:	80 e2       	ldi	r24, 0x20	; 32
    2e26:	ee cf       	rjmp	.-36     	;  0x2e04
    2e28:	80 e0       	ldi	r24, 0x00	; 0
    2e2a:	df 91       	pop	r29
    2e2c:	cf 91       	pop	r28
    2e2e:	1f 91       	pop	r17
    2e30:	0f 91       	pop	r16
    2e32:	ff 90       	pop	r15
    2e34:	ef 90       	pop	r14
    2e36:	df 90       	pop	r13
    2e38:	cf 90       	pop	r12
    2e3a:	bf 90       	pop	r11
    2e3c:	af 90       	pop	r10
    2e3e:	9f 90       	pop	r9
    2e40:	8f 90       	pop	r8
    2e42:	08 95       	ret
    2e44:	4f 92       	push	r4
    2e46:	5f 92       	push	r5
    2e48:	6f 92       	push	r6
    2e4a:	7f 92       	push	r7
    2e4c:	8f 92       	push	r8
    2e4e:	9f 92       	push	r9
    2e50:	af 92       	push	r10
    2e52:	bf 92       	push	r11
    2e54:	cf 92       	push	r12
    2e56:	df 92       	push	r13
    2e58:	ef 92       	push	r14
    2e5a:	ff 92       	push	r15
    2e5c:	0f 93       	push	r16
    2e5e:	1f 93       	push	r17
    2e60:	cf 93       	push	r28
    2e62:	df 93       	push	r29
    2e64:	ec 01       	movw	r28, r24
    2e66:	6a 01       	movw	r12, r20
    2e68:	7b 01       	movw	r14, r22
    2e6a:	28 01       	movw	r4, r16
    2e6c:	39 01       	movw	r6, r18
    2e6e:	42 30       	cpi	r20, 0x02	; 2
    2e70:	51 05       	cpc	r21, r1
    2e72:	61 05       	cpc	r22, r1
    2e74:	71 05       	cpc	r23, r1
    2e76:	08 f4       	brcc	.+2      	;  0x2e7a
    2e78:	6f c0       	rjmp	.+222    	;  0x2f58
    2e7a:	89 85       	ldd	r24, Y+9	; 0x09
    2e7c:	9a 85       	ldd	r25, Y+10	; 0x0a
    2e7e:	ab 85       	ldd	r26, Y+11	; 0x0b
    2e80:	bc 85       	ldd	r27, Y+12	; 0x0c
    2e82:	01 96       	adiw	r24, 0x01	; 1
    2e84:	a1 1d       	adc	r26, r1
    2e86:	b1 1d       	adc	r27, r1
    2e88:	84 17       	cp	r24, r20
    2e8a:	95 07       	cpc	r25, r21
    2e8c:	a6 07       	cpc	r26, r22
    2e8e:	b7 07       	cpc	r27, r23
    2e90:	08 f4       	brcc	.+2      	;  0x2e94
    2e92:	62 c0       	rjmp	.+196    	;  0x2f58
    2e94:	2b 89       	ldd	r18, Y+19	; 0x13
    2e96:	3c 89       	ldd	r19, Y+20	; 0x14
    2e98:	4d 89       	ldd	r20, Y+21	; 0x15
    2e9a:	5e 89       	ldd	r21, Y+22	; 0x16
    2e9c:	8f 89       	ldd	r24, Y+23	; 0x17
    2e9e:	80 31       	cpi	r24, 0x10	; 16
    2ea0:	29 f4       	brne	.+10     	;  0x2eac
    2ea2:	99 27       	eor	r25, r25
    2ea4:	8f 2d       	mov	r24, r15
    2ea6:	7e 2d       	mov	r23, r14
    2ea8:	6d 2d       	mov	r22, r13
    2eaa:	09 c0       	rjmp	.+18     	;  0x2ebe
    2eac:	c7 01       	movw	r24, r14
    2eae:	b6 01       	movw	r22, r12
    2eb0:	17 e0       	ldi	r17, 0x07	; 7
    2eb2:	96 95       	lsr	r25
    2eb4:	87 95       	ror	r24
    2eb6:	77 95       	ror	r23
    2eb8:	67 95       	ror	r22
    2eba:	1a 95       	dec	r17
    2ebc:	d1 f7       	brne	.-12     	;  0x2eb2
    2ebe:	4b 01       	movw	r8, r22
    2ec0:	5c 01       	movw	r10, r24
    2ec2:	82 0e       	add	r8, r18
    2ec4:	93 1e       	adc	r9, r19
    2ec6:	a4 1e       	adc	r10, r20
    2ec8:	b5 1e       	adc	r11, r21
    2eca:	80 91 0a 01 	lds	r24, 0x010A
    2ece:	90 91 0b 01 	lds	r25, 0x010B
    2ed2:	a0 91 0c 01 	lds	r26, 0x010C
    2ed6:	b0 91 0d 01 	lds	r27, 0x010D
    2eda:	88 16       	cp	r8, r24
    2edc:	99 06       	cpc	r9, r25
    2ede:	aa 06       	cpc	r10, r26
    2ee0:	bb 06       	cpc	r11, r27
    2ee2:	39 f0       	breq	.+14     	;  0x2ef2
    2ee4:	c5 01       	movw	r24, r10
    2ee6:	b4 01       	movw	r22, r8
    2ee8:	40 e0       	ldi	r20, 0x00	; 0
    2eea:	0e 94 a2 15 	call	0x2b44	;  0x2b44
    2eee:	88 23       	and	r24, r24
    2ef0:	99 f1       	breq	.+102    	;  0x2f58
    2ef2:	8f 89       	ldd	r24, Y+23	; 0x17
    2ef4:	80 31       	cpi	r24, 0x10	; 16
    2ef6:	49 f4       	brne	.+18     	;  0x2f0a
    2ef8:	f6 01       	movw	r30, r12
    2efa:	f0 70       	andi	r31, 0x00	; 0
    2efc:	ee 0f       	add	r30, r30
    2efe:	ff 1f       	adc	r31, r31
    2f00:	ea 56       	subi	r30, 0x6A	; 106
    2f02:	fd 4f       	sbci	r31, 0xFD	; 253
    2f04:	51 82       	std	Z+1, r5	; 0x01
    2f06:	40 82       	st	Z, r4
    2f08:	0d c0       	rjmp	.+26     	;  0x2f24
    2f0a:	f6 01       	movw	r30, r12
    2f0c:	ef 77       	andi	r30, 0x7F	; 127
    2f0e:	f0 70       	andi	r31, 0x00	; 0
    2f10:	ee 0f       	add	r30, r30
    2f12:	ff 1f       	adc	r31, r31
    2f14:	ee 0f       	add	r30, r30
    2f16:	ff 1f       	adc	r31, r31
    2f18:	ea 56       	subi	r30, 0x6A	; 106
    2f1a:	fd 4f       	sbci	r31, 0xFD	; 253
    2f1c:	40 82       	st	Z, r4
    2f1e:	51 82       	std	Z+1, r5	; 0x01
    2f20:	62 82       	std	Z+2, r6	; 0x02
    2f22:	73 82       	std	Z+3, r7	; 0x03
    2f24:	80 91 98 04 	lds	r24, 0x0498
    2f28:	81 60       	ori	r24, 0x01	; 1
    2f2a:	80 93 98 04 	sts	0x0498, r24
    2f2e:	8a 89       	ldd	r24, Y+18	; 0x12
    2f30:	82 30       	cpi	r24, 0x02	; 2
    2f32:	80 f0       	brcs	.+32     	;  0x2f54
    2f34:	8d 81       	ldd	r24, Y+5	; 0x05
    2f36:	9e 81       	ldd	r25, Y+6	; 0x06
    2f38:	af 81       	ldd	r26, Y+7	; 0x07
    2f3a:	b8 85       	ldd	r27, Y+8	; 0x08
    2f3c:	88 0e       	add	r8, r24
    2f3e:	99 1e       	adc	r9, r25
    2f40:	aa 1e       	adc	r10, r26
    2f42:	bb 1e       	adc	r11, r27
    2f44:	80 92 99 04 	sts	0x0499, r8
    2f48:	90 92 9a 04 	sts	0x049A, r9
    2f4c:	a0 92 9b 04 	sts	0x049B, r10
    2f50:	b0 92 9c 04 	sts	0x049C, r11
    2f54:	81 e0       	ldi	r24, 0x01	; 1
    2f56:	01 c0       	rjmp	.+2      	;  0x2f5a
    2f58:	80 e0       	ldi	r24, 0x00	; 0
    2f5a:	df 91       	pop	r29
    2f5c:	cf 91       	pop	r28
    2f5e:	1f 91       	pop	r17
    2f60:	0f 91       	pop	r16
    2f62:	ff 90       	pop	r15
    2f64:	ef 90       	pop	r14
    2f66:	df 90       	pop	r13
    2f68:	cf 90       	pop	r12
    2f6a:	bf 90       	pop	r11
    2f6c:	af 90       	pop	r10
    2f6e:	9f 90       	pop	r9
    2f70:	8f 90       	pop	r8
    2f72:	7f 90       	pop	r7
    2f74:	6f 90       	pop	r6
    2f76:	5f 90       	pop	r5
    2f78:	4f 90       	pop	r4
    2f7a:	08 95       	ret
    2f7c:	cf 92       	push	r12
    2f7e:	df 92       	push	r13
    2f80:	ef 92       	push	r14
    2f82:	ff 92       	push	r15
    2f84:	0f 93       	push	r16
    2f86:	1f 93       	push	r17
    2f88:	cf 93       	push	r28
    2f8a:	df 93       	push	r29
    2f8c:	ec 01       	movw	r28, r24
    2f8e:	7a 01       	movw	r14, r20
    2f90:	8b 01       	movw	r16, r22
    2f92:	69 01       	movw	r12, r18
    2f94:	89 85       	ldd	r24, Y+9	; 0x09
    2f96:	9a 85       	ldd	r25, Y+10	; 0x0a
    2f98:	ab 85       	ldd	r26, Y+11	; 0x0b
    2f9a:	bc 85       	ldd	r27, Y+12	; 0x0c
    2f9c:	01 96       	adiw	r24, 0x01	; 1
    2f9e:	a1 1d       	adc	r26, r1
    2fa0:	b1 1d       	adc	r27, r1
    2fa2:	84 17       	cp	r24, r20
    2fa4:	95 07       	cpc	r25, r21
    2fa6:	a6 07       	cpc	r26, r22
    2fa8:	b7 07       	cpc	r27, r23
    2faa:	08 f4       	brcc	.+2      	;  0x2fae
    2fac:	50 c0       	rjmp	.+160    	;  0x304e
    2fae:	2b 89       	ldd	r18, Y+19	; 0x13
    2fb0:	3c 89       	ldd	r19, Y+20	; 0x14
    2fb2:	4d 89       	ldd	r20, Y+21	; 0x15
    2fb4:	5e 89       	ldd	r21, Y+22	; 0x16
    2fb6:	8f 89       	ldd	r24, Y+23	; 0x17
    2fb8:	80 31       	cpi	r24, 0x10	; 16
    2fba:	29 f4       	brne	.+10     	;  0x2fc6
    2fbc:	99 27       	eor	r25, r25
    2fbe:	81 2f       	mov	r24, r17
    2fc0:	70 2f       	mov	r23, r16
    2fc2:	6f 2d       	mov	r22, r15
    2fc4:	09 c0       	rjmp	.+18     	;  0x2fd8
    2fc6:	c8 01       	movw	r24, r16
    2fc8:	b7 01       	movw	r22, r14
    2fca:	e7 e0       	ldi	r30, 0x07	; 7
    2fcc:	96 95       	lsr	r25
    2fce:	87 95       	ror	r24
    2fd0:	77 95       	ror	r23
    2fd2:	67 95       	ror	r22
    2fd4:	ea 95       	dec	r30
    2fd6:	d1 f7       	brne	.-12     	;  0x2fcc
    2fd8:	26 0f       	add	r18, r22
    2fda:	37 1f       	adc	r19, r23
    2fdc:	48 1f       	adc	r20, r24
    2fde:	59 1f       	adc	r21, r25
    2fe0:	80 91 0a 01 	lds	r24, 0x010A
    2fe4:	90 91 0b 01 	lds	r25, 0x010B
    2fe8:	a0 91 0c 01 	lds	r26, 0x010C
    2fec:	b0 91 0d 01 	lds	r27, 0x010D
    2ff0:	28 17       	cp	r18, r24
    2ff2:	39 07       	cpc	r19, r25
    2ff4:	4a 07       	cpc	r20, r26
    2ff6:	5b 07       	cpc	r21, r27
    2ff8:	39 f0       	breq	.+14     	;  0x3008
    2ffa:	ca 01       	movw	r24, r20
    2ffc:	b9 01       	movw	r22, r18
    2ffe:	40 e0       	ldi	r20, 0x00	; 0
    3000:	0e 94 a2 15 	call	0x2b44	;  0x2b44
    3004:	88 23       	and	r24, r24
    3006:	19 f1       	breq	.+70     	;  0x304e
    3008:	8f 89       	ldd	r24, Y+23	; 0x17
    300a:	80 31       	cpi	r24, 0x10	; 16
    300c:	59 f4       	brne	.+22     	;  0x3024
    300e:	f7 01       	movw	r30, r14
    3010:	f0 70       	andi	r31, 0x00	; 0
    3012:	ee 0f       	add	r30, r30
    3014:	ff 1f       	adc	r31, r31
    3016:	ea 56       	subi	r30, 0x6A	; 106
    3018:	fd 4f       	sbci	r31, 0xFD	; 253
    301a:	80 81       	ld	r24, Z
    301c:	91 81       	ldd	r25, Z+1	; 0x01
    301e:	a0 e0       	ldi	r26, 0x00	; 0
    3020:	b0 e0       	ldi	r27, 0x00	; 0
    3022:	0e c0       	rjmp	.+28     	;  0x3040
    3024:	f7 01       	movw	r30, r14
    3026:	ef 77       	andi	r30, 0x7F	; 127
    3028:	f0 70       	andi	r31, 0x00	; 0
    302a:	ee 0f       	add	r30, r30
    302c:	ff 1f       	adc	r31, r31
    302e:	ee 0f       	add	r30, r30
    3030:	ff 1f       	adc	r31, r31
    3032:	ea 56       	subi	r30, 0x6A	; 106
    3034:	fd 4f       	sbci	r31, 0xFD	; 253
    3036:	80 81       	ld	r24, Z
    3038:	91 81       	ldd	r25, Z+1	; 0x01
    303a:	a2 81       	ldd	r26, Z+2	; 0x02
    303c:	b3 81       	ldd	r27, Z+3	; 0x03
    303e:	bf 70       	andi	r27, 0x0F	; 15
    3040:	f6 01       	movw	r30, r12
    3042:	80 83       	st	Z, r24
    3044:	91 83       	std	Z+1, r25	; 0x01
    3046:	a2 83       	std	Z+2, r26	; 0x02
    3048:	b3 83       	std	Z+3, r27	; 0x03
    304a:	81 e0       	ldi	r24, 0x01	; 1
    304c:	01 c0       	rjmp	.+2      	;  0x3050
    304e:	80 e0       	ldi	r24, 0x00	; 0
    3050:	df 91       	pop	r29
    3052:	cf 91       	pop	r28
    3054:	1f 91       	pop	r17
    3056:	0f 91       	pop	r16
    3058:	ff 90       	pop	r15
    305a:	ef 90       	pop	r14
    305c:	df 90       	pop	r13
    305e:	cf 90       	pop	r12
    3060:	08 95       	ret
    3062:	af 92       	push	r10
    3064:	bf 92       	push	r11
    3066:	cf 92       	push	r12
    3068:	df 92       	push	r13
    306a:	ef 92       	push	r14
    306c:	ff 92       	push	r15
    306e:	0f 93       	push	r16
    3070:	1f 93       	push	r17
    3072:	df 93       	push	r29
    3074:	cf 93       	push	r28
    3076:	00 d0       	rcall	.+0      	;  0x3078
    3078:	00 d0       	rcall	.+0      	;  0x307a
    307a:	cd b7       	in	r28, 0x3d	; 61
    307c:	de b7       	in	r29, 0x3e	; 62
    307e:	6c 01       	movw	r12, r24
    3080:	7a 01       	movw	r14, r20
    3082:	8b 01       	movw	r16, r22
    3084:	82 e0       	ldi	r24, 0x02	; 2
    3086:	90 e0       	ldi	r25, 0x00	; 0
    3088:	a0 e0       	ldi	r26, 0x00	; 0
    308a:	b0 e0       	ldi	r27, 0x00	; 0
    308c:	f6 01       	movw	r30, r12
    308e:	80 83       	st	Z, r24
    3090:	91 83       	std	Z+1, r25	; 0x01
    3092:	a2 83       	std	Z+2, r26	; 0x02
    3094:	b3 83       	std	Z+3, r27	; 0x03
    3096:	5e 01       	movw	r10, r28
    3098:	08 94       	sec
    309a:	a1 1c       	adc	r10, r1
    309c:	b1 1c       	adc	r11, r1
    309e:	c6 01       	movw	r24, r12
    30a0:	b8 01       	movw	r22, r16
    30a2:	a7 01       	movw	r20, r14
    30a4:	95 01       	movw	r18, r10
    30a6:	0e 94 be 17 	call	0x2f7c	;  0x2f7c
    30aa:	88 23       	and	r24, r24
    30ac:	19 f1       	breq	.+70     	;  0x30f4
    30ae:	c6 01       	movw	r24, r12
    30b0:	b8 01       	movw	r22, r16
    30b2:	a7 01       	movw	r20, r14
    30b4:	00 e0       	ldi	r16, 0x00	; 0
    30b6:	10 e0       	ldi	r17, 0x00	; 0
    30b8:	20 e0       	ldi	r18, 0x00	; 0
    30ba:	30 e0       	ldi	r19, 0x00	; 0
    30bc:	0e 94 22 17 	call	0x2e44	;  0x2e44
    30c0:	88 23       	and	r24, r24
    30c2:	c1 f0       	breq	.+48     	;  0x30f4
    30c4:	e9 80       	ldd	r14, Y+1	; 0x01
    30c6:	fa 80       	ldd	r15, Y+2	; 0x02
    30c8:	0b 81       	ldd	r16, Y+3	; 0x03
    30ca:	1c 81       	ldd	r17, Y+4	; 0x04
    30cc:	f6 01       	movw	r30, r12
    30ce:	87 89       	ldd	r24, Z+23	; 0x17
    30d0:	80 31       	cpi	r24, 0x10	; 16
    30d2:	29 f0       	breq	.+10     	;  0x30de
    30d4:	88 ef       	ldi	r24, 0xF8	; 248
    30d6:	9f ef       	ldi	r25, 0xFF	; 255
    30d8:	af ef       	ldi	r26, 0xFF	; 255
    30da:	bf e0       	ldi	r27, 0x0F	; 15
    30dc:	04 c0       	rjmp	.+8      	;  0x30e6
    30de:	88 ef       	ldi	r24, 0xF8	; 248
    30e0:	9f ef       	ldi	r25, 0xFF	; 255
    30e2:	a0 e0       	ldi	r26, 0x00	; 0
    30e4:	b0 e0       	ldi	r27, 0x00	; 0
    30e6:	e8 16       	cp	r14, r24
    30e8:	f9 06       	cpc	r15, r25
    30ea:	0a 07       	cpc	r16, r26
    30ec:	1b 07       	cpc	r17, r27
    30ee:	b8 f2       	brcs	.-82     	;  0x309e
    30f0:	81 e0       	ldi	r24, 0x01	; 1
    30f2:	01 c0       	rjmp	.+2      	;  0x30f6
    30f4:	80 e0       	ldi	r24, 0x00	; 0
    30f6:	0f 90       	pop	r0
    30f8:	0f 90       	pop	r0
    30fa:	0f 90       	pop	r0
    30fc:	0f 90       	pop	r0
    30fe:	cf 91       	pop	r28
    3100:	df 91       	pop	r29
    3102:	1f 91       	pop	r17
    3104:	0f 91       	pop	r16
    3106:	ff 90       	pop	r15
    3108:	ef 90       	pop	r14
    310a:	df 90       	pop	r13
    310c:	cf 90       	pop	r12
    310e:	bf 90       	pop	r11
    3110:	af 90       	pop	r10
    3112:	08 95       	ret
    3114:	4f 92       	push	r4
    3116:	5f 92       	push	r5
    3118:	6f 92       	push	r6
    311a:	7f 92       	push	r7
    311c:	8f 92       	push	r8
    311e:	9f 92       	push	r9
    3120:	af 92       	push	r10
    3122:	bf 92       	push	r11
    3124:	cf 92       	push	r12
    3126:	df 92       	push	r13
    3128:	ef 92       	push	r14
    312a:	ff 92       	push	r15
    312c:	0f 93       	push	r16
    312e:	1f 93       	push	r17
    3130:	df 93       	push	r29
    3132:	cf 93       	push	r28
    3134:	00 d0       	rcall	.+0      	;  0x3136
    3136:	00 d0       	rcall	.+0      	;  0x3138
    3138:	cd b7       	in	r28, 0x3d	; 61
    313a:	de b7       	in	r29, 0x3e	; 62
    313c:	6c 01       	movw	r12, r24
    313e:	49 83       	std	Y+1, r20	; 0x01
    3140:	5a 83       	std	Y+2, r21	; 0x02
    3142:	6b 83       	std	Y+3, r22	; 0x03
    3144:	7c 83       	std	Y+4, r23	; 0x04
    3146:	39 01       	movw	r6, r18
    3148:	ee 24       	eor	r14, r14
    314a:	ff 24       	eor	r15, r15
    314c:	87 01       	movw	r16, r14
    314e:	2e 01       	movw	r4, r28
    3150:	08 94       	sec
    3152:	41 1c       	adc	r4, r1
    3154:	51 1c       	adc	r5, r1
    3156:	81 2c       	mov	r8, r1
    3158:	a2 e0       	ldi	r26, 0x02	; 2
    315a:	9a 2e       	mov	r9, r26
    315c:	a1 2c       	mov	r10, r1
    315e:	b1 2c       	mov	r11, r1
    3160:	49 81       	ldd	r20, Y+1	; 0x01
    3162:	5a 81       	ldd	r21, Y+2	; 0x02
    3164:	6b 81       	ldd	r22, Y+3	; 0x03
    3166:	7c 81       	ldd	r23, Y+4	; 0x04
    3168:	c6 01       	movw	r24, r12
    316a:	92 01       	movw	r18, r4
    316c:	0e 94 be 17 	call	0x2f7c	;  0x2f7c
    3170:	88 23       	and	r24, r24
    3172:	51 f1       	breq	.+84     	;  0x31c8
    3174:	d5 01       	movw	r26, r10
    3176:	c4 01       	movw	r24, r8
    3178:	f6 01       	movw	r30, r12
    317a:	05 84       	ldd	r0, Z+13	; 0x0d
    317c:	04 c0       	rjmp	.+8      	;  0x3186
    317e:	88 0f       	add	r24, r24
    3180:	99 1f       	adc	r25, r25
    3182:	aa 1f       	adc	r26, r26
    3184:	bb 1f       	adc	r27, r27
    3186:	0a 94       	dec	r0
    3188:	d2 f7       	brpl	.-12     	;  0x317e
    318a:	e8 0e       	add	r14, r24
    318c:	f9 1e       	adc	r15, r25
    318e:	0a 1f       	adc	r16, r26
    3190:	1b 1f       	adc	r17, r27
    3192:	29 81       	ldd	r18, Y+1	; 0x01
    3194:	3a 81       	ldd	r19, Y+2	; 0x02
    3196:	4b 81       	ldd	r20, Y+3	; 0x03
    3198:	5c 81       	ldd	r21, Y+4	; 0x04
    319a:	87 89       	ldd	r24, Z+23	; 0x17
    319c:	80 31       	cpi	r24, 0x10	; 16
    319e:	29 f0       	breq	.+10     	;  0x31aa
    31a0:	88 ef       	ldi	r24, 0xF8	; 248
    31a2:	9f ef       	ldi	r25, 0xFF	; 255
    31a4:	af ef       	ldi	r26, 0xFF	; 255
    31a6:	bf e0       	ldi	r27, 0x0F	; 15
    31a8:	04 c0       	rjmp	.+8      	;  0x31b2
    31aa:	88 ef       	ldi	r24, 0xF8	; 248
    31ac:	9f ef       	ldi	r25, 0xFF	; 255
    31ae:	a0 e0       	ldi	r26, 0x00	; 0
    31b0:	b0 e0       	ldi	r27, 0x00	; 0
    31b2:	28 17       	cp	r18, r24
    31b4:	39 07       	cpc	r19, r25
    31b6:	4a 07       	cpc	r20, r26
    31b8:	5b 07       	cpc	r21, r27
    31ba:	90 f2       	brcs	.-92     	;  0x3160
    31bc:	f3 01       	movw	r30, r6
    31be:	e0 82       	st	Z, r14
    31c0:	f1 82       	std	Z+1, r15	; 0x01
    31c2:	02 83       	std	Z+2, r16	; 0x02
    31c4:	13 83       	std	Z+3, r17	; 0x03
    31c6:	81 e0       	ldi	r24, 0x01	; 1
    31c8:	0f 90       	pop	r0
    31ca:	0f 90       	pop	r0
    31cc:	0f 90       	pop	r0
    31ce:	0f 90       	pop	r0
    31d0:	cf 91       	pop	r28
    31d2:	df 91       	pop	r29
    31d4:	1f 91       	pop	r17
    31d6:	0f 91       	pop	r16
    31d8:	ff 90       	pop	r15
    31da:	ef 90       	pop	r14
    31dc:	df 90       	pop	r13
    31de:	cf 90       	pop	r12
    31e0:	bf 90       	pop	r11
    31e2:	af 90       	pop	r10
    31e4:	9f 90       	pop	r9
    31e6:	8f 90       	pop	r8
    31e8:	7f 90       	pop	r7
    31ea:	6f 90       	pop	r6
    31ec:	5f 90       	pop	r5
    31ee:	4f 90       	pop	r4
    31f0:	08 95       	ret
    31f2:	2f 92       	push	r2
    31f4:	3f 92       	push	r3
    31f6:	4f 92       	push	r4
    31f8:	5f 92       	push	r5
    31fa:	6f 92       	push	r6
    31fc:	7f 92       	push	r7
    31fe:	8f 92       	push	r8
    3200:	9f 92       	push	r9
    3202:	af 92       	push	r10
    3204:	bf 92       	push	r11
    3206:	cf 92       	push	r12
    3208:	df 92       	push	r13
    320a:	ef 92       	push	r14
    320c:	ff 92       	push	r15
    320e:	0f 93       	push	r16
    3210:	1f 93       	push	r17
    3212:	df 93       	push	r29
    3214:	cf 93       	push	r28
    3216:	cd b7       	in	r28, 0x3d	; 61
    3218:	de b7       	in	r29, 0x3e	; 62
    321a:	2f 97       	sbiw	r28, 0x0f	; 15
    321c:	0f b6       	in	r0, 0x3f	; 63
    321e:	f8 94       	cli
    3220:	de bf       	out	0x3e, r29	; 62
    3222:	0f be       	out	0x3f, r0	; 63
    3224:	cd bf       	out	0x3d, r28	; 61
    3226:	1c 01       	movw	r2, r24
    3228:	4a 87       	std	Y+10, r20	; 0x0a
    322a:	5b 87       	std	Y+11, r21	; 0x0b
    322c:	6c 87       	std	Y+12, r22	; 0x0c
    322e:	7d 87       	std	Y+13, r23	; 0x0d
    3230:	3f 87       	std	Y+15, r19	; 0x0f
    3232:	2e 87       	std	Y+14, r18	; 0x0e
    3234:	d9 01       	movw	r26, r18
    3236:	0d 91       	ld	r16, X+
    3238:	1d 91       	ld	r17, X+
    323a:	2d 91       	ld	r18, X+
    323c:	3c 91       	ld	r19, X
    323e:	01 15       	cp	r16, r1
    3240:	11 05       	cpc	r17, r1
    3242:	21 05       	cpc	r18, r1
    3244:	31 05       	cpc	r19, r1
    3246:	49 f0       	breq	.+18     	;  0x325a
    3248:	48 01       	movw	r8, r16
    324a:	59 01       	movw	r10, r18
    324c:	08 94       	sec
    324e:	81 1c       	adc	r8, r1
    3250:	91 1c       	adc	r9, r1
    3252:	a1 1c       	adc	r10, r1
    3254:	b1 1c       	adc	r11, r1
    3256:	19 86       	std	Y+9, r1	; 0x09
    3258:	10 c0       	rjmp	.+32     	;  0x327a
    325a:	fc 01       	movw	r30, r24
    325c:	80 80       	ld	r8, Z
    325e:	91 80       	ldd	r9, Z+1	; 0x01
    3260:	a2 80       	ldd	r10, Z+2	; 0x02
    3262:	b3 80       	ldd	r11, Z+3	; 0x03
    3264:	19 86       	std	Y+9, r1	; 0x09
    3266:	8a 85       	ldd	r24, Y+10	; 0x0a
    3268:	9b 85       	ldd	r25, Y+11	; 0x0b
    326a:	ac 85       	ldd	r26, Y+12	; 0x0c
    326c:	bd 85       	ldd	r27, Y+13	; 0x0d
    326e:	01 97       	sbiw	r24, 0x01	; 1
    3270:	a1 05       	cpc	r26, r1
    3272:	b1 05       	cpc	r27, r1
    3274:	11 f4       	brne	.+4      	;  0x327a
    3276:	91 e0       	ldi	r25, 0x01	; 1
    3278:	99 87       	std	Y+9, r25	; 0x09
    327a:	d1 01       	movw	r26, r2
    327c:	19 96       	adiw	r26, 0x09	; 9
    327e:	8d 91       	ld	r24, X+
    3280:	9d 91       	ld	r25, X+
    3282:	0d 90       	ld	r0, X+
    3284:	bc 91       	ld	r27, X
    3286:	a0 2d       	mov	r26, r0
    3288:	01 96       	adiw	r24, 0x01	; 1
    328a:	a1 1d       	adc	r26, r1
    328c:	b1 1d       	adc	r27, r1
    328e:	8d 83       	std	Y+5, r24	; 0x05
    3290:	9e 83       	std	Y+6, r25	; 0x06
    3292:	af 83       	std	Y+7, r26	; 0x07
    3294:	b8 87       	std	Y+8, r27	; 0x08
    3296:	75 01       	movw	r14, r10
    3298:	64 01       	movw	r12, r8
    329a:	44 24       	eor	r4, r4
    329c:	55 24       	eor	r5, r5
    329e:	32 01       	movw	r6, r4
    32a0:	8e 01       	movw	r16, r28
    32a2:	0f 5f       	subi	r16, 0xFF	; 255
    32a4:	1f 4f       	sbci	r17, 0xFF	; 255
    32a6:	f1 01       	movw	r30, r2
    32a8:	81 85       	ldd	r24, Z+9	; 0x09
    32aa:	92 85       	ldd	r25, Z+10	; 0x0a
    32ac:	a3 85       	ldd	r26, Z+11	; 0x0b
    32ae:	b4 85       	ldd	r27, Z+12	; 0x0c
    32b0:	48 16       	cp	r4, r24
    32b2:	59 06       	cpc	r5, r25
    32b4:	6a 06       	cpc	r6, r26
    32b6:	7b 06       	cpc	r7, r27
    32b8:	08 f0       	brcs	.+2      	;  0x32bc
    32ba:	90 c0       	rjmp	.+288    	;  0x33dc
    32bc:	8d 81       	ldd	r24, Y+5	; 0x05
    32be:	9e 81       	ldd	r25, Y+6	; 0x06
    32c0:	af 81       	ldd	r26, Y+7	; 0x07
    32c2:	b8 85       	ldd	r27, Y+8	; 0x08
    32c4:	8c 15       	cp	r24, r12
    32c6:	9d 05       	cpc	r25, r13
    32c8:	ae 05       	cpc	r26, r14
    32ca:	bf 05       	cpc	r27, r15
    32cc:	50 f4       	brcc	.+20     	;  0x32e2
    32ce:	82 e0       	ldi	r24, 0x02	; 2
    32d0:	88 2e       	mov	r8, r24
    32d2:	91 2c       	mov	r9, r1
    32d4:	a1 2c       	mov	r10, r1
    32d6:	b1 2c       	mov	r11, r1
    32d8:	b2 e0       	ldi	r27, 0x02	; 2
    32da:	cb 2e       	mov	r12, r27
    32dc:	d1 2c       	mov	r13, r1
    32de:	e1 2c       	mov	r14, r1
    32e0:	f1 2c       	mov	r15, r1
    32e2:	c1 01       	movw	r24, r2
    32e4:	b7 01       	movw	r22, r14
    32e6:	a6 01       	movw	r20, r12
    32e8:	98 01       	movw	r18, r16
    32ea:	0e 94 be 17 	call	0x2f7c	;  0x2f7c
    32ee:	88 23       	and	r24, r24
    32f0:	09 f4       	brne	.+2      	;  0x32f4
    32f2:	74 c0       	rjmp	.+232    	;  0x33dc
    32f4:	89 81       	ldd	r24, Y+1	; 0x01
    32f6:	9a 81       	ldd	r25, Y+2	; 0x02
    32f8:	ab 81       	ldd	r26, Y+3	; 0x03
    32fa:	bc 81       	ldd	r27, Y+4	; 0x04
    32fc:	a7 01       	movw	r20, r14
    32fe:	96 01       	movw	r18, r12
    3300:	2f 5f       	subi	r18, 0xFF	; 255
    3302:	3f 4f       	sbci	r19, 0xFF	; 255
    3304:	4f 4f       	sbci	r20, 0xFF	; 255
    3306:	5f 4f       	sbci	r21, 0xFF	; 255
    3308:	00 97       	sbiw	r24, 0x00	; 0
    330a:	a1 05       	cpc	r26, r1
    330c:	b1 05       	cpc	r27, r1
    330e:	19 f0       	breq	.+6      	;  0x3316
    3310:	49 01       	movw	r8, r18
    3312:	5a 01       	movw	r10, r20
    3314:	0d c0       	rjmp	.+26     	;  0x3330
    3316:	28 19       	sub	r18, r8
    3318:	39 09       	sbc	r19, r9
    331a:	4a 09       	sbc	r20, r10
    331c:	5b 09       	sbc	r21, r11
    331e:	8a 85       	ldd	r24, Y+10	; 0x0a
    3320:	9b 85       	ldd	r25, Y+11	; 0x0b
    3322:	ac 85       	ldd	r26, Y+12	; 0x0c
    3324:	bd 85       	ldd	r27, Y+13	; 0x0d
    3326:	28 17       	cp	r18, r24
    3328:	39 07       	cpc	r19, r25
    332a:	4a 07       	cpc	r20, r26
    332c:	5b 07       	cpc	r21, r27
    332e:	59 f0       	breq	.+22     	;  0x3346
    3330:	08 94       	sec
    3332:	41 1c       	adc	r4, r1
    3334:	51 1c       	adc	r5, r1
    3336:	61 1c       	adc	r6, r1
    3338:	71 1c       	adc	r7, r1
    333a:	08 94       	sec
    333c:	c1 1c       	adc	r12, r1
    333e:	d1 1c       	adc	r13, r1
    3340:	e1 1c       	adc	r14, r1
    3342:	f1 1c       	adc	r15, r1
    3344:	b0 cf       	rjmp	.-160    	;  0x32a6
    3346:	c1 01       	movw	r24, r2
    3348:	a6 01       	movw	r20, r12
    334a:	b7 01       	movw	r22, r14
    334c:	0f ef       	ldi	r16, 0xFF	; 255
    334e:	1f ef       	ldi	r17, 0xFF	; 255
    3350:	2f ef       	ldi	r18, 0xFF	; 255
    3352:	3f e0       	ldi	r19, 0x0F	; 15
    3354:	0e 94 22 17 	call	0x2e44	;  0x2e44
    3358:	88 23       	and	r24, r24
    335a:	99 f4       	brne	.+38     	;  0x3382
    335c:	3f c0       	rjmp	.+126    	;  0x33dc
    335e:	26 01       	movw	r4, r12
    3360:	37 01       	movw	r6, r14
    3362:	08 94       	sec
    3364:	41 08       	sbc	r4, r1
    3366:	51 08       	sbc	r5, r1
    3368:	61 08       	sbc	r6, r1
    336a:	71 08       	sbc	r7, r1
    336c:	c1 01       	movw	r24, r2
    336e:	b3 01       	movw	r22, r6
    3370:	a2 01       	movw	r20, r4
    3372:	97 01       	movw	r18, r14
    3374:	86 01       	movw	r16, r12
    3376:	0e 94 22 17 	call	0x2e44	;  0x2e44
    337a:	88 23       	and	r24, r24
    337c:	79 f1       	breq	.+94     	;  0x33dc
    337e:	73 01       	movw	r14, r6
    3380:	62 01       	movw	r12, r4
    3382:	8c 14       	cp	r8, r12
    3384:	9d 04       	cpc	r9, r13
    3386:	ae 04       	cpc	r10, r14
    3388:	bf 04       	cpc	r11, r15
    338a:	48 f3       	brcs	.-46     	;  0x335e
    338c:	ae 85       	ldd	r26, Y+14	; 0x0e
    338e:	bf 85       	ldd	r27, Y+15	; 0x0f
    3390:	4d 91       	ld	r20, X+
    3392:	5d 91       	ld	r21, X+
    3394:	6d 91       	ld	r22, X+
    3396:	7c 91       	ld	r23, X
    3398:	41 15       	cp	r20, r1
    339a:	51 05       	cpc	r21, r1
    339c:	61 05       	cpc	r22, r1
    339e:	71 05       	cpc	r23, r1
    33a0:	39 f0       	breq	.+14     	;  0x33b0
    33a2:	c1 01       	movw	r24, r2
    33a4:	95 01       	movw	r18, r10
    33a6:	84 01       	movw	r16, r8
    33a8:	0e 94 22 17 	call	0x2e44	;  0x2e44
    33ac:	88 23       	and	r24, r24
    33ae:	b1 f0       	breq	.+44     	;  0x33dc
    33b0:	ee 85       	ldd	r30, Y+14	; 0x0e
    33b2:	ff 85       	ldd	r31, Y+15	; 0x0f
    33b4:	80 82       	st	Z, r8
    33b6:	91 82       	std	Z+1, r9	; 0x01
    33b8:	a2 82       	std	Z+2, r10	; 0x02
    33ba:	b3 82       	std	Z+3, r11	; 0x03
    33bc:	f9 85       	ldd	r31, Y+9	; 0x09
    33be:	ff 23       	and	r31, r31
    33c0:	59 f0       	breq	.+22     	;  0x33d8
    33c2:	08 94       	sec
    33c4:	81 1c       	adc	r8, r1
    33c6:	91 1c       	adc	r9, r1
    33c8:	a1 1c       	adc	r10, r1
    33ca:	b1 1c       	adc	r11, r1
    33cc:	d1 01       	movw	r26, r2
    33ce:	8d 92       	st	X+, r8
    33d0:	9d 92       	st	X+, r9
    33d2:	ad 92       	st	X+, r10
    33d4:	bc 92       	st	X, r11
    33d6:	13 97       	sbiw	r26, 0x03	; 3
    33d8:	81 e0       	ldi	r24, 0x01	; 1
    33da:	01 c0       	rjmp	.+2      	;  0x33de
    33dc:	80 e0       	ldi	r24, 0x00	; 0
    33de:	2f 96       	adiw	r28, 0x0f	; 15
    33e0:	0f b6       	in	r0, 0x3f	; 63
    33e2:	f8 94       	cli
    33e4:	de bf       	out	0x3e, r29	; 62
    33e6:	0f be       	out	0x3f, r0	; 63
    33e8:	cd bf       	out	0x3d, r28	; 61
    33ea:	cf 91       	pop	r28
    33ec:	df 91       	pop	r29
    33ee:	1f 91       	pop	r17
    33f0:	0f 91       	pop	r16
    33f2:	ff 90       	pop	r15
    33f4:	ef 90       	pop	r14
    33f6:	df 90       	pop	r13
    33f8:	cf 90       	pop	r12
    33fa:	bf 90       	pop	r11
    33fc:	af 90       	pop	r10
    33fe:	9f 90       	pop	r9
    3400:	8f 90       	pop	r8
    3402:	7f 90       	pop	r7
    3404:	6f 90       	pop	r6
    3406:	5f 90       	pop	r5
    3408:	4f 90       	pop	r4
    340a:	3f 90       	pop	r3
    340c:	2f 90       	pop	r2
    340e:	08 95       	ret
    3410:	20 91 f5 04 	lds	r18, 0x04F5
    3414:	30 91 f6 04 	lds	r19, 0x04F6
    3418:	80 91 ec 04 	lds	r24, 0x04EC
    341c:	90 91 ed 04 	lds	r25, 0x04ED
    3420:	28 1b       	sub	r18, r24
    3422:	39 0b       	sbc	r19, r25
    3424:	c9 01       	movw	r24, r18
    3426:	08 95       	ret
    3428:	60 91 ec 04 	lds	r22, 0x04EC
    342c:	70 91 ed 04 	lds	r23, 0x04ED
    3430:	80 91 ee 04 	lds	r24, 0x04EE
    3434:	90 91 ef 04 	lds	r25, 0x04EF
    3438:	08 95       	ret
    343a:	60 91 f5 04 	lds	r22, 0x04F5
    343e:	70 91 f6 04 	lds	r23, 0x04F6
    3442:	80 91 f7 04 	lds	r24, 0x04F7
    3446:	90 91 f8 04 	lds	r25, 0x04F8
    344a:	08 95       	ret
    344c:	80 91 e7 04 	lds	r24, 0x04E7
    3450:	81 11       	cpse	r24, r1
    3452:	81 e0       	ldi	r24, 0x01	; 1
    3454:	08 95       	ret
    3456:	83 ee       	ldi	r24, 0xE3	; 227
    3458:	94 e0       	ldi	r25, 0x04	; 4
    345a:	0e 94 f0 09 	call	0x13e0	;  0x13e0
    345e:	08 95       	ret
    3460:	83 ee       	ldi	r24, 0xE3	; 227
    3462:	94 e0       	ldi	r25, 0x04	; 4
    3464:	0e 94 2a 08 	call	0x1054	;  0x1054
    3468:	08 95       	ret
    346a:	83 ee       	ldi	r24, 0xE3	; 227
    346c:	94 e0       	ldi	r25, 0x04	; 4
    346e:	0e 94 a8 09 	call	0x1350	;  0x1350
    3472:	08 95       	ret
    3474:	df 93       	push	r29
    3476:	cf 93       	push	r28
    3478:	0f 92       	push	r0
    347a:	cd b7       	in	r28, 0x3d	; 61
    347c:	de b7       	in	r29, 0x3e	; 62
    347e:	83 ee       	ldi	r24, 0xE3	; 227
    3480:	94 e0       	ldi	r25, 0x04	; 4
    3482:	be 01       	movw	r22, r28
    3484:	6f 5f       	subi	r22, 0xFF	; 255
    3486:	7f 4f       	sbci	r23, 0xFF	; 255
    3488:	41 e0       	ldi	r20, 0x01	; 1
    348a:	50 e0       	ldi	r21, 0x00	; 0
    348c:	0e 94 78 0b 	call	0x16f0	;  0x16f0
    3490:	01 97       	sbiw	r24, 0x01	; 1
    3492:	19 f0       	breq	.+6      	;  0x349a
    3494:	2f ef       	ldi	r18, 0xFF	; 255
    3496:	3f ef       	ldi	r19, 0xFF	; 255
    3498:	03 c0       	rjmp	.+6      	;  0x34a0
    349a:	89 81       	ldd	r24, Y+1	; 0x01
    349c:	28 2f       	mov	r18, r24
    349e:	30 e0       	ldi	r19, 0x00	; 0
    34a0:	c9 01       	movw	r24, r18
    34a2:	0f 90       	pop	r0
    34a4:	cf 91       	pop	r28
    34a6:	df 91       	pop	r29
    34a8:	08 95       	ret
    34aa:	0f 93       	push	r16
    34ac:	1f 93       	push	r17
    34ae:	df 93       	push	r29
    34b0:	cf 93       	push	r28
    34b2:	0f 92       	push	r0
    34b4:	cd b7       	in	r28, 0x3d	; 61
    34b6:	de b7       	in	r29, 0x3e	; 62
    34b8:	83 ee       	ldi	r24, 0xE3	; 227
    34ba:	94 e0       	ldi	r25, 0x04	; 4
    34bc:	be 01       	movw	r22, r28
    34be:	6f 5f       	subi	r22, 0xFF	; 255
    34c0:	7f 4f       	sbci	r23, 0xFF	; 255
    34c2:	41 e0       	ldi	r20, 0x01	; 1
    34c4:	50 e0       	ldi	r21, 0x00	; 0
    34c6:	0e 94 78 0b 	call	0x16f0	;  0x16f0
    34ca:	01 97       	sbiw	r24, 0x01	; 1
    34cc:	19 f0       	breq	.+6      	;  0x34d4
    34ce:	0f ef       	ldi	r16, 0xFF	; 255
    34d0:	1f ef       	ldi	r17, 0xFF	; 255
    34d2:	02 c0       	rjmp	.+4      	;  0x34d8
    34d4:	89 81       	ldd	r24, Y+1	; 0x01
    34d6:	08 2f       	mov	r16, r24
    34d8:	40 91 ec 04 	lds	r20, 0x04EC
    34dc:	50 91 ed 04 	lds	r21, 0x04ED
    34e0:	60 91 ee 04 	lds	r22, 0x04EE
    34e4:	70 91 ef 04 	lds	r23, 0x04EF
    34e8:	41 50       	subi	r20, 0x01	; 1
    34ea:	50 40       	sbci	r21, 0x00	; 0
    34ec:	60 40       	sbci	r22, 0x00	; 0
    34ee:	70 40       	sbci	r23, 0x00	; 0
    34f0:	83 ee       	ldi	r24, 0xE3	; 227
    34f2:	94 e0       	ldi	r25, 0x04	; 4
    34f4:	0e 94 2a 08 	call	0x1054	;  0x1054
    34f8:	80 2f       	mov	r24, r16
    34fa:	90 e0       	ldi	r25, 0x00	; 0
    34fc:	0f 90       	pop	r0
    34fe:	cf 91       	pop	r28
    3500:	df 91       	pop	r29
    3502:	1f 91       	pop	r17
    3504:	0f 91       	pop	r16
    3506:	08 95       	ret
    3508:	83 ee       	ldi	r24, 0xE3	; 227
    350a:	94 e0       	ldi	r25, 0x04	; 4
    350c:	0e 94 e2 10 	call	0x21c4	;  0x21c4
    3510:	08 95       	ret
    3512:	83 ee       	ldi	r24, 0xE3	; 227
    3514:	94 e0       	ldi	r25, 0x04	; 4
    3516:	0e 94 9b 12 	call	0x2536	;  0x2536
    351a:	08 95       	ret
    351c:	83 ee       	ldi	r24, 0xE3	; 227
    351e:	94 e0       	ldi	r25, 0x04	; 4
    3520:	0e 94 a6 12 	call	0x254c	;  0x254c
    3524:	08 95       	ret
    3526:	0f 93       	push	r16
    3528:	1f 93       	push	r17
    352a:	cf 93       	push	r28
    352c:	df 93       	push	r29
    352e:	8c 01       	movw	r16, r24
    3530:	fb 01       	movw	r30, r22
    3532:	c0 81       	ld	r28, Z
    3534:	d1 81       	ldd	r29, Z+1	; 0x01
    3536:	fc 01       	movw	r30, r24
    3538:	ec 0f       	add	r30, r28
    353a:	fd 1f       	adc	r31, r29
    353c:	80 81       	ld	r24, Z
    353e:	8f 32       	cpi	r24, 0x2F	; 47
    3540:	09 f4       	brne	.+2      	;  0x3544
    3542:	21 96       	adiw	r28, 0x01	; 1
    3544:	98 01       	movw	r18, r16
    3546:	2c 0f       	add	r18, r28
    3548:	3d 1f       	adc	r19, r29
    354a:	a0 e0       	ldi	r26, 0x00	; 0
    354c:	b0 e0       	ldi	r27, 0x00	; 0
    354e:	0b c0       	rjmp	.+22     	;  0x3566
    3550:	fa 01       	movw	r30, r20
    3552:	ea 0f       	add	r30, r26
    3554:	fb 1f       	adc	r31, r27
    3556:	80 83       	st	Z, r24
    3558:	11 96       	adiw	r26, 0x01	; 1
    355a:	21 96       	adiw	r28, 0x01	; 1
    355c:	2f 5f       	subi	r18, 0xFF	; 255
    355e:	3f 4f       	sbci	r19, 0xFF	; 255
    3560:	ac 30       	cpi	r26, 0x0C	; 12
    3562:	b1 05       	cpc	r27, r1
    3564:	31 f0       	breq	.+12     	;  0x3572
    3566:	f9 01       	movw	r30, r18
    3568:	80 81       	ld	r24, Z
    356a:	8f 32       	cpi	r24, 0x2F	; 47
    356c:	11 f0       	breq	.+4      	;  0x3572
    356e:	88 23       	and	r24, r24
    3570:	79 f7       	brne	.-34     	;  0x3550
    3572:	a4 0f       	add	r26, r20
    3574:	b5 1f       	adc	r27, r21
    3576:	1c 92       	st	X, r1
    3578:	f8 01       	movw	r30, r16
    357a:	ec 0f       	add	r30, r28
    357c:	fd 1f       	adc	r31, r29
    357e:	80 81       	ld	r24, Z
    3580:	8f 32       	cpi	r24, 0x2F	; 47
    3582:	09 f4       	brne	.+2      	;  0x3586
    3584:	21 96       	adiw	r28, 0x01	; 1
    3586:	fb 01       	movw	r30, r22
    3588:	d1 83       	std	Z+1, r29	; 0x01
    358a:	c0 83       	st	Z, r28
    358c:	c0 0f       	add	r28, r16
    358e:	d1 1f       	adc	r29, r17
    3590:	88 81       	ld	r24, Y
    3592:	81 11       	cpse	r24, r1
    3594:	81 e0       	ldi	r24, 0x01	; 1
    3596:	df 91       	pop	r29
    3598:	cf 91       	pop	r28
    359a:	1f 91       	pop	r17
    359c:	0f 91       	pop	r16
    359e:	08 95       	ret
    35a0:	10 92 a2 04 	sts	0x04A2, r1
    35a4:	10 92 a3 04 	sts	0x04A3, r1
    35a8:	10 92 a6 04 	sts	0x04A6, r1
    35ac:	10 92 a8 04 	sts	0x04A8, r1
    35b0:	82 e0       	ldi	r24, 0x02	; 2
    35b2:	90 e0       	ldi	r25, 0x00	; 0
    35b4:	a0 e0       	ldi	r26, 0x00	; 0
    35b6:	b0 e0       	ldi	r27, 0x00	; 0
    35b8:	80 93 a9 04 	sts	0x04A9, r24
    35bc:	90 93 aa 04 	sts	0x04AA, r25
    35c0:	a0 93 ab 04 	sts	0x04AB, r26
    35c4:	b0 93 ac 04 	sts	0x04AC, r27
    35c8:	10 92 c0 04 	sts	0x04C0, r1
    35cc:	84 e0       	ldi	r24, 0x04	; 4
    35ce:	91 e0       	ldi	r25, 0x01	; 1
    35d0:	90 93 c8 04 	sts	0x04C8, r25
    35d4:	80 93 c7 04 	sts	0x04C7, r24
    35d8:	10 92 cb 04 	sts	0x04CB, r1
    35dc:	90 93 e4 04 	sts	0x04E4, r25
    35e0:	80 93 e3 04 	sts	0x04E3, r24
    35e4:	10 92 e7 04 	sts	0x04E7, r1
    35e8:	08 95       	ret
    35ea:	0f 93       	push	r16
    35ec:	1f 93       	push	r17
    35ee:	cf 93       	push	r28
    35f0:	df 93       	push	r29
    35f2:	ec 01       	movw	r28, r24
    35f4:	46 2f       	mov	r20, r22
    35f6:	61 e0       	ldi	r22, 0x01	; 1
    35f8:	0e 94 d1 06 	call	0xda2	;  0xda2
    35fc:	88 23       	and	r24, r24
    35fe:	d1 f0       	breq	.+52     	;  0x3634
    3600:	8e 01       	movw	r16, r28
    3602:	04 5f       	subi	r16, 0xF4	; 244
    3604:	1f 4f       	sbci	r17, 0xFF	; 255
    3606:	c8 01       	movw	r24, r16
    3608:	be 01       	movw	r22, r28
    360a:	41 e0       	ldi	r20, 0x01	; 1
    360c:	0e 94 dd 15 	call	0x2bba	;  0x2bba
    3610:	88 23       	and	r24, r24
    3612:	39 f4       	brne	.+14     	;  0x3622
    3614:	c8 01       	movw	r24, r16
    3616:	be 01       	movw	r22, r28
    3618:	40 e0       	ldi	r20, 0x00	; 0
    361a:	0e 94 dd 15 	call	0x2bba	;  0x2bba
    361e:	88 23       	and	r24, r24
    3620:	49 f0       	breq	.+18     	;  0x3634
    3622:	ce 01       	movw	r24, r28
    3624:	8a 96       	adiw	r24, 0x2a	; 42
    3626:	b8 01       	movw	r22, r16
    3628:	0e 94 03 0e 	call	0x1c06	;  0x1c06
    362c:	88 23       	and	r24, r24
    362e:	19 f0       	breq	.+6      	;  0x3636
    3630:	81 e0       	ldi	r24, 0x01	; 1
    3632:	01 c0       	rjmp	.+2      	;  0x3636
    3634:	80 e0       	ldi	r24, 0x00	; 0
    3636:	df 91       	pop	r29
    3638:	cf 91       	pop	r28
    363a:	1f 91       	pop	r17
    363c:	0f 91       	pop	r16
    363e:	08 95       	ret
    3640:	0f 93       	push	r16
    3642:	1f 93       	push	r17
    3644:	df 93       	push	r29
    3646:	cf 93       	push	r28
    3648:	cd b7       	in	r28, 0x3d	; 61
    364a:	de b7       	in	r29, 0x3e	; 62
    364c:	6c 97       	sbiw	r28, 0x1c	; 28
    364e:	0f b6       	in	r0, 0x3f	; 63
    3650:	f8 94       	cli
    3652:	de bf       	out	0x3e, r29	; 62
    3654:	0f be       	out	0x3f, r0	; 63
    3656:	cd bf       	out	0x3d, r28	; 61
    3658:	9c 01       	movw	r18, r24
    365a:	fb 01       	movw	r30, r22
    365c:	44 23       	and	r20, r20
    365e:	11 f4       	brne	.+4      	;  0x3664
    3660:	81 e0       	ldi	r24, 0x01	; 1
    3662:	13 c0       	rjmp	.+38     	;  0x368a
    3664:	84 e0       	ldi	r24, 0x04	; 4
    3666:	91 e0       	ldi	r25, 0x01	; 1
    3668:	9a 83       	std	Y+2, r25	; 0x02
    366a:	89 83       	std	Y+1, r24	; 0x01
    366c:	1d 82       	std	Y+5, r1	; 0x05
    366e:	8e 01       	movw	r16, r28
    3670:	0f 5f       	subi	r16, 0xFF	; 255
    3672:	1f 4f       	sbci	r17, 0xFF	; 255
    3674:	c8 01       	movw	r24, r16
    3676:	b9 01       	movw	r22, r18
    3678:	af 01       	movw	r20, r30
    367a:	21 e0       	ldi	r18, 0x01	; 1
    367c:	0e 94 1b 13 	call	0x2636	;  0x2636
    3680:	88 23       	and	r24, r24
    3682:	19 f0       	breq	.+6      	;  0x368a
    3684:	c8 01       	movw	r24, r16
    3686:	0e 94 d7 0c 	call	0x19ae	;  0x19ae
    368a:	6c 96       	adiw	r28, 0x1c	; 28
    368c:	0f b6       	in	r0, 0x3f	; 63
    368e:	f8 94       	cli
    3690:	de bf       	out	0x3e, r29	; 62
    3692:	0f be       	out	0x3f, r0	; 63
    3694:	cd bf       	out	0x3d, r28	; 61
    3696:	cf 91       	pop	r28
    3698:	df 91       	pop	r29
    369a:	1f 91       	pop	r17
    369c:	0f 91       	pop	r16
    369e:	08 95       	ret
    36a0:	44 23       	and	r20, r20
    36a2:	11 f4       	brne	.+4      	;  0x36a8
    36a4:	81 e0       	ldi	r24, 0x01	; 1
    36a6:	08 95       	ret
    36a8:	0e 94 22 14 	call	0x2844	;  0x2844
    36ac:	08 95       	ret
    36ae:	ef 92       	push	r14
    36b0:	ff 92       	push	r15
    36b2:	0f 93       	push	r16
    36b4:	1f 93       	push	r17
    36b6:	cf 93       	push	r28
    36b8:	df 93       	push	r29
    36ba:	fc 01       	movw	r30, r24
    36bc:	db 01       	movw	r26, r22
    36be:	44 23       	and	r20, r20
    36c0:	11 f4       	brne	.+4      	;  0x36c6
    36c2:	81 e0       	ldi	r24, 0x01	; 1
    36c4:	1f c0       	rjmp	.+62     	;  0x3704
    36c6:	e9 01       	movw	r28, r18
    36c8:	86 e4       	ldi	r24, 0x46	; 70
    36ca:	e8 2e       	mov	r14, r24
    36cc:	f1 2c       	mov	r15, r1
    36ce:	e2 0e       	add	r14, r18
    36d0:	f3 1e       	adc	r15, r19
    36d2:	89 01       	movw	r16, r18
    36d4:	0e 59       	subi	r16, 0x9E	; 158
    36d6:	1f 4f       	sbci	r17, 0xFF	; 255
    36d8:	c7 01       	movw	r24, r14
    36da:	bf 01       	movw	r22, r30
    36dc:	ad 01       	movw	r20, r26
    36de:	f8 01       	movw	r30, r16
    36e0:	20 81       	ld	r18, Z
    36e2:	0e 94 1b 13 	call	0x2636	;  0x2636
    36e6:	f8 01       	movw	r30, r16
    36e8:	80 81       	ld	r24, Z
    36ea:	91 81       	ldd	r25, Z+1	; 0x01
    36ec:	4b 97       	sbiw	r24, 0x1b	; 27
    36ee:	49 f4       	brne	.+18     	;  0x3702
    36f0:	c8 5a       	subi	r28, 0xA8	; 168
    36f2:	df 4f       	sbci	r29, 0xFF	; 255
    36f4:	48 81       	ld	r20, Y
    36f6:	59 81       	ldd	r21, Y+1	; 0x01
    36f8:	6a 81       	ldd	r22, Y+2	; 0x02
    36fa:	7b 81       	ldd	r23, Y+3	; 0x03
    36fc:	c7 01       	movw	r24, r14
    36fe:	0e 94 2a 08 	call	0x1054	;  0x1054
    3702:	80 e0       	ldi	r24, 0x00	; 0
    3704:	df 91       	pop	r29
    3706:	cf 91       	pop	r28
    3708:	1f 91       	pop	r17
    370a:	0f 91       	pop	r16
    370c:	ff 90       	pop	r15
    370e:	ef 90       	pop	r14
    3710:	08 95       	ret
    3712:	ef 92       	push	r14
    3714:	ff 92       	push	r15
    3716:	1f 93       	push	r17
    3718:	df 93       	push	r29
    371a:	cf 93       	push	r28
    371c:	cd b7       	in	r28, 0x3d	; 61
    371e:	de b7       	in	r29, 0x3e	; 62
    3720:	6c 97       	sbiw	r28, 0x1c	; 28
    3722:	0f b6       	in	r0, 0x3f	; 63
    3724:	f8 94       	cli
    3726:	de bf       	out	0x3e, r29	; 62
    3728:	0f be       	out	0x3f, r0	; 63
    372a:	cd bf       	out	0x3d, r28	; 61
    372c:	9c 01       	movw	r18, r24
    372e:	ab 01       	movw	r20, r22
    3730:	84 e0       	ldi	r24, 0x04	; 4
    3732:	91 e0       	ldi	r25, 0x01	; 1
    3734:	9a 83       	std	Y+2, r25	; 0x02
    3736:	89 83       	std	Y+1, r24	; 0x01
    3738:	1d 82       	std	Y+5, r1	; 0x05
    373a:	7e 01       	movw	r14, r28
    373c:	08 94       	sec
    373e:	e1 1c       	adc	r14, r1
    3740:	f1 1c       	adc	r15, r1
    3742:	c7 01       	movw	r24, r14
    3744:	b9 01       	movw	r22, r18
    3746:	21 e0       	ldi	r18, 0x01	; 1
    3748:	0e 94 1b 13 	call	0x2636	;  0x2636
    374c:	18 2f       	mov	r17, r24
    374e:	88 23       	and	r24, r24
    3750:	19 f0       	breq	.+6      	;  0x3758
    3752:	c7 01       	movw	r24, r14
    3754:	0e 94 f0 09 	call	0x13e0	;  0x13e0
    3758:	81 2f       	mov	r24, r17
    375a:	6c 96       	adiw	r28, 0x1c	; 28
    375c:	0f b6       	in	r0, 0x3f	; 63
    375e:	f8 94       	cli
    3760:	de bf       	out	0x3e, r29	; 62
    3762:	0f be       	out	0x3f, r0	; 63
    3764:	cd bf       	out	0x3d, r28	; 61
    3766:	cf 91       	pop	r28
    3768:	df 91       	pop	r29
    376a:	1f 91       	pop	r17
    376c:	ff 90       	pop	r15
    376e:	ef 90       	pop	r14
    3770:	08 95       	ret
    3772:	ef 92       	push	r14
    3774:	ff 92       	push	r15
    3776:	0f 93       	push	r16
    3778:	1f 93       	push	r17
    377a:	df 93       	push	r29
    377c:	cf 93       	push	r28
    377e:	cd b7       	in	r28, 0x3d	; 61
    3780:	de b7       	in	r29, 0x3e	; 62
    3782:	6c 97       	sbiw	r28, 0x1c	; 28
    3784:	0f b6       	in	r0, 0x3f	; 63
    3786:	f8 94       	cli
    3788:	de bf       	out	0x3e, r29	; 62
    378a:	0f be       	out	0x3f, r0	; 63
    378c:	cd bf       	out	0x3d, r28	; 61
    378e:	8c 01       	movw	r16, r24
    3790:	7b 01       	movw	r14, r22
    3792:	84 e0       	ldi	r24, 0x04	; 4
    3794:	91 e0       	ldi	r25, 0x01	; 1
    3796:	9a 83       	std	Y+2, r25	; 0x02
    3798:	89 83       	std	Y+1, r24	; 0x01
    379a:	1d 82       	std	Y+5, r1	; 0x05
    379c:	c8 01       	movw	r24, r16
    379e:	0e 94 89 1b 	call	0x3712	;  0x3712
    37a2:	88 23       	and	r24, r24
    37a4:	31 f4       	brne	.+12     	;  0x37b2
    37a6:	ce 01       	movw	r24, r28
    37a8:	01 96       	adiw	r24, 0x01	; 1
    37aa:	b8 01       	movw	r22, r16
    37ac:	a7 01       	movw	r20, r14
    37ae:	0e 94 95 14 	call	0x292a	;  0x292a
    37b2:	6c 96       	adiw	r28, 0x1c	; 28
    37b4:	0f b6       	in	r0, 0x3f	; 63
    37b6:	f8 94       	cli
    37b8:	de bf       	out	0x3e, r29	; 62
    37ba:	0f be       	out	0x3f, r0	; 63
    37bc:	cd bf       	out	0x3d, r28	; 61
    37be:	cf 91       	pop	r28
    37c0:	df 91       	pop	r29
    37c2:	1f 91       	pop	r17
    37c4:	0f 91       	pop	r16
    37c6:	ff 90       	pop	r15
    37c8:	ef 90       	pop	r14
    37ca:	08 95       	ret
    37cc:	2f 92       	push	r2
    37ce:	3f 92       	push	r3
    37d0:	4f 92       	push	r4
    37d2:	5f 92       	push	r5
    37d4:	6f 92       	push	r6
    37d6:	7f 92       	push	r7
    37d8:	8f 92       	push	r8
    37da:	9f 92       	push	r9
    37dc:	bf 92       	push	r11
    37de:	cf 92       	push	r12
    37e0:	df 92       	push	r13
    37e2:	ef 92       	push	r14
    37e4:	ff 92       	push	r15
    37e6:	0f 93       	push	r16
    37e8:	1f 93       	push	r17
    37ea:	df 93       	push	r29
    37ec:	cf 93       	push	r28
    37ee:	cd b7       	in	r28, 0x3d	; 61
    37f0:	de b7       	in	r29, 0x3e	; 62
    37f2:	c7 54       	subi	r28, 0x47	; 71
    37f4:	d0 40       	sbci	r29, 0x00	; 0
    37f6:	0f b6       	in	r0, 0x3f	; 63
    37f8:	f8 94       	cli
    37fa:	de bf       	out	0x3e, r29	; 62
    37fc:	0f be       	out	0x3f, r0	; 63
    37fe:	cd bf       	out	0x3d, r28	; 61
    3800:	1c 01       	movw	r2, r24
    3802:	7b 01       	movw	r14, r22
    3804:	2a 01       	movw	r4, r20
    3806:	39 01       	movw	r6, r18
    3808:	84 e0       	ldi	r24, 0x04	; 4
    380a:	91 e0       	ldi	r25, 0x01	; 1
    380c:	99 8b       	std	Y+17, r25	; 0x11
    380e:	88 8b       	std	Y+16, r24	; 0x10
    3810:	1c 8a       	std	Y+20, r1	; 0x14
    3812:	9d a7       	std	Y+45, r25	; 0x2d
    3814:	8c a7       	std	Y+44, r24	; 0x2c
    3816:	18 aa       	std	Y+48, r1	; 0x30
    3818:	1a 82       	std	Y+2, r1	; 0x02
    381a:	19 82       	std	Y+1, r1	; 0x01
    381c:	8b 01       	movw	r16, r22
    381e:	20 e1       	ldi	r18, 0x10	; 16
    3820:	c2 2e       	mov	r12, r18
    3822:	d1 2c       	mov	r13, r1
    3824:	cc 0e       	add	r12, r28
    3826:	dd 1e       	adc	r13, r29
    3828:	93 e0       	ldi	r25, 0x03	; 3
    382a:	89 2e       	mov	r8, r25
    382c:	91 2c       	mov	r9, r1
    382e:	8c 0e       	add	r8, r28
    3830:	9d 1e       	adc	r9, r29
    3832:	03 c0       	rjmp	.+6      	;  0x383a
    3834:	c8 01       	movw	r24, r16
    3836:	86 01       	movw	r16, r12
    3838:	6c 01       	movw	r12, r24
    383a:	c1 01       	movw	r24, r2
    383c:	be 01       	movw	r22, r28
    383e:	6f 5f       	subi	r22, 0xFF	; 255
    3840:	7f 4f       	sbci	r23, 0xFF	; 255
    3842:	a4 01       	movw	r20, r8
    3844:	0e 94 93 1a 	call	0x3526	;  0x3526
    3848:	b8 2e       	mov	r11, r24
    384a:	40 e0       	ldi	r20, 0x00	; 0
    384c:	88 23       	and	r24, r24
    384e:	09 f4       	brne	.+2      	;  0x3852
    3850:	41 e0       	ldi	r20, 0x01	; 1
    3852:	c8 01       	movw	r24, r16
    3854:	b4 01       	movw	r22, r8
    3856:	93 01       	movw	r18, r6
    3858:	f2 01       	movw	r30, r4
    385a:	09 95       	icall
    385c:	88 23       	and	r24, r24
    385e:	39 f4       	brne	.+14     	;  0x386e
    3860:	0e 15       	cp	r16, r14
    3862:	1f 05       	cpc	r17, r15
    3864:	19 f1       	breq	.+70     	;  0x38ac
    3866:	c8 01       	movw	r24, r16
    3868:	0e 94 f0 09 	call	0x13e0	;  0x13e0
    386c:	1f c0       	rjmp	.+62     	;  0x38ac
    386e:	bb 20       	and	r11, r11
    3870:	a9 f0       	breq	.+42     	;  0x389c
    3872:	c6 01       	movw	r24, r12
    3874:	b8 01       	movw	r22, r16
    3876:	a4 01       	movw	r20, r8
    3878:	21 e0       	ldi	r18, 0x01	; 1
    387a:	0e 94 1b 13 	call	0x2636	;  0x2636
    387e:	b8 2e       	mov	r11, r24
    3880:	0e 15       	cp	r16, r14
    3882:	1f 05       	cpc	r17, r15
    3884:	19 f0       	breq	.+6      	;  0x388c
    3886:	c8 01       	movw	r24, r16
    3888:	0e 94 f0 09 	call	0x13e0	;  0x13e0
    388c:	bb 20       	and	r11, r11
    388e:	71 f0       	breq	.+28     	;  0x38ac
    3890:	0e 15       	cp	r16, r14
    3892:	1f 05       	cpc	r17, r15
    3894:	79 f6       	brne	.-98     	;  0x3834
    3896:	ce 01       	movw	r24, r28
    3898:	8c 96       	adiw	r24, 0x2c	; 44
    389a:	cd cf       	rjmp	.-102    	;  0x3836
    389c:	0e 15       	cp	r16, r14
    389e:	1f 05       	cpc	r17, r15
    38a0:	19 f0       	breq	.+6      	;  0x38a8
    38a2:	c8 01       	movw	r24, r16
    38a4:	0e 94 f0 09 	call	0x13e0	;  0x13e0
    38a8:	81 e0       	ldi	r24, 0x01	; 1
    38aa:	01 c0       	rjmp	.+2      	;  0x38ae
    38ac:	80 e0       	ldi	r24, 0x00	; 0
    38ae:	c9 5b       	subi	r28, 0xB9	; 185
    38b0:	df 4f       	sbci	r29, 0xFF	; 255
    38b2:	0f b6       	in	r0, 0x3f	; 63
    38b4:	f8 94       	cli
    38b6:	de bf       	out	0x3e, r29	; 62
    38b8:	0f be       	out	0x3f, r0	; 63
    38ba:	cd bf       	out	0x3d, r28	; 61
    38bc:	cf 91       	pop	r28
    38be:	df 91       	pop	r29
    38c0:	1f 91       	pop	r17
    38c2:	0f 91       	pop	r16
    38c4:	ff 90       	pop	r15
    38c6:	ef 90       	pop	r14
    38c8:	df 90       	pop	r13
    38ca:	cf 90       	pop	r12
    38cc:	bf 90       	pop	r11
    38ce:	9f 90       	pop	r9
    38d0:	8f 90       	pop	r8
    38d2:	7f 90       	pop	r7
    38d4:	6f 90       	pop	r6
    38d6:	5f 90       	pop	r5
    38d8:	4f 90       	pop	r4
    38da:	3f 90       	pop	r3
    38dc:	2f 90       	pop	r2
    38de:	08 95       	ret
    38e0:	9b 01       	movw	r18, r22
    38e2:	bc 01       	movw	r22, r24
    38e4:	66 5d       	subi	r22, 0xD6	; 214
    38e6:	7f 4f       	sbci	r23, 0xFF	; 255
    38e8:	c9 01       	movw	r24, r18
    38ea:	40 e5       	ldi	r20, 0x50	; 80
    38ec:	5b e1       	ldi	r21, 0x1B	; 27
    38ee:	20 e0       	ldi	r18, 0x00	; 0
    38f0:	30 e0       	ldi	r19, 0x00	; 0
    38f2:	0e 94 e6 1b 	call	0x37cc	;  0x37cc
    38f6:	08 95       	ret
    38f8:	9b 01       	movw	r18, r22
    38fa:	bc 01       	movw	r22, r24
    38fc:	66 5d       	subi	r22, 0xD6	; 214
    38fe:	7f 4f       	sbci	r23, 0xFF	; 255
    3900:	c9 01       	movw	r24, r18
    3902:	40 e2       	ldi	r20, 0x20	; 32
    3904:	5b e1       	ldi	r21, 0x1B	; 27
    3906:	20 e0       	ldi	r18, 0x00	; 0
    3908:	30 e0       	ldi	r19, 0x00	; 0
    390a:	0e 94 e6 1b 	call	0x37cc	;  0x37cc
    390e:	08 95       	ret
    3910:	9b 01       	movw	r18, r22
    3912:	bc 01       	movw	r22, r24
    3914:	66 5d       	subi	r22, 0xD6	; 214
    3916:	7f 4f       	sbci	r23, 0xFF	; 255
    3918:	c9 01       	movw	r24, r18
    391a:	49 eb       	ldi	r20, 0xB9	; 185
    391c:	5b e1       	ldi	r21, 0x1B	; 27
    391e:	20 e0       	ldi	r18, 0x00	; 0
    3920:	30 e0       	ldi	r19, 0x00	; 0
    3922:	0e 94 e6 1b 	call	0x37cc	;  0x37cc
    3926:	08 95       	ret
    3928:	9b 01       	movw	r18, r22
    392a:	bc 01       	movw	r22, r24
    392c:	66 5d       	subi	r22, 0xD6	; 214
    392e:	7f 4f       	sbci	r23, 0xFF	; 255
    3930:	c9 01       	movw	r24, r18
    3932:	49 e8       	ldi	r20, 0x89	; 137
    3934:	5b e1       	ldi	r21, 0x1B	; 27
    3936:	20 e0       	ldi	r18, 0x00	; 0
    3938:	30 e0       	ldi	r19, 0x00	; 0
    393a:	0e 94 e6 1b 	call	0x37cc	;  0x37cc
    393e:	08 95       	ret
    3940:	0f 93       	push	r16
    3942:	1f 93       	push	r17
    3944:	8c 01       	movw	r16, r24
    3946:	db 01       	movw	r26, r22
    3948:	ca 01       	movw	r24, r20
    394a:	fb 01       	movw	r30, r22
    394c:	ee 59       	subi	r30, 0x9E	; 158
    394e:	ff 4f       	sbci	r31, 0xFF	; 255
    3950:	20 83       	st	Z, r18
    3952:	11 82       	std	Z+1, r1	; 0x01
    3954:	66 5d       	subi	r22, 0xD6	; 214
    3956:	7f 4f       	sbci	r23, 0xFF	; 255
    3958:	47 e5       	ldi	r20, 0x57	; 87
    395a:	5b e1       	ldi	r21, 0x1B	; 27
    395c:	9d 01       	movw	r18, r26
    395e:	0e 94 e6 1b 	call	0x37cc	;  0x37cc
    3962:	82 e1       	ldi	r24, 0x12	; 18
    3964:	91 e0       	ldi	r25, 0x01	; 1
    3966:	f8 01       	movw	r30, r16
    3968:	91 83       	std	Z+1, r25	; 0x01
    396a:	80 83       	st	Z, r24
    396c:	c8 01       	movw	r24, r16
    396e:	1f 91       	pop	r17
    3970:	0f 91       	pop	r16
    3972:	08 95       	ret
    3974:	0f 93       	push	r16
    3976:	1f 93       	push	r17
    3978:	df 93       	push	r29
    397a:	cf 93       	push	r28
    397c:	00 d0       	rcall	.+0      	;  0x397e
    397e:	00 d0       	rcall	.+0      	;  0x3980
    3980:	00 d0       	rcall	.+0      	;  0x3982
    3982:	cd b7       	in	r28, 0x3d	; 61
    3984:	de b7       	in	r29, 0x3e	; 62
    3986:	8c 01       	movw	r16, r24
    3988:	fe 01       	movw	r30, r28
    398a:	31 96       	adiw	r30, 0x01	; 1
    398c:	86 e0       	ldi	r24, 0x06	; 6
    398e:	df 01       	movw	r26, r30
    3990:	1d 92       	st	X+, r1
    3992:	8a 95       	dec	r24
    3994:	e9 f7       	brne	.-6      	;  0x3990
    3996:	8a ea       	ldi	r24, 0xAA	; 170
    3998:	89 83       	std	Y+1, r24	; 0x01
    399a:	8e e0       	ldi	r24, 0x0E	; 14
    399c:	8a 83       	std	Y+2, r24	; 0x02
    399e:	6b 83       	std	Y+3, r22	; 0x03
    39a0:	4d 83       	std	Y+5, r20	; 0x05
    39a2:	2e 83       	std	Y+6, r18	; 0x06
    39a4:	20 e0       	ldi	r18, 0x00	; 0
    39a6:	30 e0       	ldi	r19, 0x00	; 0
    39a8:	af 01       	movw	r20, r30
    39aa:	23 30       	cpi	r18, 0x03	; 3
    39ac:	31 05       	cpc	r19, r1
    39ae:	61 f0       	breq	.+24     	;  0x39c8
    39b0:	f8 01       	movw	r30, r16
    39b2:	e2 0f       	add	r30, r18
    39b4:	f3 1f       	adc	r31, r19
    39b6:	da 01       	movw	r26, r20
    39b8:	a2 0f       	add	r26, r18
    39ba:	b3 1f       	adc	r27, r19
    39bc:	90 81       	ld	r25, Z
    39be:	8c 91       	ld	r24, X
    39c0:	98 17       	cp	r25, r24
    39c2:	11 f0       	breq	.+4      	;  0x39c8
    39c4:	80 e0       	ldi	r24, 0x00	; 0
    39c6:	06 c0       	rjmp	.+12     	;  0x39d4
    39c8:	2f 5f       	subi	r18, 0xFF	; 255
    39ca:	3f 4f       	sbci	r19, 0xFF	; 255
    39cc:	26 30       	cpi	r18, 0x06	; 6
    39ce:	31 05       	cpc	r19, r1
    39d0:	61 f7       	brne	.-40     	;  0x39aa
    39d2:	81 e0       	ldi	r24, 0x01	; 1
    39d4:	26 96       	adiw	r28, 0x06	; 6
    39d6:	0f b6       	in	r0, 0x3f	; 63
    39d8:	f8 94       	cli
    39da:	de bf       	out	0x3e, r29	; 62
    39dc:	0f be       	out	0x3f, r0	; 63
    39de:	cd bf       	out	0x3d, r28	; 61
    39e0:	cf 91       	pop	r28
    39e2:	df 91       	pop	r29
    39e4:	1f 91       	pop	r17
    39e6:	0f 91       	pop	r16
    39e8:	08 95       	ret
    39ea:	ac 01       	movw	r20, r24
    39ec:	20 e0       	ldi	r18, 0x00	; 0
    39ee:	30 e0       	ldi	r19, 0x00	; 0
    39f0:	fa 01       	movw	r30, r20
    39f2:	e2 0f       	add	r30, r18
    39f4:	f3 1f       	adc	r31, r19
    39f6:	d9 01       	movw	r26, r18
    39f8:	a7 5c       	subi	r26, 0xC7	; 199
    39fa:	bd 4f       	sbci	r27, 0xFD	; 253
    39fc:	90 81       	ld	r25, Z
    39fe:	8c 91       	ld	r24, X
    3a00:	98 17       	cp	r25, r24
    3a02:	11 f0       	breq	.+4      	;  0x3a08
    3a04:	80 e0       	ldi	r24, 0x00	; 0
    3a06:	08 95       	ret
    3a08:	2f 5f       	subi	r18, 0xFF	; 255
    3a0a:	3f 4f       	sbci	r19, 0xFF	; 255
    3a0c:	26 30       	cpi	r18, 0x06	; 6
    3a0e:	31 05       	cpc	r19, r1
    3a10:	79 f7       	brne	.-34     	;  0x39f0
    3a12:	81 e0       	ldi	r24, 0x01	; 1
    3a14:	08 95       	ret
    3a16:	fc 01       	movw	r30, r24
    3a18:	80 81       	ld	r24, Z
    3a1a:	8a 3a       	cpi	r24, 0xAA	; 170
    3a1c:	11 f0       	breq	.+4      	;  0x3a22
    3a1e:	20 e0       	ldi	r18, 0x00	; 0
    3a20:	05 c0       	rjmp	.+10     	;  0x3a2c
    3a22:	20 e0       	ldi	r18, 0x00	; 0
    3a24:	81 81       	ldd	r24, Z+1	; 0x01
    3a26:	8a 30       	cpi	r24, 0x0A	; 10
    3a28:	09 f4       	brne	.+2      	;  0x3a2c
    3a2a:	21 e0       	ldi	r18, 0x01	; 1
    3a2c:	82 2f       	mov	r24, r18
    3a2e:	08 95       	ret
    3a30:	87 e0       	ldi	r24, 0x07	; 7
    3a32:	95 e0       	ldi	r25, 0x05	; 5
    3a34:	62 e0       	ldi	r22, 0x02	; 2
    3a36:	43 e0       	ldi	r20, 0x03	; 3
    3a38:	0e 94 9e 00 	call	0x13c	;  0x13c
    3a3c:	82 e1       	ldi	r24, 0x12	; 18
    3a3e:	91 e0       	ldi	r25, 0x01	; 1
    3a40:	90 93 22 05 	sts	0x0522, r25
    3a44:	80 93 21 05 	sts	0x0521, r24
    3a48:	08 95       	ret
    3a4a:	ef 92       	push	r14
    3a4c:	0f 93       	push	r16
    3a4e:	df 93       	push	r29
    3a50:	cf 93       	push	r28
    3a52:	00 d0       	rcall	.+0      	;  0x3a54
    3a54:	00 d0       	rcall	.+0      	;  0x3a56
    3a56:	00 d0       	rcall	.+0      	;  0x3a58
    3a58:	cd b7       	in	r28, 0x3d	; 61
    3a5a:	de b7       	in	r29, 0x3e	; 62
    3a5c:	fe 01       	movw	r30, r28
    3a5e:	31 96       	adiw	r30, 0x01	; 1
    3a60:	96 e0       	ldi	r25, 0x06	; 6
    3a62:	df 01       	movw	r26, r30
    3a64:	1d 92       	st	X+, r1
    3a66:	9a 95       	dec	r25
    3a68:	e9 f7       	brne	.-6      	;  0x3a64
    3a6a:	89 83       	std	Y+1, r24	; 0x01
    3a6c:	6a 83       	std	Y+2, r22	; 0x02
    3a6e:	4b 83       	std	Y+3, r20	; 0x03
    3a70:	2c 83       	std	Y+4, r18	; 0x04
    3a72:	0d 83       	std	Y+5, r16	; 0x05
    3a74:	ee 82       	std	Y+6, r14	; 0x06
    3a76:	87 ea       	ldi	r24, 0xA7	; 167
    3a78:	95 e0       	ldi	r25, 0x05	; 5
    3a7a:	bf 01       	movw	r22, r30
    3a7c:	46 e0       	ldi	r20, 0x06	; 6
    3a7e:	50 e0       	ldi	r21, 0x00	; 0
    3a80:	0e 94 05 22 	call	0x440a	;  0x440a
    3a84:	26 96       	adiw	r28, 0x06	; 6
    3a86:	0f b6       	in	r0, 0x3f	; 63
    3a88:	f8 94       	cli
    3a8a:	de bf       	out	0x3e, r29	; 62
    3a8c:	0f be       	out	0x3f, r0	; 63
    3a8e:	cd bf       	out	0x3d, r28	; 61
    3a90:	cf 91       	pop	r28
    3a92:	df 91       	pop	r29
    3a94:	0f 91       	pop	r16
    3a96:	ef 90       	pop	r14
    3a98:	08 95       	ret
    3a9a:	ef 92       	push	r14
    3a9c:	0f 93       	push	r16
    3a9e:	48 2f       	mov	r20, r24
    3aa0:	8a ea       	ldi	r24, 0xAA	; 170
    3aa2:	64 e0       	ldi	r22, 0x04	; 4
    3aa4:	20 e0       	ldi	r18, 0x00	; 0
    3aa6:	00 e0       	ldi	r16, 0x00	; 0
    3aa8:	ee 24       	eor	r14, r14
    3aaa:	0e 94 25 1d 	call	0x3a4a	;  0x3a4a
    3aae:	0f 91       	pop	r16
    3ab0:	ef 90       	pop	r14
    3ab2:	08 95       	ret
    3ab4:	ef 92       	push	r14
    3ab6:	0f 93       	push	r16
    3ab8:	98 2f       	mov	r25, r24
    3aba:	26 2f       	mov	r18, r22
    3abc:	04 2f       	mov	r16, r20
    3abe:	8a ea       	ldi	r24, 0xAA	; 170
    3ac0:	65 e0       	ldi	r22, 0x05	; 5
    3ac2:	49 2f       	mov	r20, r25
    3ac4:	ee 24       	eor	r14, r14
    3ac6:	0e 94 25 1d 	call	0x3a4a	;  0x3a4a
    3aca:	0f 91       	pop	r16
    3acc:	ef 90       	pop	r14
    3ace:	08 95       	ret
    3ad0:	ef 92       	push	r14
    3ad2:	0f 93       	push	r16
    3ad4:	28 2f       	mov	r18, r24
    3ad6:	06 2f       	mov	r16, r22
    3ad8:	8a ea       	ldi	r24, 0xAA	; 170
    3ada:	66 e0       	ldi	r22, 0x06	; 6
    3adc:	48 e0       	ldi	r20, 0x08	; 8
    3ade:	ee 24       	eor	r14, r14
    3ae0:	0e 94 25 1d 	call	0x3a4a	;  0x3a4a
    3ae4:	0f 91       	pop	r16
    3ae6:	ef 90       	pop	r14
    3ae8:	08 95       	ret
    3aea:	ef 92       	push	r14
    3aec:	0f 93       	push	r16
    3aee:	28 2f       	mov	r18, r24
    3af0:	06 2f       	mov	r16, r22
    3af2:	e4 2e       	mov	r14, r20
    3af4:	8a ea       	ldi	r24, 0xAA	; 170
    3af6:	61 e0       	ldi	r22, 0x01	; 1
    3af8:	40 e0       	ldi	r20, 0x00	; 0
    3afa:	0e 94 25 1d 	call	0x3a4a	;  0x3a4a
    3afe:	0f 91       	pop	r16
    3b00:	ef 90       	pop	r14
    3b02:	08 95       	ret
    3b04:	ef 92       	push	r14
    3b06:	0f 93       	push	r16
    3b08:	98 2f       	mov	r25, r24
    3b0a:	36 2f       	mov	r19, r22
    3b0c:	04 2f       	mov	r16, r20
    3b0e:	e2 2e       	mov	r14, r18
    3b10:	8a ea       	ldi	r24, 0xAA	; 170
    3b12:	6e e0       	ldi	r22, 0x0E	; 14
    3b14:	49 2f       	mov	r20, r25
    3b16:	23 2f       	mov	r18, r19
    3b18:	0e 94 25 1d 	call	0x3a4a	;  0x3a4a
    3b1c:	0f 91       	pop	r16
    3b1e:	ef 90       	pop	r14
    3b20:	08 95       	ret
    3b22:	ef 92       	push	r14
    3b24:	0f 93       	push	r16
    3b26:	8a ea       	ldi	r24, 0xAA	; 170
    3b28:	6d e0       	ldi	r22, 0x0D	; 13
    3b2a:	40 e0       	ldi	r20, 0x00	; 0
    3b2c:	20 e0       	ldi	r18, 0x00	; 0
    3b2e:	00 e0       	ldi	r16, 0x00	; 0
    3b30:	ee 24       	eor	r14, r14
    3b32:	0e 94 25 1d 	call	0x3a4a	;  0x3a4a
    3b36:	0f 91       	pop	r16
    3b38:	ef 90       	pop	r14
    3b3a:	08 95       	ret
    3b3c:	cf 93       	push	r28
    3b3e:	df 93       	push	r29
    3b40:	c1 e0       	ldi	r28, 0x01	; 1
    3b42:	d5 e0       	ldi	r29, 0x05	; 5
    3b44:	87 ea       	ldi	r24, 0xA7	; 167
    3b46:	95 e0       	ldi	r25, 0x05	; 5
    3b48:	0e 94 45 21 	call	0x428a	;  0x428a
    3b4c:	18 16       	cp	r1, r24
    3b4e:	19 06       	cpc	r1, r25
    3b50:	cc f7       	brge	.-14     	;  0x3b44
    3b52:	87 ea       	ldi	r24, 0xA7	; 167
    3b54:	95 e0       	ldi	r25, 0x05	; 5
    3b56:	0e 94 70 21 	call	0x42e0	;  0x42e0
    3b5a:	89 93       	st	Y+, r24
    3b5c:	85 e0       	ldi	r24, 0x05	; 5
    3b5e:	c7 30       	cpi	r28, 0x07	; 7
    3b60:	d8 07       	cpc	r29, r24
    3b62:	81 f7       	brne	.-32     	;  0x3b44
    3b64:	df 91       	pop	r29
    3b66:	cf 91       	pop	r28
    3b68:	08 95       	ret
    3b6a:	87 e0       	ldi	r24, 0x07	; 7
    3b6c:	95 e0       	ldi	r25, 0x05	; 5
    3b6e:	62 e3       	ldi	r22, 0x32	; 50
    3b70:	71 e0       	ldi	r23, 0x01	; 1
    3b72:	0e 94 1d 02 	call	0x43a	;  0x43a
    3b76:	0e c0       	rjmp	.+28     	;  0x3b94
    3b78:	87 e0       	ldi	r24, 0x07	; 7
    3b7a:	95 e0       	ldi	r25, 0x05	; 5
    3b7c:	63 e4       	ldi	r22, 0x43	; 67
    3b7e:	71 e0       	ldi	r23, 0x01	; 1
    3b80:	0e 94 1d 02 	call	0x43a	;  0x43a
    3b84:	0e 94 91 1d 	call	0x3b22	;  0x3b22
    3b88:	62 e3       	ldi	r22, 0x32	; 50
    3b8a:	70 e0       	ldi	r23, 0x00	; 0
    3b8c:	80 e0       	ldi	r24, 0x00	; 0
    3b8e:	90 e0       	ldi	r25, 0x00	; 0
    3b90:	0e 94 49 2d 	call	0x5a92	;  0x5a92
    3b94:	87 ea       	ldi	r24, 0xA7	; 167
    3b96:	95 e0       	ldi	r25, 0x05	; 5
    3b98:	0e 94 45 21 	call	0x428a	;  0x428a
    3b9c:	18 16       	cp	r1, r24
    3b9e:	19 06       	cpc	r1, r25
    3ba0:	5c f7       	brge	.-42     	;  0x3b78
    3ba2:	0e 94 9e 1d 	call	0x3b3c	;  0x3b3c
    3ba6:	81 e0       	ldi	r24, 0x01	; 1
    3ba8:	95 e0       	ldi	r25, 0x05	; 5
    3baa:	6d e0       	ldi	r22, 0x0D	; 13
    3bac:	40 e0       	ldi	r20, 0x00	; 0
    3bae:	20 e0       	ldi	r18, 0x00	; 0
    3bb0:	0e 94 ba 1c 	call	0x3974	;  0x3974
    3bb4:	88 23       	and	r24, r24
    3bb6:	71 f3       	breq	.-36     	;  0x3b94
    3bb8:	87 e0       	ldi	r24, 0x07	; 7
    3bba:	95 e0       	ldi	r25, 0x05	; 5
    3bbc:	65 e4       	ldi	r22, 0x45	; 69
    3bbe:	71 e0       	ldi	r23, 0x01	; 1
    3bc0:	0e 94 1d 02 	call	0x43a	;  0x43a
    3bc4:	0e 94 9e 1d 	call	0x3b3c	;  0x3b3c
    3bc8:	20 e0       	ldi	r18, 0x00	; 0
    3bca:	30 e0       	ldi	r19, 0x00	; 0
    3bcc:	f9 01       	movw	r30, r18
    3bce:	ef 5f       	subi	r30, 0xFF	; 255
    3bd0:	fa 4f       	sbci	r31, 0xFA	; 250
    3bd2:	d9 01       	movw	r26, r18
    3bd4:	a7 5c       	subi	r26, 0xC7	; 199
    3bd6:	bd 4f       	sbci	r27, 0xFD	; 253
    3bd8:	90 81       	ld	r25, Z
    3bda:	8c 91       	ld	r24, X
    3bdc:	98 17       	cp	r25, r24
    3bde:	d1 f6       	brne	.-76     	;  0x3b94
    3be0:	2f 5f       	subi	r18, 0xFF	; 255
    3be2:	3f 4f       	sbci	r19, 0xFF	; 255
    3be4:	26 30       	cpi	r18, 0x06	; 6
    3be6:	31 05       	cpc	r19, r1
    3be8:	89 f7       	brne	.-30     	;  0x3bcc
    3bea:	87 e0       	ldi	r24, 0x07	; 7
    3bec:	95 e0       	ldi	r25, 0x05	; 5
    3bee:	64 e5       	ldi	r22, 0x54	; 84
    3bf0:	71 e0       	ldi	r23, 0x01	; 1
    3bf2:	0e 94 1d 02 	call	0x43a	;  0x43a
    3bf6:	8d e0       	ldi	r24, 0x0D	; 13
    3bf8:	60 e0       	ldi	r22, 0x00	; 0
    3bfa:	40 e0       	ldi	r20, 0x00	; 0
    3bfc:	20 e0       	ldi	r18, 0x00	; 0
    3bfe:	0e 94 82 1d 	call	0x3b04	;  0x3b04
    3c02:	08 95       	ret
    3c04:	87 ea       	ldi	r24, 0xA7	; 167
    3c06:	95 e0       	ldi	r25, 0x05	; 5
    3c08:	40 e0       	ldi	r20, 0x00	; 0
    3c0a:	52 ec       	ldi	r21, 0xC2	; 194
    3c0c:	61 e0       	ldi	r22, 0x01	; 1
    3c0e:	70 e0       	ldi	r23, 0x00	; 0
    3c10:	0e 94 c2 20 	call	0x4184	;  0x4184
    3c14:	87 e0       	ldi	r24, 0x07	; 7
    3c16:	95 e0       	ldi	r25, 0x05	; 5
    3c18:	40 e8       	ldi	r20, 0x80	; 128
    3c1a:	55 e2       	ldi	r21, 0x25	; 37
    3c1c:	60 e0       	ldi	r22, 0x00	; 0
    3c1e:	70 e0       	ldi	r23, 0x00	; 0
    3c20:	0e 94 3b 02 	call	0x476	;  0x476
    3c24:	82 e0       	ldi	r24, 0x02	; 2
    3c26:	60 e0       	ldi	r22, 0x00	; 0
    3c28:	0e 94 b4 2d 	call	0x5b68	;  0x5b68
    3c2c:	83 e0       	ldi	r24, 0x03	; 3
    3c2e:	61 e0       	ldi	r22, 0x01	; 1
    3c30:	0e 94 b4 2d 	call	0x5b68	;  0x5b68
    3c34:	8a e0       	ldi	r24, 0x0A	; 10
    3c36:	61 e0       	ldi	r22, 0x01	; 1
    3c38:	0e 94 b4 2d 	call	0x5b68	;  0x5b68
    3c3c:	8d e9       	ldi	r24, 0x9D	; 157
    3c3e:	94 e0       	ldi	r25, 0x04	; 4
    3c40:	64 e0       	ldi	r22, 0x04	; 4
    3c42:	0e 94 f5 1a 	call	0x35ea	;  0x35ea
    3c46:	88 23       	and	r24, r24
    3c48:	39 f4       	brne	.+14     	;  0x3c58
    3c4a:	87 e0       	ldi	r24, 0x07	; 7
    3c4c:	95 e0       	ldi	r25, 0x05	; 5
    3c4e:	64 e6       	ldi	r22, 0x64	; 100
    3c50:	71 e0       	ldi	r23, 0x01	; 1
    3c52:	0e 94 1d 02 	call	0x43a	;  0x43a
    3c56:	08 95       	ret
    3c58:	87 e0       	ldi	r24, 0x07	; 7
    3c5a:	95 e0       	ldi	r25, 0x05	; 5
    3c5c:	6e e6       	ldi	r22, 0x6E	; 110
    3c5e:	71 e0       	ldi	r23, 0x01	; 1
    3c60:	0e 94 1d 02 	call	0x43a	;  0x43a
    3c64:	0e 94 b5 1d 	call	0x3b6a	;  0x3b6a
    3c68:	60 ed       	ldi	r22, 0xD0	; 208
    3c6a:	77 e0       	ldi	r23, 0x07	; 7
    3c6c:	80 e0       	ldi	r24, 0x00	; 0
    3c6e:	90 e0       	ldi	r25, 0x00	; 0
    3c70:	0e 94 49 2d 	call	0x5a92	;  0x5a92
    3c74:	08 95       	ret
    3c76:	6f 92       	push	r6
    3c78:	7f 92       	push	r7
    3c7a:	8f 92       	push	r8
    3c7c:	9f 92       	push	r9
    3c7e:	af 92       	push	r10
    3c80:	bf 92       	push	r11
    3c82:	cf 92       	push	r12
    3c84:	df 92       	push	r13
    3c86:	ef 92       	push	r14
    3c88:	ff 92       	push	r15
    3c8a:	0f 93       	push	r16
    3c8c:	1f 93       	push	r17
    3c8e:	df 93       	push	r29
    3c90:	cf 93       	push	r28
    3c92:	cd b7       	in	r28, 0x3d	; 61
    3c94:	de b7       	in	r29, 0x3e	; 62
    3c96:	6d b6       	in	r6, 0x3d	; 61
    3c98:	7e b6       	in	r7, 0x3e	; 62
    3c9a:	87 e0       	ldi	r24, 0x07	; 7
    3c9c:	95 e0       	ldi	r25, 0x05	; 5
    3c9e:	69 e7       	ldi	r22, 0x79	; 121
    3ca0:	71 e0       	ldi	r23, 0x01	; 1
    3ca2:	0e 94 1d 02 	call	0x43a	;  0x43a
    3ca6:	62 e3       	ldi	r22, 0x32	; 50
    3ca8:	70 e0       	ldi	r23, 0x00	; 0
    3caa:	80 e0       	ldi	r24, 0x00	; 0
    3cac:	90 e0       	ldi	r25, 0x00	; 0
    3cae:	0e 94 49 2d 	call	0x5a92	;  0x5a92
    3cb2:	87 e0       	ldi	r24, 0x07	; 7
    3cb4:	67 e0       	ldi	r22, 0x07	; 7
    3cb6:	47 e0       	ldi	r20, 0x07	; 7
    3cb8:	0e 94 75 1d 	call	0x3aea	;  0x3aea
    3cbc:	0e 94 9e 1d 	call	0x3b3c	;  0x3b3c
    3cc0:	81 e0       	ldi	r24, 0x01	; 1
    3cc2:	95 e0       	ldi	r25, 0x05	; 5
    3cc4:	61 e0       	ldi	r22, 0x01	; 1
    3cc6:	40 e0       	ldi	r20, 0x00	; 0
    3cc8:	20 e0       	ldi	r18, 0x00	; 0
    3cca:	0e 94 ba 1c 	call	0x3974	;  0x3974
    3cce:	88 23       	and	r24, r24
    3cd0:	09 f4       	brne	.+2      	;  0x3cd4
    3cd2:	c5 c0       	rjmp	.+394    	;  0x3e5e
    3cd4:	87 e0       	ldi	r24, 0x07	; 7
    3cd6:	95 e0       	ldi	r25, 0x05	; 5
    3cd8:	65 e4       	ldi	r22, 0x45	; 69
    3cda:	71 e0       	ldi	r23, 0x01	; 1
    3cdc:	0e 94 1d 02 	call	0x43a	;  0x43a
    3ce0:	87 e0       	ldi	r24, 0x07	; 7
    3ce2:	95 e0       	ldi	r25, 0x05	; 5
    3ce4:	6b e8       	ldi	r22, 0x8B	; 139
    3ce6:	71 e0       	ldi	r23, 0x01	; 1
    3ce8:	0e 94 1d 02 	call	0x43a	;  0x43a
    3cec:	62 e3       	ldi	r22, 0x32	; 50
    3cee:	70 e0       	ldi	r23, 0x00	; 0
    3cf0:	80 e0       	ldi	r24, 0x00	; 0
    3cf2:	90 e0       	ldi	r25, 0x00	; 0
    3cf4:	0e 94 49 2d 	call	0x5a92	;  0x5a92
    3cf8:	80 e4       	ldi	r24, 0x40	; 64
    3cfa:	60 e0       	ldi	r22, 0x00	; 0
    3cfc:	0e 94 68 1d 	call	0x3ad0	;  0x3ad0
    3d00:	0e 94 9e 1d 	call	0x3b3c	;  0x3b3c
    3d04:	81 e0       	ldi	r24, 0x01	; 1
    3d06:	95 e0       	ldi	r25, 0x05	; 5
    3d08:	66 e0       	ldi	r22, 0x06	; 6
    3d0a:	40 e0       	ldi	r20, 0x00	; 0
    3d0c:	20 e0       	ldi	r18, 0x00	; 0
    3d0e:	0e 94 ba 1c 	call	0x3974	;  0x3974
    3d12:	88 23       	and	r24, r24
    3d14:	09 f4       	brne	.+2      	;  0x3d18
    3d16:	a3 c0       	rjmp	.+326    	;  0x3e5e
    3d18:	87 e0       	ldi	r24, 0x07	; 7
    3d1a:	95 e0       	ldi	r25, 0x05	; 5
    3d1c:	64 ea       	ldi	r22, 0xA4	; 164
    3d1e:	71 e0       	ldi	r23, 0x01	; 1
    3d20:	0e 94 1d 02 	call	0x43a	;  0x43a
    3d24:	87 e0       	ldi	r24, 0x07	; 7
    3d26:	95 e0       	ldi	r25, 0x05	; 5
    3d28:	62 eb       	ldi	r22, 0xB2	; 178
    3d2a:	71 e0       	ldi	r23, 0x01	; 1
    3d2c:	0e 94 1d 02 	call	0x43a	;  0x43a
    3d30:	62 e3       	ldi	r22, 0x32	; 50
    3d32:	70 e0       	ldi	r23, 0x00	; 0
    3d34:	80 e0       	ldi	r24, 0x00	; 0
    3d36:	90 e0       	ldi	r25, 0x00	; 0
    3d38:	0e 94 49 2d 	call	0x5a92	;  0x5a92
    3d3c:	80 e0       	ldi	r24, 0x00	; 0
    3d3e:	60 e0       	ldi	r22, 0x00	; 0
    3d40:	40 e0       	ldi	r20, 0x00	; 0
    3d42:	0e 94 5a 1d 	call	0x3ab4	;  0x3ab4
    3d46:	0e 94 9e 1d 	call	0x3b3c	;  0x3b3c
    3d4a:	81 e0       	ldi	r24, 0x01	; 1
    3d4c:	95 e0       	ldi	r25, 0x05	; 5
    3d4e:	65 e0       	ldi	r22, 0x05	; 5
    3d50:	40 e0       	ldi	r20, 0x00	; 0
    3d52:	20 e0       	ldi	r18, 0x00	; 0
    3d54:	0e 94 ba 1c 	call	0x3974	;  0x3974
    3d58:	88 23       	and	r24, r24
    3d5a:	09 f4       	brne	.+2      	;  0x3d5e
    3d5c:	80 c0       	rjmp	.+256    	;  0x3e5e
    3d5e:	87 e0       	ldi	r24, 0x07	; 7
    3d60:	95 e0       	ldi	r25, 0x05	; 5
    3d62:	65 e4       	ldi	r22, 0x45	; 69
    3d64:	71 e0       	ldi	r23, 0x01	; 1
    3d66:	0e 94 1d 02 	call	0x43a	;  0x43a
    3d6a:	87 e0       	ldi	r24, 0x07	; 7
    3d6c:	95 e0       	ldi	r25, 0x05	; 5
    3d6e:	65 ec       	ldi	r22, 0xC5	; 197
    3d70:	71 e0       	ldi	r23, 0x01	; 1
    3d72:	0e 94 1d 02 	call	0x43a	;  0x43a
    3d76:	62 e3       	ldi	r22, 0x32	; 50
    3d78:	70 e0       	ldi	r23, 0x00	; 0
    3d7a:	80 e0       	ldi	r24, 0x00	; 0
    3d7c:	90 e0       	ldi	r25, 0x00	; 0
    3d7e:	0e 94 49 2d 	call	0x5a92	;  0x5a92
    3d82:	81 e0       	ldi	r24, 0x01	; 1
    3d84:	0e 94 4d 1d 	call	0x3a9a	;  0x3a9a
    3d88:	0e 94 9e 1d 	call	0x3b3c	;  0x3b3c
    3d8c:	81 e0       	ldi	r24, 0x01	; 1
    3d8e:	95 e0       	ldi	r25, 0x05	; 5
    3d90:	64 e0       	ldi	r22, 0x04	; 4
    3d92:	40 e0       	ldi	r20, 0x00	; 0
    3d94:	20 e0       	ldi	r18, 0x00	; 0
    3d96:	0e 94 ba 1c 	call	0x3974	;  0x3974
    3d9a:	88 23       	and	r24, r24
    3d9c:	09 f4       	brne	.+2      	;  0x3da0
    3d9e:	5f c0       	rjmp	.+190    	;  0x3e5e
    3da0:	87 e0       	ldi	r24, 0x07	; 7
    3da2:	95 e0       	ldi	r25, 0x05	; 5
    3da4:	65 e4       	ldi	r22, 0x45	; 69
    3da6:	71 e0       	ldi	r23, 0x01	; 1
    3da8:	0e 94 1d 02 	call	0x43a	;  0x43a
    3dac:	0e 94 9e 1d 	call	0x3b3c	;  0x3b3c
    3db0:	80 91 01 05 	lds	r24, 0x0501
    3db4:	8a 3a       	cpi	r24, 0xAA	; 170
    3db6:	09 f0       	breq	.+2      	;  0x3dba
    3db8:	52 c0       	rjmp	.+164    	;  0x3e5e
    3dba:	80 91 02 05 	lds	r24, 0x0502
    3dbe:	8a 30       	cpi	r24, 0x0A	; 10
    3dc0:	09 f0       	breq	.+2      	;  0x3dc4
    3dc2:	4d c0       	rjmp	.+154    	;  0x3e5e
    3dc4:	61 c0       	rjmp	.+194    	;  0x3e88
    3dc6:	80 e0       	ldi	r24, 0x00	; 0
    3dc8:	60 e0       	ldi	r22, 0x00	; 0
    3dca:	4e 2d       	mov	r20, r14
    3dcc:	2f 2d       	mov	r18, r15
    3dce:	0e 94 82 1d 	call	0x3b04	;  0x3b04
    3dd2:	00 e0       	ldi	r16, 0x00	; 0
    3dd4:	10 e0       	ldi	r17, 0x00	; 0
    3dd6:	87 ea       	ldi	r24, 0xA7	; 167
    3dd8:	95 e0       	ldi	r25, 0x05	; 5
    3dda:	0e 94 45 21 	call	0x428a	;  0x428a
    3dde:	18 16       	cp	r1, r24
    3de0:	19 06       	cpc	r1, r25
    3de2:	cc f7       	brge	.-14     	;  0x3dd6
    3de4:	87 ea       	ldi	r24, 0xA7	; 167
    3de6:	95 e0       	ldi	r25, 0x05	; 5
    3de8:	0e 94 70 21 	call	0x42e0	;  0x42e0
    3dec:	68 2f       	mov	r22, r24
    3dee:	f4 01       	movw	r30, r8
    3df0:	e0 0f       	add	r30, r16
    3df2:	f1 1f       	adc	r31, r17
    3df4:	80 83       	st	Z, r24
    3df6:	04 30       	cpi	r16, 0x04	; 4
    3df8:	11 05       	cpc	r17, r1
    3dfa:	c4 f0       	brlt	.+48     	;  0x3e2c
    3dfc:	0e 33       	cpi	r16, 0x3E	; 62
    3dfe:	11 05       	cpc	r17, r1
    3e00:	a8 f4       	brcc	.+42     	;  0x3e2c
    3e02:	81 e2       	ldi	r24, 0x21	; 33
    3e04:	95 e0       	ldi	r25, 0x05	; 5
    3e06:	40 e0       	ldi	r20, 0x00	; 0
    3e08:	50 e0       	ldi	r21, 0x00	; 0
    3e0a:	0e 94 0e 23 	call	0x461c	;  0x461c
    3e0e:	8f ef       	ldi	r24, 0xFF	; 255
    3e10:	c8 16       	cp	r12, r24
    3e12:	81 e0       	ldi	r24, 0x01	; 1
    3e14:	d8 06       	cpc	r13, r24
    3e16:	39 f4       	brne	.+14     	;  0x3e26
    3e18:	81 e2       	ldi	r24, 0x21	; 33
    3e1a:	95 e0       	ldi	r25, 0x05	; 5
    3e1c:	0e 94 35 1a 	call	0x346a	;  0x346a
    3e20:	cc 24       	eor	r12, r12
    3e22:	ca 94       	dec	r12
    3e24:	dc 2c       	mov	r13, r12
    3e26:	08 94       	sec
    3e28:	c1 1c       	adc	r12, r1
    3e2a:	d1 1c       	adc	r13, r1
    3e2c:	0f 5f       	subi	r16, 0xFF	; 255
    3e2e:	1f 4f       	sbci	r17, 0xFF	; 255
    3e30:	00 34       	cpi	r16, 0x40	; 64
    3e32:	11 05       	cpc	r17, r1
    3e34:	81 f6       	brne	.-96     	;  0x3dd6
    3e36:	08 94       	sec
    3e38:	e1 1c       	adc	r14, r1
    3e3a:	f1 1c       	adc	r15, r1
    3e3c:	ea 14       	cp	r14, r10
    3e3e:	fb 04       	cpc	r15, r11
    3e40:	10 f2       	brcs	.-124    	;  0x3dc6
    3e42:	8a e0       	ldi	r24, 0x0A	; 10
    3e44:	60 e0       	ldi	r22, 0x00	; 0
    3e46:	40 ef       	ldi	r20, 0xF0	; 240
    3e48:	20 ef       	ldi	r18, 0xF0	; 240
    3e4a:	0e 94 82 1d 	call	0x3b04	;  0x3b04
    3e4e:	87 e0       	ldi	r24, 0x07	; 7
    3e50:	95 e0       	ldi	r25, 0x05	; 5
    3e52:	6a ed       	ldi	r22, 0xDA	; 218
    3e54:	71 e0       	ldi	r23, 0x01	; 1
    3e56:	0e 94 1d 02 	call	0x43a	;  0x43a
    3e5a:	81 e0       	ldi	r24, 0x01	; 1
    3e5c:	01 c0       	rjmp	.+2      	;  0x3e60
    3e5e:	80 e0       	ldi	r24, 0x00	; 0
    3e60:	0f b6       	in	r0, 0x3f	; 63
    3e62:	f8 94       	cli
    3e64:	7e be       	out	0x3e, r7	; 62
    3e66:	0f be       	out	0x3f, r0	; 63
    3e68:	6d be       	out	0x3d, r6	; 61
    3e6a:	cf 91       	pop	r28
    3e6c:	df 91       	pop	r29
    3e6e:	1f 91       	pop	r17
    3e70:	0f 91       	pop	r16
    3e72:	ff 90       	pop	r15
    3e74:	ef 90       	pop	r14
    3e76:	df 90       	pop	r13
    3e78:	cf 90       	pop	r12
    3e7a:	bf 90       	pop	r11
    3e7c:	af 90       	pop	r10
    3e7e:	9f 90       	pop	r9
    3e80:	8f 90       	pop	r8
    3e82:	7f 90       	pop	r7
    3e84:	6f 90       	pop	r6
    3e86:	08 95       	ret
    3e88:	87 e0       	ldi	r24, 0x07	; 7
    3e8a:	95 e0       	ldi	r25, 0x05	; 5
    3e8c:	6b ee       	ldi	r22, 0xEB	; 235
    3e8e:	71 e0       	ldi	r23, 0x01	; 1
    3e90:	0e 94 1d 02 	call	0x43a	;  0x43a
    3e94:	60 91 06 05 	lds	r22, 0x0506
    3e98:	70 e0       	ldi	r23, 0x00	; 0
    3e9a:	80 e0       	ldi	r24, 0x00	; 0
    3e9c:	90 e0       	ldi	r25, 0x00	; 0
    3e9e:	98 2f       	mov	r25, r24
    3ea0:	87 2f       	mov	r24, r23
    3ea2:	76 2f       	mov	r23, r22
    3ea4:	66 27       	eor	r22, r22
    3ea6:	20 91 05 05 	lds	r18, 0x0505
    3eaa:	30 e0       	ldi	r19, 0x00	; 0
    3eac:	40 e0       	ldi	r20, 0x00	; 0
    3eae:	50 e0       	ldi	r21, 0x00	; 0
    3eb0:	62 2b       	or	r22, r18
    3eb2:	73 2b       	or	r23, r19
    3eb4:	84 2b       	or	r24, r20
    3eb6:	95 2b       	or	r25, r21
    3eb8:	98 2f       	mov	r25, r24
    3eba:	87 2f       	mov	r24, r23
    3ebc:	76 2f       	mov	r23, r22
    3ebe:	66 27       	eor	r22, r22
    3ec0:	20 91 04 05 	lds	r18, 0x0504
    3ec4:	30 e0       	ldi	r19, 0x00	; 0
    3ec6:	40 e0       	ldi	r20, 0x00	; 0
    3ec8:	50 e0       	ldi	r21, 0x00	; 0
    3eca:	62 2b       	or	r22, r18
    3ecc:	73 2b       	or	r23, r19
    3ece:	84 2b       	or	r24, r20
    3ed0:	95 2b       	or	r25, r21
    3ed2:	2a e3       	ldi	r18, 0x3A	; 58
    3ed4:	30 e0       	ldi	r19, 0x00	; 0
    3ed6:	40 e0       	ldi	r20, 0x00	; 0
    3ed8:	50 e0       	ldi	r21, 0x00	; 0
    3eda:	0e 94 c1 30 	call	0x6182	;  0x6182
    3ede:	59 01       	movw	r10, r18
    3ee0:	87 e0       	ldi	r24, 0x07	; 7
    3ee2:	95 e0       	ldi	r25, 0x05	; 5
    3ee4:	6b ef       	ldi	r22, 0xFB	; 251
    3ee6:	71 e0       	ldi	r23, 0x01	; 1
    3ee8:	0e 94 1d 02 	call	0x43a	;  0x43a
    3eec:	a5 01       	movw	r20, r10
    3eee:	60 e0       	ldi	r22, 0x00	; 0
    3ef0:	70 e0       	ldi	r23, 0x00	; 0
    3ef2:	87 e0       	ldi	r24, 0x07	; 7
    3ef4:	95 e0       	ldi	r25, 0x05	; 5
    3ef6:	2a e0       	ldi	r18, 0x0A	; 10
    3ef8:	30 e0       	ldi	r19, 0x00	; 0
    3efa:	0e 94 02 02 	call	0x404	;  0x404
    3efe:	87 e0       	ldi	r24, 0x07	; 7
    3f00:	95 e0       	ldi	r25, 0x05	; 5
    3f02:	0e 94 8e 01 	call	0x31c	;  0x31c
    3f06:	8d b7       	in	r24, 0x3d	; 61
    3f08:	9e b7       	in	r25, 0x3e	; 62
    3f0a:	80 54       	subi	r24, 0x40	; 64
    3f0c:	90 40       	sbci	r25, 0x00	; 0
    3f0e:	0f b6       	in	r0, 0x3f	; 63
    3f10:	f8 94       	cli
    3f12:	9e bf       	out	0x3e, r25	; 62
    3f14:	0f be       	out	0x3f, r0	; 63
    3f16:	8d bf       	out	0x3d, r24	; 61
    3f18:	8d b6       	in	r8, 0x3d	; 61
    3f1a:	9e b6       	in	r9, 0x3e	; 62
    3f1c:	08 94       	sec
    3f1e:	81 1c       	adc	r8, r1
    3f20:	91 1c       	adc	r9, r1
    3f22:	cc 24       	eor	r12, r12
    3f24:	dd 24       	eor	r13, r13
    3f26:	ee 24       	eor	r14, r14
    3f28:	ff 24       	eor	r15, r15
    3f2a:	88 cf       	rjmp	.-240    	;  0x3e3c
    3f2c:	df 93       	push	r29
    3f2e:	cf 93       	push	r28
    3f30:	00 d0       	rcall	.+0      	;  0x3f32
    3f32:	cd b7       	in	r28, 0x3d	; 61
    3f34:	de b7       	in	r29, 0x3e	; 62
    3f36:	ac 01       	movw	r20, r24
    3f38:	ce 01       	movw	r24, r28
    3f3a:	01 96       	adiw	r24, 0x01	; 1
    3f3c:	6d e9       	ldi	r22, 0x9D	; 157
    3f3e:	74 e0       	ldi	r23, 0x04	; 4
    3f40:	22 e1       	ldi	r18, 0x12	; 18
    3f42:	0e 94 a0 1c 	call	0x3940	;  0x3940
    3f46:	0f 90       	pop	r0
    3f48:	0f 90       	pop	r0
    3f4a:	cf 91       	pop	r28
    3f4c:	df 91       	pop	r29
    3f4e:	08 95       	ret
    3f50:	8f 92       	push	r8
    3f52:	9f 92       	push	r9
    3f54:	af 92       	push	r10
    3f56:	bf 92       	push	r11
    3f58:	cf 92       	push	r12
    3f5a:	df 92       	push	r13
    3f5c:	ef 92       	push	r14
    3f5e:	ff 92       	push	r15
    3f60:	0f 93       	push	r16
    3f62:	1f 93       	push	r17
    3f64:	cf 93       	push	r28
    3f66:	df 93       	push	r29
    3f68:	87 e0       	ldi	r24, 0x07	; 7
    3f6a:	95 e0       	ldi	r25, 0x05	; 5
    3f6c:	0e 94 5a 02 	call	0x4b4	;  0x4b4
    3f70:	c0 e0       	ldi	r28, 0x00	; 0
    3f72:	d0 e0       	ldi	r29, 0x00	; 0
    3f74:	0f e0       	ldi	r16, 0x0F	; 15
    3f76:	15 e0       	ldi	r17, 0x05	; 5
    3f78:	7d e0       	ldi	r23, 0x0D	; 13
    3f7a:	87 2e       	mov	r8, r23
    3f7c:	91 2c       	mov	r9, r1
    3f7e:	60 e1       	ldi	r22, 0x10	; 16
    3f80:	a6 2e       	mov	r10, r22
    3f82:	62 e0       	ldi	r22, 0x02	; 2
    3f84:	b6 2e       	mov	r11, r22
    3f86:	5f e3       	ldi	r21, 0x3F	; 63
    3f88:	c5 2e       	mov	r12, r21
    3f8a:	52 e0       	ldi	r21, 0x02	; 2
    3f8c:	d5 2e       	mov	r13, r21
    3f8e:	44 e4       	ldi	r20, 0x44	; 68
    3f90:	e4 2e       	mov	r14, r20
    3f92:	42 e0       	ldi	r20, 0x02	; 2
    3f94:	f4 2e       	mov	r15, r20
    3f96:	21 96       	adiw	r28, 0x01	; 1
    3f98:	8d b7       	in	r24, 0x3d	; 61
    3f9a:	9e b7       	in	r25, 0x3e	; 62
    3f9c:	0c 97       	sbiw	r24, 0x0c	; 12
    3f9e:	0f b6       	in	r0, 0x3f	; 63
    3fa0:	f8 94       	cli
    3fa2:	9e bf       	out	0x3e, r25	; 62
    3fa4:	0f be       	out	0x3f, r0	; 63
    3fa6:	8d bf       	out	0x3d, r24	; 61
    3fa8:	ed b7       	in	r30, 0x3d	; 61
    3faa:	fe b7       	in	r31, 0x3e	; 62
    3fac:	31 96       	adiw	r30, 0x01	; 1
    3fae:	ad b7       	in	r26, 0x3d	; 61
    3fb0:	be b7       	in	r27, 0x3e	; 62
    3fb2:	12 96       	adiw	r26, 0x02	; 2
    3fb4:	1c 93       	st	X, r17
    3fb6:	0e 93       	st	-X, r16
    3fb8:	11 97       	sbiw	r26, 0x01	; 1
    3fba:	93 82       	std	Z+3, r9	; 0x03
    3fbc:	82 82       	std	Z+2, r8	; 0x02
    3fbe:	b5 82       	std	Z+5, r11	; 0x05
    3fc0:	a4 82       	std	Z+4, r10	; 0x04
    3fc2:	d7 82       	std	Z+7, r13	; 0x07
    3fc4:	c6 82       	std	Z+6, r12	; 0x06
    3fc6:	d1 87       	std	Z+9, r29	; 0x09
    3fc8:	c0 87       	std	Z+8, r28	; 0x08
    3fca:	f3 86       	std	Z+11, r15	; 0x0b
    3fcc:	e2 86       	std	Z+10, r14	; 0x0a
    3fce:	0e 94 37 34 	call	0x686e	;  0x686e
    3fd2:	8d b7       	in	r24, 0x3d	; 61
    3fd4:	9e b7       	in	r25, 0x3e	; 62
    3fd6:	0c 96       	adiw	r24, 0x0c	; 12
    3fd8:	0f b6       	in	r0, 0x3f	; 63
    3fda:	f8 94       	cli
    3fdc:	9e bf       	out	0x3e, r25	; 62
    3fde:	0f be       	out	0x3f, r0	; 63
    3fe0:	8d bf       	out	0x3d, r24	; 61
    3fe2:	8d e9       	ldi	r24, 0x9D	; 157
    3fe4:	94 e0       	ldi	r25, 0x04	; 4
    3fe6:	b8 01       	movw	r22, r16
    3fe8:	0e 94 94 1c 	call	0x3928	;  0x3928
    3fec:	88 23       	and	r24, r24
    3fee:	99 f6       	brne	.-90     	;  0x3f96
    3ff0:	87 e0       	ldi	r24, 0x07	; 7
    3ff2:	95 e0       	ldi	r25, 0x05	; 5
    3ff4:	b8 01       	movw	r22, r16
    3ff6:	0e 94 30 02 	call	0x460	;  0x460
    3ffa:	c8 01       	movw	r24, r16
    3ffc:	0e 94 96 1f 	call	0x3f2c	;  0x3f2c
    4000:	0e 94 3b 1e 	call	0x3c76	;  0x3c76
    4004:	88 23       	and	r24, r24
    4006:	69 f0       	breq	.+26     	;  0x4022
    4008:	87 e0       	ldi	r24, 0x07	; 7
    400a:	95 e0       	ldi	r25, 0x05	; 5
    400c:	67 e1       	ldi	r22, 0x17	; 23
    400e:	72 e0       	ldi	r23, 0x02	; 2
    4010:	0e 94 1d 02 	call	0x43a	;  0x43a
    4014:	60 ed       	ldi	r22, 0xD0	; 208
    4016:	77 e0       	ldi	r23, 0x07	; 7
    4018:	80 e0       	ldi	r24, 0x00	; 0
    401a:	90 e0       	ldi	r25, 0x00	; 0
    401c:	0e 94 49 2d 	call	0x5a92	;  0x5a92
    4020:	06 c0       	rjmp	.+12     	;  0x402e
    4022:	87 e0       	ldi	r24, 0x07	; 7
    4024:	95 e0       	ldi	r25, 0x05	; 5
    4026:	64 e2       	ldi	r22, 0x24	; 36
    4028:	72 e0       	ldi	r23, 0x02	; 2
    402a:	0e 94 1d 02 	call	0x43a	;  0x43a
    402e:	81 e2       	ldi	r24, 0x21	; 33
    4030:	95 e0       	ldi	r25, 0x05	; 5
    4032:	0e 94 2b 1a 	call	0x3456	;  0x3456
    4036:	df 91       	pop	r29
    4038:	cf 91       	pop	r28
    403a:	1f 91       	pop	r17
    403c:	0f 91       	pop	r16
    403e:	ff 90       	pop	r15
    4040:	ef 90       	pop	r14
    4042:	df 90       	pop	r13
    4044:	cf 90       	pop	r12
    4046:	bf 90       	pop	r11
    4048:	af 90       	pop	r10
    404a:	9f 90       	pop	r9
    404c:	8f 90       	pop	r8
    404e:	08 95       	ret
    4050:	0e 94 79 2d 	call	0x5af2	;  0x5af2
    4054:	0e 94 02 1e 	call	0x3c04	;  0x3c04
    4058:	0e 94 a8 1f 	call	0x3f50	;  0x3f50
    405c:	fd cf       	rjmp	.-6      	;  0x4058
    405e:	f8 94       	cli
    4060:	ff cf       	rjmp	.-2      	;  0x4060
    4062:	1f 92       	push	r1
    4064:	0f 92       	push	r0
    4066:	0f b6       	in	r0, 0x3f	; 63
    4068:	0f 92       	push	r0
    406a:	11 24       	eor	r1, r1
    406c:	2f 93       	push	r18
    406e:	3f 93       	push	r19
    4070:	4f 93       	push	r20
    4072:	8f 93       	push	r24
    4074:	9f 93       	push	r25
    4076:	ef 93       	push	r30
    4078:	ff 93       	push	r31
    407a:	40 91 c6 00 	lds	r20, 0x00C6
    407e:	e0 91 a3 05 	lds	r30, 0x05A3
    4082:	f0 91 a4 05 	lds	r31, 0x05A4
    4086:	31 96       	adiw	r30, 0x01	; 1
    4088:	9f 01       	movw	r18, r30
    408a:	2f 77       	andi	r18, 0x7F	; 127
    408c:	30 70       	andi	r19, 0x00	; 0
    408e:	31 97       	sbiw	r30, 0x01	; 1
    4090:	80 91 a5 05 	lds	r24, 0x05A5
    4094:	90 91 a6 05 	lds	r25, 0x05A6
    4098:	28 17       	cp	r18, r24
    409a:	39 07       	cpc	r19, r25
    409c:	39 f0       	breq	.+14     	;  0x40ac
    409e:	ed 5d       	subi	r30, 0xDD	; 221
    40a0:	fa 4f       	sbci	r31, 0xFA	; 250
    40a2:	40 83       	st	Z, r20
    40a4:	30 93 a4 05 	sts	0x05A4, r19
    40a8:	20 93 a3 05 	sts	0x05A3, r18
    40ac:	ff 91       	pop	r31
    40ae:	ef 91       	pop	r30
    40b0:	9f 91       	pop	r25
    40b2:	8f 91       	pop	r24
    40b4:	4f 91       	pop	r20
    40b6:	3f 91       	pop	r19
    40b8:	2f 91       	pop	r18
    40ba:	0f 90       	pop	r0
    40bc:	0f be       	out	0x3f, r0	; 63
    40be:	0f 90       	pop	r0
    40c0:	1f 90       	pop	r1
    40c2:	18 95       	reti
    40c4:	8f 92       	push	r8
    40c6:	af 92       	push	r10
    40c8:	cf 92       	push	r12
    40ca:	df 92       	push	r13
    40cc:	ef 92       	push	r14
    40ce:	ff 92       	push	r15
    40d0:	0f 93       	push	r16
    40d2:	1f 93       	push	r17
    40d4:	df 93       	push	r29
    40d6:	cf 93       	push	r28
    40d8:	cd b7       	in	r28, 0x3d	; 61
    40da:	de b7       	in	r29, 0x3e	; 62
    40dc:	fc 01       	movw	r30, r24
    40de:	8f e5       	ldi	r24, 0x5F	; 95
    40e0:	92 e0       	ldi	r25, 0x02	; 2
    40e2:	91 83       	std	Z+1, r25	; 0x01
    40e4:	80 83       	st	Z, r24
    40e6:	73 83       	std	Z+3, r23	; 0x03
    40e8:	62 83       	std	Z+2, r22	; 0x02
    40ea:	55 83       	std	Z+5, r21	; 0x05
    40ec:	44 83       	std	Z+4, r20	; 0x04
    40ee:	37 83       	std	Z+7, r19	; 0x07
    40f0:	26 83       	std	Z+6, r18	; 0x06
    40f2:	11 87       	std	Z+9, r17	; 0x09
    40f4:	00 87       	std	Z+8, r16	; 0x08
    40f6:	f3 86       	std	Z+11, r15	; 0x0b
    40f8:	e2 86       	std	Z+10, r14	; 0x0a
    40fa:	d5 86       	std	Z+13, r13	; 0x0d
    40fc:	c4 86       	std	Z+12, r12	; 0x0c
    40fe:	a6 86       	std	Z+14, r10	; 0x0e
    4100:	87 86       	std	Z+15, r8	; 0x0f
    4102:	8d 85       	ldd	r24, Y+13	; 0x0d
    4104:	80 8b       	std	Z+16, r24	; 0x10
    4106:	8e 85       	ldd	r24, Y+14	; 0x0e
    4108:	81 8b       	std	Z+17, r24	; 0x11
    410a:	8f 85       	ldd	r24, Y+15	; 0x0f
    410c:	82 8b       	std	Z+18, r24	; 0x12
    410e:	cf 91       	pop	r28
    4110:	df 91       	pop	r29
    4112:	1f 91       	pop	r17
    4114:	0f 91       	pop	r16
    4116:	ff 90       	pop	r15
    4118:	ef 90       	pop	r14
    411a:	df 90       	pop	r13
    411c:	cf 90       	pop	r12
    411e:	af 90       	pop	r10
    4120:	8f 90       	pop	r8
    4122:	08 95       	ret
    4124:	8f 92       	push	r8
    4126:	af 92       	push	r10
    4128:	cf 92       	push	r12
    412a:	df 92       	push	r13
    412c:	ef 92       	push	r14
    412e:	ff 92       	push	r15
    4130:	0f 93       	push	r16
    4132:	1f 93       	push	r17
    4134:	df 93       	push	r29
    4136:	cf 93       	push	r28
    4138:	cd b7       	in	r28, 0x3d	; 61
    413a:	de b7       	in	r29, 0x3e	; 62
    413c:	fc 01       	movw	r30, r24
    413e:	8f e5       	ldi	r24, 0x5F	; 95
    4140:	92 e0       	ldi	r25, 0x02	; 2
    4142:	91 83       	std	Z+1, r25	; 0x01
    4144:	80 83       	st	Z, r24
    4146:	73 83       	std	Z+3, r23	; 0x03
    4148:	62 83       	std	Z+2, r22	; 0x02
    414a:	55 83       	std	Z+5, r21	; 0x05
    414c:	44 83       	std	Z+4, r20	; 0x04
    414e:	37 83       	std	Z+7, r19	; 0x07
    4150:	26 83       	std	Z+6, r18	; 0x06
    4152:	11 87       	std	Z+9, r17	; 0x09
    4154:	00 87       	std	Z+8, r16	; 0x08
    4156:	f3 86       	std	Z+11, r15	; 0x0b
    4158:	e2 86       	std	Z+10, r14	; 0x0a
    415a:	d5 86       	std	Z+13, r13	; 0x0d
    415c:	c4 86       	std	Z+12, r12	; 0x0c
    415e:	a6 86       	std	Z+14, r10	; 0x0e
    4160:	87 86       	std	Z+15, r8	; 0x0f
    4162:	8d 85       	ldd	r24, Y+13	; 0x0d
    4164:	80 8b       	std	Z+16, r24	; 0x10
    4166:	8e 85       	ldd	r24, Y+14	; 0x0e
    4168:	81 8b       	std	Z+17, r24	; 0x11
    416a:	8f 85       	ldd	r24, Y+15	; 0x0f
    416c:	82 8b       	std	Z+18, r24	; 0x12
    416e:	cf 91       	pop	r28
    4170:	df 91       	pop	r29
    4172:	1f 91       	pop	r17
    4174:	0f 91       	pop	r16
    4176:	ff 90       	pop	r15
    4178:	ef 90       	pop	r14
    417a:	df 90       	pop	r13
    417c:	cf 90       	pop	r12
    417e:	af 90       	pop	r10
    4180:	8f 90       	pop	r8
    4182:	08 95       	ret
    4184:	cf 93       	push	r28
    4186:	df 93       	push	r29
    4188:	ec 01       	movw	r28, r24
    418a:	9a 01       	movw	r18, r20
    418c:	ab 01       	movw	r20, r22
    418e:	e8 85       	ldd	r30, Y+8	; 0x08
    4190:	f9 85       	ldd	r31, Y+9	; 0x09
    4192:	20 30       	cpi	r18, 0x00	; 0
    4194:	81 ee       	ldi	r24, 0xE1	; 225
    4196:	38 07       	cpc	r19, r24
    4198:	80 e0       	ldi	r24, 0x00	; 0
    419a:	48 07       	cpc	r20, r24
    419c:	80 e0       	ldi	r24, 0x00	; 0
    419e:	58 07       	cpc	r21, r24
    41a0:	09 f4       	brne	.+2      	;  0x41a4
    41a2:	45 c0       	rjmp	.+138    	;  0x422e
    41a4:	81 e0       	ldi	r24, 0x01	; 1
    41a6:	90 e0       	ldi	r25, 0x00	; 0
    41a8:	0a 88       	ldd	r0, Y+18	; 0x12
    41aa:	02 c0       	rjmp	.+4      	;  0x41b0
    41ac:	88 0f       	add	r24, r24
    41ae:	99 1f       	adc	r25, r25
    41b0:	0a 94       	dec	r0
    41b2:	e2 f7       	brpl	.-8      	;  0x41ac
    41b4:	80 83       	st	Z, r24
    41b6:	60 e0       	ldi	r22, 0x00	; 0
    41b8:	79 e0       	ldi	r23, 0x09	; 9
    41ba:	8d e3       	ldi	r24, 0x3D	; 61
    41bc:	90 e0       	ldi	r25, 0x00	; 0
    41be:	0e 94 c1 30 	call	0x6182	;  0x6182
    41c2:	21 50       	subi	r18, 0x01	; 1
    41c4:	30 40       	sbci	r19, 0x00	; 0
    41c6:	40 40       	sbci	r20, 0x00	; 0
    41c8:	50 40       	sbci	r21, 0x00	; 0
    41ca:	56 95       	lsr	r21
    41cc:	47 95       	ror	r20
    41ce:	37 95       	ror	r19
    41d0:	27 95       	ror	r18
    41d2:	ec 81       	ldd	r30, Y+4	; 0x04
    41d4:	fd 81       	ldd	r31, Y+5	; 0x05
    41d6:	30 83       	st	Z, r19
    41d8:	ee 81       	ldd	r30, Y+6	; 0x06
    41da:	ff 81       	ldd	r31, Y+7	; 0x07
    41dc:	20 83       	st	Z, r18
    41de:	ea 85       	ldd	r30, Y+10	; 0x0a
    41e0:	fb 85       	ldd	r31, Y+11	; 0x0b
    41e2:	20 81       	ld	r18, Z
    41e4:	41 e0       	ldi	r20, 0x01	; 1
    41e6:	50 e0       	ldi	r21, 0x00	; 0
    41e8:	ca 01       	movw	r24, r20
    41ea:	0e 84       	ldd	r0, Y+14	; 0x0e
    41ec:	02 c0       	rjmp	.+4      	;  0x41f2
    41ee:	88 0f       	add	r24, r24
    41f0:	99 1f       	adc	r25, r25
    41f2:	0a 94       	dec	r0
    41f4:	e2 f7       	brpl	.-8      	;  0x41ee
    41f6:	28 2b       	or	r18, r24
    41f8:	20 83       	st	Z, r18
    41fa:	ea 85       	ldd	r30, Y+10	; 0x0a
    41fc:	fb 85       	ldd	r31, Y+11	; 0x0b
    41fe:	20 81       	ld	r18, Z
    4200:	ca 01       	movw	r24, r20
    4202:	0f 84       	ldd	r0, Y+15	; 0x0f
    4204:	02 c0       	rjmp	.+4      	;  0x420a
    4206:	88 0f       	add	r24, r24
    4208:	99 1f       	adc	r25, r25
    420a:	0a 94       	dec	r0
    420c:	e2 f7       	brpl	.-8      	;  0x4206
    420e:	28 2b       	or	r18, r24
    4210:	20 83       	st	Z, r18
    4212:	ea 85       	ldd	r30, Y+10	; 0x0a
    4214:	fb 85       	ldd	r31, Y+11	; 0x0b
    4216:	80 81       	ld	r24, Z
    4218:	08 88       	ldd	r0, Y+16	; 0x10
    421a:	02 c0       	rjmp	.+4      	;  0x4220
    421c:	44 0f       	add	r20, r20
    421e:	55 1f       	adc	r21, r21
    4220:	0a 94       	dec	r0
    4222:	e2 f7       	brpl	.-8      	;  0x421c
    4224:	84 2b       	or	r24, r20
    4226:	80 83       	st	Z, r24
    4228:	df 91       	pop	r29
    422a:	cf 91       	pop	r28
    422c:	08 95       	ret
    422e:	10 82       	st	Z, r1
    4230:	20 e1       	ldi	r18, 0x10	; 16
    4232:	30 e0       	ldi	r19, 0x00	; 0
    4234:	ce cf       	rjmp	.-100    	;  0x41d2
    4236:	fc 01       	movw	r30, r24
    4238:	a2 85       	ldd	r26, Z+10	; 0x0a
    423a:	b3 85       	ldd	r27, Z+11	; 0x0b
    423c:	4c 91       	ld	r20, X
    423e:	21 e0       	ldi	r18, 0x01	; 1
    4240:	30 e0       	ldi	r19, 0x00	; 0
    4242:	c9 01       	movw	r24, r18
    4244:	06 84       	ldd	r0, Z+14	; 0x0e
    4246:	02 c0       	rjmp	.+4      	;  0x424c
    4248:	88 0f       	add	r24, r24
    424a:	99 1f       	adc	r25, r25
    424c:	0a 94       	dec	r0
    424e:	e2 f7       	brpl	.-8      	;  0x4248
    4250:	80 95       	com	r24
    4252:	84 23       	and	r24, r20
    4254:	8c 93       	st	X, r24
    4256:	a2 85       	ldd	r26, Z+10	; 0x0a
    4258:	b3 85       	ldd	r27, Z+11	; 0x0b
    425a:	4c 91       	ld	r20, X
    425c:	c9 01       	movw	r24, r18
    425e:	07 84       	ldd	r0, Z+15	; 0x0f
    4260:	02 c0       	rjmp	.+4      	;  0x4266
    4262:	88 0f       	add	r24, r24
    4264:	99 1f       	adc	r25, r25
    4266:	0a 94       	dec	r0
    4268:	e2 f7       	brpl	.-8      	;  0x4262
    426a:	80 95       	com	r24
    426c:	84 23       	and	r24, r20
    426e:	8c 93       	st	X, r24
    4270:	a2 85       	ldd	r26, Z+10	; 0x0a
    4272:	b3 85       	ldd	r27, Z+11	; 0x0b
    4274:	8c 91       	ld	r24, X
    4276:	00 88       	ldd	r0, Z+16	; 0x10
    4278:	02 c0       	rjmp	.+4      	;  0x427e
    427a:	22 0f       	add	r18, r18
    427c:	33 1f       	adc	r19, r19
    427e:	0a 94       	dec	r0
    4280:	e2 f7       	brpl	.-8      	;  0x427a
    4282:	20 95       	com	r18
    4284:	28 23       	and	r18, r24
    4286:	2c 93       	st	X, r18
    4288:	08 95       	ret
    428a:	dc 01       	movw	r26, r24
    428c:	12 96       	adiw	r26, 0x02	; 2
    428e:	ed 91       	ld	r30, X+
    4290:	fc 91       	ld	r31, X
    4292:	13 97       	sbiw	r26, 0x03	; 3
    4294:	e0 58       	subi	r30, 0x80	; 128
    4296:	ff 4f       	sbci	r31, 0xFF	; 255
    4298:	21 91       	ld	r18, Z+
    429a:	31 91       	ld	r19, Z+
    429c:	80 81       	ld	r24, Z
    429e:	91 81       	ldd	r25, Z+1	; 0x01
    42a0:	28 1b       	sub	r18, r24
    42a2:	39 0b       	sbc	r19, r25
    42a4:	2f 77       	andi	r18, 0x7F	; 127
    42a6:	30 70       	andi	r19, 0x00	; 0
    42a8:	c9 01       	movw	r24, r18
    42aa:	08 95       	ret
    42ac:	dc 01       	movw	r26, r24
    42ae:	12 96       	adiw	r26, 0x02	; 2
    42b0:	ed 91       	ld	r30, X+
    42b2:	fc 91       	ld	r31, X
    42b4:	13 97       	sbiw	r26, 0x03	; 3
    42b6:	ee 57       	subi	r30, 0x7E	; 126
    42b8:	ff 4f       	sbci	r31, 0xFF	; 255
    42ba:	20 81       	ld	r18, Z
    42bc:	31 81       	ldd	r19, Z+1	; 0x01
    42be:	92 91       	ld	r25, -Z
    42c0:	82 91       	ld	r24, -Z
    42c2:	e0 58       	subi	r30, 0x80	; 128
    42c4:	f0 40       	sbci	r31, 0x00	; 0
    42c6:	82 17       	cp	r24, r18
    42c8:	93 07       	cpc	r25, r19
    42ca:	19 f4       	brne	.+6      	;  0x42d2
    42cc:	2f ef       	ldi	r18, 0xFF	; 255
    42ce:	3f ef       	ldi	r19, 0xFF	; 255
    42d0:	05 c0       	rjmp	.+10     	;  0x42dc
    42d2:	e2 0f       	add	r30, r18
    42d4:	f3 1f       	adc	r31, r19
    42d6:	80 81       	ld	r24, Z
    42d8:	28 2f       	mov	r18, r24
    42da:	30 e0       	ldi	r19, 0x00	; 0
    42dc:	c9 01       	movw	r24, r18
    42de:	08 95       	ret
    42e0:	dc 01       	movw	r26, r24
    42e2:	12 96       	adiw	r26, 0x02	; 2
    42e4:	ed 91       	ld	r30, X+
    42e6:	fc 91       	ld	r31, X
    42e8:	13 97       	sbiw	r26, 0x03	; 3
    42ea:	df 01       	movw	r26, r30
    42ec:	ae 57       	subi	r26, 0x7E	; 126
    42ee:	bf 4f       	sbci	r27, 0xFF	; 255
    42f0:	2d 91       	ld	r18, X+
    42f2:	3c 91       	ld	r19, X
    42f4:	11 97       	sbiw	r26, 0x01	; 1
    42f6:	e0 58       	subi	r30, 0x80	; 128
    42f8:	ff 4f       	sbci	r31, 0xFF	; 255
    42fa:	80 81       	ld	r24, Z
    42fc:	91 81       	ldd	r25, Z+1	; 0x01
    42fe:	e0 58       	subi	r30, 0x80	; 128
    4300:	f0 40       	sbci	r31, 0x00	; 0
    4302:	82 17       	cp	r24, r18
    4304:	93 07       	cpc	r25, r19
    4306:	19 f4       	brne	.+6      	;  0x430e
    4308:	2f ef       	ldi	r18, 0xFF	; 255
    430a:	3f ef       	ldi	r19, 0xFF	; 255
    430c:	0b c0       	rjmp	.+22     	;  0x4324
    430e:	e2 0f       	add	r30, r18
    4310:	f3 1f       	adc	r31, r19
    4312:	80 81       	ld	r24, Z
    4314:	2f 5f       	subi	r18, 0xFF	; 255
    4316:	3f 4f       	sbci	r19, 0xFF	; 255
    4318:	2f 77       	andi	r18, 0x7F	; 127
    431a:	30 70       	andi	r19, 0x00	; 0
    431c:	2d 93       	st	X+, r18
    431e:	3c 93       	st	X, r19
    4320:	28 2f       	mov	r18, r24
    4322:	30 e0       	ldi	r19, 0x00	; 0
    4324:	c9 01       	movw	r24, r18
    4326:	08 95       	ret
    4328:	dc 01       	movw	r26, r24
    432a:	12 96       	adiw	r26, 0x02	; 2
    432c:	ed 91       	ld	r30, X+
    432e:	fc 91       	ld	r31, X
    4330:	13 97       	sbiw	r26, 0x03	; 3
    4332:	ee 57       	subi	r30, 0x7E	; 126
    4334:	ff 4f       	sbci	r31, 0xFF	; 255
    4336:	80 81       	ld	r24, Z
    4338:	91 81       	ldd	r25, Z+1	; 0x01
    433a:	92 93       	st	-Z, r25
    433c:	82 93       	st	-Z, r24
    433e:	08 95       	ret
    4340:	fc 01       	movw	r30, r24
    4342:	a0 85       	ldd	r26, Z+8	; 0x08
    4344:	b1 85       	ldd	r27, Z+9	; 0x09
    4346:	21 89       	ldd	r18, Z+17	; 0x11
    4348:	8c 91       	ld	r24, X
    434a:	90 e0       	ldi	r25, 0x00	; 0
    434c:	02 2e       	mov	r0, r18
    434e:	02 c0       	rjmp	.+4      	;  0x4354
    4350:	95 95       	asr	r25
    4352:	87 95       	ror	r24
    4354:	0a 94       	dec	r0
    4356:	e2 f7       	brpl	.-8      	;  0x4350
    4358:	80 ff       	sbrs	r24, 0
    435a:	f6 cf       	rjmp	.-20     	;  0x4348
    435c:	04 84       	ldd	r0, Z+12	; 0x0c
    435e:	f5 85       	ldd	r31, Z+13	; 0x0d
    4360:	e0 2d       	mov	r30, r0
    4362:	60 83       	st	Z, r22
    4364:	08 95       	ret
    4366:	8f e5       	ldi	r24, 0x5F	; 95
    4368:	92 e0       	ldi	r25, 0x02	; 2
    436a:	90 93 a8 05 	sts	0x05A8, r25
    436e:	80 93 a7 05 	sts	0x05A7, r24
    4372:	83 e2       	ldi	r24, 0x23	; 35
    4374:	95 e0       	ldi	r25, 0x05	; 5
    4376:	90 93 aa 05 	sts	0x05AA, r25
    437a:	80 93 a9 05 	sts	0x05A9, r24
    437e:	85 ec       	ldi	r24, 0xC5	; 197
    4380:	90 e0       	ldi	r25, 0x00	; 0
    4382:	90 93 ac 05 	sts	0x05AC, r25
    4386:	80 93 ab 05 	sts	0x05AB, r24
    438a:	84 ec       	ldi	r24, 0xC4	; 196
    438c:	90 e0       	ldi	r25, 0x00	; 0
    438e:	90 93 ae 05 	sts	0x05AE, r25
    4392:	80 93 ad 05 	sts	0x05AD, r24
    4396:	80 ec       	ldi	r24, 0xC0	; 192
    4398:	90 e0       	ldi	r25, 0x00	; 0
    439a:	90 93 b0 05 	sts	0x05B0, r25
    439e:	80 93 af 05 	sts	0x05AF, r24
    43a2:	81 ec       	ldi	r24, 0xC1	; 193
    43a4:	90 e0       	ldi	r25, 0x00	; 0
    43a6:	90 93 b2 05 	sts	0x05B2, r25
    43aa:	80 93 b1 05 	sts	0x05B1, r24
    43ae:	86 ec       	ldi	r24, 0xC6	; 198
    43b0:	90 e0       	ldi	r25, 0x00	; 0
    43b2:	90 93 b4 05 	sts	0x05B4, r25
    43b6:	80 93 b3 05 	sts	0x05B3, r24
    43ba:	84 e0       	ldi	r24, 0x04	; 4
    43bc:	80 93 b5 05 	sts	0x05B5, r24
    43c0:	83 e0       	ldi	r24, 0x03	; 3
    43c2:	80 93 b6 05 	sts	0x05B6, r24
    43c6:	87 e0       	ldi	r24, 0x07	; 7
    43c8:	80 93 b7 05 	sts	0x05B7, r24
    43cc:	85 e0       	ldi	r24, 0x05	; 5
    43ce:	80 93 b8 05 	sts	0x05B8, r24
    43d2:	81 e0       	ldi	r24, 0x01	; 1
    43d4:	80 93 b9 05 	sts	0x05B9, r24
    43d8:	08 95       	ret
    43da:	0f 93       	push	r16
    43dc:	1f 93       	push	r17
    43de:	cf 93       	push	r28
    43e0:	df 93       	push	r29
    43e2:	8c 01       	movw	r16, r24
    43e4:	eb 01       	movw	r28, r22
    43e6:	09 c0       	rjmp	.+18     	;  0x43fa
    43e8:	21 96       	adiw	r28, 0x01	; 1
    43ea:	d8 01       	movw	r26, r16
    43ec:	ed 91       	ld	r30, X+
    43ee:	fc 91       	ld	r31, X
    43f0:	01 90       	ld	r0, Z+
    43f2:	f0 81       	ld	r31, Z
    43f4:	e0 2d       	mov	r30, r0
    43f6:	c8 01       	movw	r24, r16
    43f8:	09 95       	icall
    43fa:	68 81       	ld	r22, Y
    43fc:	66 23       	and	r22, r22
    43fe:	a1 f7       	brne	.-24     	;  0x43e8
    4400:	df 91       	pop	r29
    4402:	cf 91       	pop	r28
    4404:	1f 91       	pop	r17
    4406:	0f 91       	pop	r16
    4408:	08 95       	ret
    440a:	ef 92       	push	r14
    440c:	ff 92       	push	r15
    440e:	0f 93       	push	r16
    4410:	1f 93       	push	r17
    4412:	cf 93       	push	r28
    4414:	df 93       	push	r29
    4416:	8c 01       	movw	r16, r24
    4418:	7b 01       	movw	r14, r22
    441a:	ea 01       	movw	r28, r20
    441c:	0c c0       	rjmp	.+24     	;  0x4436
    441e:	d7 01       	movw	r26, r14
    4420:	6d 91       	ld	r22, X+
    4422:	7d 01       	movw	r14, r26
    4424:	d8 01       	movw	r26, r16
    4426:	ed 91       	ld	r30, X+
    4428:	fc 91       	ld	r31, X
    442a:	01 90       	ld	r0, Z+
    442c:	f0 81       	ld	r31, Z
    442e:	e0 2d       	mov	r30, r0
    4430:	c8 01       	movw	r24, r16
    4432:	09 95       	icall
    4434:	21 97       	sbiw	r28, 0x01	; 1
    4436:	20 97       	sbiw	r28, 0x00	; 0
    4438:	91 f7       	brne	.-28     	;  0x441e
    443a:	df 91       	pop	r29
    443c:	cf 91       	pop	r28
    443e:	1f 91       	pop	r17
    4440:	0f 91       	pop	r16
    4442:	ff 90       	pop	r15
    4444:	ef 90       	pop	r14
    4446:	08 95       	ret
    4448:	dc 01       	movw	r26, r24
    444a:	ed 91       	ld	r30, X+
    444c:	fc 91       	ld	r31, X
    444e:	02 80       	ldd	r0, Z+2	; 0x02
    4450:	f3 81       	ldd	r31, Z+3	; 0x03
    4452:	e0 2d       	mov	r30, r0
    4454:	09 95       	icall
    4456:	08 95       	ret
    4458:	cf 92       	push	r12
    445a:	df 92       	push	r13
    445c:	ef 92       	push	r14
    445e:	ff 92       	push	r15
    4460:	0f 93       	push	r16
    4462:	1f 93       	push	r17
    4464:	cf 93       	push	r28
    4466:	df 93       	push	r29
    4468:	6c 01       	movw	r12, r24
    446a:	7b 01       	movw	r14, r22
    446c:	c0 e0       	ldi	r28, 0x00	; 0
    446e:	d0 e0       	ldi	r29, 0x00	; 0
    4470:	0e c0       	rjmp	.+28     	;  0x448e
    4472:	d6 01       	movw	r26, r12
    4474:	ed 91       	ld	r30, X+
    4476:	fc 91       	ld	r31, X
    4478:	00 81       	ld	r16, Z
    447a:	11 81       	ldd	r17, Z+1	; 0x01
    447c:	c7 01       	movw	r24, r14
    447e:	be 01       	movw	r22, r28
    4480:	0e 94 ee 24 	call	0x49dc	;  0x49dc
    4484:	68 2f       	mov	r22, r24
    4486:	c6 01       	movw	r24, r12
    4488:	f8 01       	movw	r30, r16
    448a:	09 95       	icall
    448c:	21 96       	adiw	r28, 0x01	; 1
    448e:	f7 01       	movw	r30, r14
    4490:	84 81       	ldd	r24, Z+4	; 0x04
    4492:	95 81       	ldd	r25, Z+5	; 0x05
    4494:	c8 17       	cp	r28, r24
    4496:	d9 07       	cpc	r29, r25
    4498:	60 f3       	brcs	.-40     	;  0x4472
    449a:	df 91       	pop	r29
    449c:	cf 91       	pop	r28
    449e:	1f 91       	pop	r17
    44a0:	0f 91       	pop	r16
    44a2:	ff 90       	pop	r15
    44a4:	ef 90       	pop	r14
    44a6:	df 90       	pop	r13
    44a8:	cf 90       	pop	r12
    44aa:	08 95       	ret
    44ac:	2f 92       	push	r2
    44ae:	3f 92       	push	r3
    44b0:	4f 92       	push	r4
    44b2:	5f 92       	push	r5
    44b4:	6f 92       	push	r6
    44b6:	7f 92       	push	r7
    44b8:	8f 92       	push	r8
    44ba:	9f 92       	push	r9
    44bc:	af 92       	push	r10
    44be:	bf 92       	push	r11
    44c0:	cf 92       	push	r12
    44c2:	df 92       	push	r13
    44c4:	ef 92       	push	r14
    44c6:	ff 92       	push	r15
    44c8:	0f 93       	push	r16
    44ca:	1f 93       	push	r17
    44cc:	df 93       	push	r29
    44ce:	cf 93       	push	r28
    44d0:	cd b7       	in	r28, 0x3d	; 61
    44d2:	de b7       	in	r29, 0x3e	; 62
    44d4:	a0 97       	sbiw	r28, 0x20	; 32
    44d6:	0f b6       	in	r0, 0x3f	; 63
    44d8:	f8 94       	cli
    44da:	de bf       	out	0x3e, r29	; 62
    44dc:	0f be       	out	0x3f, r0	; 63
    44de:	cd bf       	out	0x3d, r28	; 61
    44e0:	1c 01       	movw	r2, r24
    44e2:	6a 01       	movw	r12, r20
    44e4:	7b 01       	movw	r14, r22
    44e6:	41 15       	cp	r20, r1
    44e8:	51 05       	cpc	r21, r1
    44ea:	61 05       	cpc	r22, r1
    44ec:	71 05       	cpc	r23, r1
    44ee:	49 f4       	brne	.+18     	;  0x4502
    44f0:	40 e3       	ldi	r20, 0x30	; 48
    44f2:	50 e0       	ldi	r21, 0x00	; 0
    44f4:	60 e0       	ldi	r22, 0x00	; 0
    44f6:	70 e0       	ldi	r23, 0x00	; 0
    44f8:	20 e0       	ldi	r18, 0x00	; 0
    44fa:	30 e0       	ldi	r19, 0x00	; 0
    44fc:	0e 94 20 23 	call	0x4640	;  0x4640
    4500:	54 c0       	rjmp	.+168    	;  0x45aa
    4502:	88 24       	eor	r8, r8
    4504:	99 24       	eor	r9, r9
    4506:	54 01       	movw	r10, r8
    4508:	42 2e       	mov	r4, r18
    450a:	55 24       	eor	r5, r5
    450c:	66 24       	eor	r6, r6
    450e:	77 24       	eor	r7, r7
    4510:	01 e0       	ldi	r16, 0x01	; 1
    4512:	10 e0       	ldi	r17, 0x00	; 0
    4514:	0c 0f       	add	r16, r28
    4516:	1d 1f       	adc	r17, r29
    4518:	08 0d       	add	r16, r8
    451a:	19 1d       	adc	r17, r9
    451c:	c7 01       	movw	r24, r14
    451e:	b6 01       	movw	r22, r12
    4520:	a3 01       	movw	r20, r6
    4522:	92 01       	movw	r18, r4
    4524:	0e 94 c1 30 	call	0x6182	;  0x6182
    4528:	f8 01       	movw	r30, r16
    452a:	60 83       	st	Z, r22
    452c:	08 94       	sec
    452e:	81 1c       	adc	r8, r1
    4530:	91 1c       	adc	r9, r1
    4532:	a1 1c       	adc	r10, r1
    4534:	b1 1c       	adc	r11, r1
    4536:	c7 01       	movw	r24, r14
    4538:	b6 01       	movw	r22, r12
    453a:	a3 01       	movw	r20, r6
    453c:	92 01       	movw	r18, r4
    453e:	0e 94 c1 30 	call	0x6182	;  0x6182
    4542:	c9 01       	movw	r24, r18
    4544:	da 01       	movw	r26, r20
    4546:	6c 01       	movw	r12, r24
    4548:	7d 01       	movw	r14, r26
    454a:	c1 14       	cp	r12, r1
    454c:	d1 04       	cpc	r13, r1
    454e:	e1 04       	cpc	r14, r1
    4550:	f1 04       	cpc	r15, r1
    4552:	f1 f6       	brne	.-68     	;  0x4510
    4554:	81 e0       	ldi	r24, 0x01	; 1
    4556:	e8 2e       	mov	r14, r24
    4558:	f1 2c       	mov	r15, r1
    455a:	ec 0e       	add	r14, r28
    455c:	fd 1e       	adc	r15, r29
    455e:	e8 0c       	add	r14, r8
    4560:	f9 1c       	adc	r15, r9
    4562:	3e 01       	movw	r6, r28
    4564:	08 94       	sec
    4566:	61 1c       	adc	r6, r1
    4568:	71 1c       	adc	r7, r1
    456a:	d5 01       	movw	r26, r10
    456c:	c4 01       	movw	r24, r8
    456e:	01 97       	sbiw	r24, 0x01	; 1
    4570:	a1 09       	sbc	r26, r1
    4572:	b1 09       	sbc	r27, r1
    4574:	6c 01       	movw	r12, r24
    4576:	c8 18       	sub	r12, r8
    4578:	d9 08       	sbc	r13, r9
    457a:	14 c0       	rjmp	.+40     	;  0x45a4
    457c:	f6 01       	movw	r30, r12
    457e:	ee 0d       	add	r30, r14
    4580:	ff 1d       	adc	r31, r15
    4582:	40 81       	ld	r20, Z
    4584:	4a 30       	cpi	r20, 0x0A	; 10
    4586:	10 f4       	brcc	.+4      	;  0x458c
    4588:	40 5d       	subi	r20, 0xD0	; 208
    458a:	01 c0       	rjmp	.+2      	;  0x458e
    458c:	49 5c       	subi	r20, 0xC9	; 201
    458e:	50 e0       	ldi	r21, 0x00	; 0
    4590:	60 e0       	ldi	r22, 0x00	; 0
    4592:	70 e0       	ldi	r23, 0x00	; 0
    4594:	c1 01       	movw	r24, r2
    4596:	20 e0       	ldi	r18, 0x00	; 0
    4598:	30 e0       	ldi	r19, 0x00	; 0
    459a:	0e 94 20 23 	call	0x4640	;  0x4640
    459e:	08 94       	sec
    45a0:	e1 08       	sbc	r14, r1
    45a2:	f1 08       	sbc	r15, r1
    45a4:	6e 14       	cp	r6, r14
    45a6:	7f 04       	cpc	r7, r15
    45a8:	49 f7       	brne	.-46     	;  0x457c
    45aa:	a0 96       	adiw	r28, 0x20	; 32
    45ac:	0f b6       	in	r0, 0x3f	; 63
    45ae:	f8 94       	cli
    45b0:	de bf       	out	0x3e, r29	; 62
    45b2:	0f be       	out	0x3f, r0	; 63
    45b4:	cd bf       	out	0x3d, r28	; 61
    45b6:	cf 91       	pop	r28
    45b8:	df 91       	pop	r29
    45ba:	1f 91       	pop	r17
    45bc:	0f 91       	pop	r16
    45be:	ff 90       	pop	r15
    45c0:	ef 90       	pop	r14
    45c2:	df 90       	pop	r13
    45c4:	cf 90       	pop	r12
    45c6:	bf 90       	pop	r11
    45c8:	af 90       	pop	r10
    45ca:	9f 90       	pop	r9
    45cc:	8f 90       	pop	r8
    45ce:	7f 90       	pop	r7
    45d0:	6f 90       	pop	r6
    45d2:	5f 90       	pop	r5
    45d4:	4f 90       	pop	r4
    45d6:	3f 90       	pop	r3
    45d8:	2f 90       	pop	r2
    45da:	08 95       	ret
    45dc:	dc 01       	movw	r26, r24
    45de:	21 15       	cp	r18, r1
    45e0:	31 05       	cpc	r19, r1
    45e2:	41 f4       	brne	.+16     	;  0x45f4
    45e4:	ed 91       	ld	r30, X+
    45e6:	fc 91       	ld	r31, X
    45e8:	01 90       	ld	r0, Z+
    45ea:	f0 81       	ld	r31, Z
    45ec:	e0 2d       	mov	r30, r0
    45ee:	64 2f       	mov	r22, r20
    45f0:	09 95       	icall
    45f2:	08 95       	ret
    45f4:	0e 94 56 22 	call	0x44ac	;  0x44ac
    45f8:	08 95       	ret
    45fa:	ef 92       	push	r14
    45fc:	ff 92       	push	r15
    45fe:	0f 93       	push	r16
    4600:	1f 93       	push	r17
    4602:	9a 01       	movw	r18, r20
    4604:	7b 01       	movw	r14, r22
    4606:	00 e0       	ldi	r16, 0x00	; 0
    4608:	10 e0       	ldi	r17, 0x00	; 0
    460a:	b8 01       	movw	r22, r16
    460c:	a7 01       	movw	r20, r14
    460e:	0e 94 ee 22 	call	0x45dc	;  0x45dc
    4612:	1f 91       	pop	r17
    4614:	0f 91       	pop	r16
    4616:	ff 90       	pop	r15
    4618:	ef 90       	pop	r14
    461a:	08 95       	ret
    461c:	ef 92       	push	r14
    461e:	ff 92       	push	r15
    4620:	0f 93       	push	r16
    4622:	1f 93       	push	r17
    4624:	9a 01       	movw	r18, r20
    4626:	e6 2e       	mov	r14, r22
    4628:	ff 24       	eor	r15, r15
    462a:	00 e0       	ldi	r16, 0x00	; 0
    462c:	10 e0       	ldi	r17, 0x00	; 0
    462e:	b8 01       	movw	r22, r16
    4630:	a7 01       	movw	r20, r14
    4632:	0e 94 ee 22 	call	0x45dc	;  0x45dc
    4636:	1f 91       	pop	r17
    4638:	0f 91       	pop	r16
    463a:	ff 90       	pop	r15
    463c:	ef 90       	pop	r14
    463e:	08 95       	ret
    4640:	ef 92       	push	r14
    4642:	ff 92       	push	r15
    4644:	0f 93       	push	r16
    4646:	1f 93       	push	r17
    4648:	cf 93       	push	r28
    464a:	df 93       	push	r29
    464c:	ec 01       	movw	r28, r24
    464e:	7a 01       	movw	r14, r20
    4650:	8b 01       	movw	r16, r22
    4652:	21 15       	cp	r18, r1
    4654:	31 05       	cpc	r19, r1
    4656:	41 f4       	brne	.+16     	;  0x4668
    4658:	e8 81       	ld	r30, Y
    465a:	f9 81       	ldd	r31, Y+1	; 0x01
    465c:	01 90       	ld	r0, Z+
    465e:	f0 81       	ld	r31, Z
    4660:	e0 2d       	mov	r30, r0
    4662:	64 2f       	mov	r22, r20
    4664:	09 95       	icall
    4666:	1b c0       	rjmp	.+54     	;  0x469e
    4668:	2a 30       	cpi	r18, 0x0A	; 10
    466a:	31 05       	cpc	r19, r1
    466c:	b1 f4       	brne	.+44     	;  0x469a
    466e:	77 ff       	sbrs	r23, 7
    4670:	10 c0       	rjmp	.+32     	;  0x4692
    4672:	4d e2       	ldi	r20, 0x2D	; 45
    4674:	50 e0       	ldi	r21, 0x00	; 0
    4676:	60 e0       	ldi	r22, 0x00	; 0
    4678:	70 e0       	ldi	r23, 0x00	; 0
    467a:	20 e0       	ldi	r18, 0x00	; 0
    467c:	30 e0       	ldi	r19, 0x00	; 0
    467e:	0e 94 20 23 	call	0x4640	;  0x4640
    4682:	10 95       	com	r17
    4684:	00 95       	com	r16
    4686:	f0 94       	com	r15
    4688:	e0 94       	com	r14
    468a:	e1 1c       	adc	r14, r1
    468c:	f1 1c       	adc	r15, r1
    468e:	01 1d       	adc	r16, r1
    4690:	11 1d       	adc	r17, r1
    4692:	ce 01       	movw	r24, r28
    4694:	b8 01       	movw	r22, r16
    4696:	a7 01       	movw	r20, r14
    4698:	2a e0       	ldi	r18, 0x0A	; 10
    469a:	0e 94 56 22 	call	0x44ac	;  0x44ac
    469e:	df 91       	pop	r29
    46a0:	cf 91       	pop	r28
    46a2:	1f 91       	pop	r17
    46a4:	0f 91       	pop	r16
    46a6:	ff 90       	pop	r15
    46a8:	ef 90       	pop	r14
    46aa:	08 95       	ret
    46ac:	ef 92       	push	r14
    46ae:	ff 92       	push	r15
    46b0:	0f 93       	push	r16
    46b2:	1f 93       	push	r17
    46b4:	7b 01       	movw	r14, r22
    46b6:	9a 01       	movw	r18, r20
    46b8:	00 27       	eor	r16, r16
    46ba:	f7 fc       	sbrc	r15, 7
    46bc:	00 95       	com	r16
    46be:	10 2f       	mov	r17, r16
    46c0:	b8 01       	movw	r22, r16
    46c2:	a7 01       	movw	r20, r14
    46c4:	0e 94 20 23 	call	0x4640	;  0x4640
    46c8:	1f 91       	pop	r17
    46ca:	0f 91       	pop	r16
    46cc:	ff 90       	pop	r15
    46ce:	ef 90       	pop	r14
    46d0:	08 95       	ret
    46d2:	ef 92       	push	r14
    46d4:	ff 92       	push	r15
    46d6:	0f 93       	push	r16
    46d8:	1f 93       	push	r17
    46da:	9a 01       	movw	r18, r20
    46dc:	e6 2e       	mov	r14, r22
    46de:	ff 24       	eor	r15, r15
    46e0:	00 e0       	ldi	r16, 0x00	; 0
    46e2:	10 e0       	ldi	r17, 0x00	; 0
    46e4:	b8 01       	movw	r22, r16
    46e6:	a7 01       	movw	r20, r14
    46e8:	0e 94 20 23 	call	0x4640	;  0x4640
    46ec:	1f 91       	pop	r17
    46ee:	0f 91       	pop	r16
    46f0:	ff 90       	pop	r15
    46f2:	ef 90       	pop	r14
    46f4:	08 95       	ret
    46f6:	0f 93       	push	r16
    46f8:	1f 93       	push	r17
    46fa:	8c 01       	movw	r16, r24
    46fc:	4d e0       	ldi	r20, 0x0D	; 13
    46fe:	50 e0       	ldi	r21, 0x00	; 0
    4700:	60 e0       	ldi	r22, 0x00	; 0
    4702:	70 e0       	ldi	r23, 0x00	; 0
    4704:	20 e0       	ldi	r18, 0x00	; 0
    4706:	30 e0       	ldi	r19, 0x00	; 0
    4708:	0e 94 20 23 	call	0x4640	;  0x4640
    470c:	c8 01       	movw	r24, r16
    470e:	4a e0       	ldi	r20, 0x0A	; 10
    4710:	50 e0       	ldi	r21, 0x00	; 0
    4712:	60 e0       	ldi	r22, 0x00	; 0
    4714:	70 e0       	ldi	r23, 0x00	; 0
    4716:	20 e0       	ldi	r18, 0x00	; 0
    4718:	30 e0       	ldi	r19, 0x00	; 0
    471a:	0e 94 20 23 	call	0x4640	;  0x4640
    471e:	1f 91       	pop	r17
    4720:	0f 91       	pop	r16
    4722:	08 95       	ret
    4724:	0f 93       	push	r16
    4726:	1f 93       	push	r17
    4728:	8c 01       	movw	r16, r24
    472a:	0e 94 ee 22 	call	0x45dc	;  0x45dc
    472e:	c8 01       	movw	r24, r16
    4730:	0e 94 7b 23 	call	0x46f6	;  0x46f6
    4734:	1f 91       	pop	r17
    4736:	0f 91       	pop	r16
    4738:	08 95       	ret
    473a:	cf 92       	push	r12
    473c:	df 92       	push	r13
    473e:	ef 92       	push	r14
    4740:	ff 92       	push	r15
    4742:	0f 93       	push	r16
    4744:	1f 93       	push	r17
    4746:	8c 01       	movw	r16, r24
    4748:	9a 01       	movw	r18, r20
    474a:	6b 01       	movw	r12, r22
    474c:	ee 24       	eor	r14, r14
    474e:	ff 24       	eor	r15, r15
    4750:	b7 01       	movw	r22, r14
    4752:	a6 01       	movw	r20, r12
    4754:	0e 94 ee 22 	call	0x45dc	;  0x45dc
    4758:	c8 01       	movw	r24, r16
    475a:	0e 94 7b 23 	call	0x46f6	;  0x46f6
    475e:	1f 91       	pop	r17
    4760:	0f 91       	pop	r16
    4762:	ff 90       	pop	r15
    4764:	ef 90       	pop	r14
    4766:	df 90       	pop	r13
    4768:	cf 90       	pop	r12
    476a:	08 95       	ret
    476c:	cf 92       	push	r12
    476e:	df 92       	push	r13
    4770:	ef 92       	push	r14
    4772:	ff 92       	push	r15
    4774:	0f 93       	push	r16
    4776:	1f 93       	push	r17
    4778:	8c 01       	movw	r16, r24
    477a:	9a 01       	movw	r18, r20
    477c:	c6 2e       	mov	r12, r22
    477e:	dd 24       	eor	r13, r13
    4780:	ee 24       	eor	r14, r14
    4782:	ff 24       	eor	r15, r15
    4784:	b7 01       	movw	r22, r14
    4786:	a6 01       	movw	r20, r12
    4788:	0e 94 ee 22 	call	0x45dc	;  0x45dc
    478c:	c8 01       	movw	r24, r16
    478e:	0e 94 7b 23 	call	0x46f6	;  0x46f6
    4792:	1f 91       	pop	r17
    4794:	0f 91       	pop	r16
    4796:	ff 90       	pop	r15
    4798:	ef 90       	pop	r14
    479a:	df 90       	pop	r13
    479c:	cf 90       	pop	r12
    479e:	08 95       	ret
    47a0:	0f 93       	push	r16
    47a2:	1f 93       	push	r17
    47a4:	8c 01       	movw	r16, r24
    47a6:	0e 94 24 22 	call	0x4448	;  0x4448
    47aa:	c8 01       	movw	r24, r16
    47ac:	0e 94 7b 23 	call	0x46f6	;  0x46f6
    47b0:	1f 91       	pop	r17
    47b2:	0f 91       	pop	r16
    47b4:	08 95       	ret
    47b6:	0f 93       	push	r16
    47b8:	1f 93       	push	r17
    47ba:	8c 01       	movw	r16, r24
    47bc:	0e 94 2c 22 	call	0x4458	;  0x4458
    47c0:	c8 01       	movw	r24, r16
    47c2:	0e 94 7b 23 	call	0x46f6	;  0x46f6
    47c6:	1f 91       	pop	r17
    47c8:	0f 91       	pop	r16
    47ca:	08 95       	ret
    47cc:	0f 93       	push	r16
    47ce:	1f 93       	push	r17
    47d0:	8c 01       	movw	r16, r24
    47d2:	0e 94 20 23 	call	0x4640	;  0x4640
    47d6:	c8 01       	movw	r24, r16
    47d8:	0e 94 7b 23 	call	0x46f6	;  0x46f6
    47dc:	1f 91       	pop	r17
    47de:	0f 91       	pop	r16
    47e0:	08 95       	ret
    47e2:	cf 92       	push	r12
    47e4:	df 92       	push	r13
    47e6:	ef 92       	push	r14
    47e8:	ff 92       	push	r15
    47ea:	0f 93       	push	r16
    47ec:	1f 93       	push	r17
    47ee:	8c 01       	movw	r16, r24
    47f0:	6b 01       	movw	r12, r22
    47f2:	9a 01       	movw	r18, r20
    47f4:	ee 24       	eor	r14, r14
    47f6:	d7 fc       	sbrc	r13, 7
    47f8:	e0 94       	com	r14
    47fa:	fe 2c       	mov	r15, r14
    47fc:	b7 01       	movw	r22, r14
    47fe:	a6 01       	movw	r20, r12
    4800:	0e 94 20 23 	call	0x4640	;  0x4640
    4804:	c8 01       	movw	r24, r16
    4806:	0e 94 7b 23 	call	0x46f6	;  0x46f6
    480a:	1f 91       	pop	r17
    480c:	0f 91       	pop	r16
    480e:	ff 90       	pop	r15
    4810:	ef 90       	pop	r14
    4812:	df 90       	pop	r13
    4814:	cf 90       	pop	r12
    4816:	08 95       	ret
    4818:	cf 92       	push	r12
    481a:	df 92       	push	r13
    481c:	ef 92       	push	r14
    481e:	ff 92       	push	r15
    4820:	0f 93       	push	r16
    4822:	1f 93       	push	r17
    4824:	8c 01       	movw	r16, r24
    4826:	9a 01       	movw	r18, r20
    4828:	c6 2e       	mov	r12, r22
    482a:	dd 24       	eor	r13, r13
    482c:	ee 24       	eor	r14, r14
    482e:	ff 24       	eor	r15, r15
    4830:	b7 01       	movw	r22, r14
    4832:	a6 01       	movw	r20, r12
    4834:	0e 94 20 23 	call	0x4640	;  0x4640
    4838:	c8 01       	movw	r24, r16
    483a:	0e 94 7b 23 	call	0x46f6	;  0x46f6
    483e:	1f 91       	pop	r17
    4840:	0f 91       	pop	r16
    4842:	ff 90       	pop	r15
    4844:	ef 90       	pop	r14
    4846:	df 90       	pop	r13
    4848:	cf 90       	pop	r12
    484a:	08 95       	ret
    484c:	9f 92       	push	r9
    484e:	af 92       	push	r10
    4850:	bf 92       	push	r11
    4852:	cf 92       	push	r12
    4854:	df 92       	push	r13
    4856:	ef 92       	push	r14
    4858:	ff 92       	push	r15
    485a:	0f 93       	push	r16
    485c:	1f 93       	push	r17
    485e:	cf 93       	push	r28
    4860:	df 93       	push	r29
    4862:	ec 01       	movw	r28, r24
    4864:	7a 01       	movw	r14, r20
    4866:	8b 01       	movw	r16, r22
    4868:	92 2e       	mov	r9, r18
    486a:	cb 01       	movw	r24, r22
    486c:	ba 01       	movw	r22, r20
    486e:	20 e0       	ldi	r18, 0x00	; 0
    4870:	30 e0       	ldi	r19, 0x00	; 0
    4872:	40 e0       	ldi	r20, 0x00	; 0
    4874:	50 e0       	ldi	r21, 0x00	; 0
    4876:	0e 94 d1 2e 	call	0x5da2	;  0x5da2
    487a:	88 23       	and	r24, r24
    487c:	6c f4       	brge	.+26     	;  0x4898
    487e:	ce 01       	movw	r24, r28
    4880:	4d e2       	ldi	r20, 0x2D	; 45
    4882:	50 e0       	ldi	r21, 0x00	; 0
    4884:	60 e0       	ldi	r22, 0x00	; 0
    4886:	70 e0       	ldi	r23, 0x00	; 0
    4888:	20 e0       	ldi	r18, 0x00	; 0
    488a:	30 e0       	ldi	r19, 0x00	; 0
    488c:	0e 94 20 23 	call	0x4640	;  0x4640
    4890:	17 fb       	bst	r17, 7
    4892:	10 95       	com	r17
    4894:	17 f9       	bld	r17, 7
    4896:	10 95       	com	r17
    4898:	20 e0       	ldi	r18, 0x00	; 0
    489a:	30 e0       	ldi	r19, 0x00	; 0
    489c:	40 e0       	ldi	r20, 0x00	; 0
    489e:	5f e3       	ldi	r21, 0x3F	; 63
    48a0:	aa 24       	eor	r10, r10
    48a2:	0b c0       	rjmp	.+22     	;  0x48ba
    48a4:	ca 01       	movw	r24, r20
    48a6:	b9 01       	movw	r22, r18
    48a8:	20 e0       	ldi	r18, 0x00	; 0
    48aa:	30 e0       	ldi	r19, 0x00	; 0
    48ac:	40 e2       	ldi	r20, 0x20	; 32
    48ae:	51 e4       	ldi	r21, 0x41	; 65
    48b0:	0e 94 d5 2e 	call	0x5daa	;  0x5daa
    48b4:	9b 01       	movw	r18, r22
    48b6:	ac 01       	movw	r20, r24
    48b8:	a3 94       	inc	r10
    48ba:	a9 14       	cp	r10, r9
    48bc:	98 f3       	brcs	.-26     	;  0x48a4
    48be:	c8 01       	movw	r24, r16
    48c0:	b7 01       	movw	r22, r14
    48c2:	0e 94 6d 2e 	call	0x5cda	;  0x5cda
    48c6:	5b 01       	movw	r10, r22
    48c8:	6c 01       	movw	r12, r24
    48ca:	0e 94 42 2f 	call	0x5e84	;  0x5e84
    48ce:	7b 01       	movw	r14, r22
    48d0:	8c 01       	movw	r16, r24
    48d2:	ce 01       	movw	r24, r28
    48d4:	b8 01       	movw	r22, r16
    48d6:	a7 01       	movw	r20, r14
    48d8:	2a e0       	ldi	r18, 0x0A	; 10
    48da:	30 e0       	ldi	r19, 0x00	; 0
    48dc:	0e 94 ee 22 	call	0x45dc	;  0x45dc
    48e0:	99 20       	and	r9, r9
    48e2:	29 f0       	breq	.+10     	;  0x48ee
    48e4:	ce 01       	movw	r24, r28
    48e6:	6f e7       	ldi	r22, 0x7F	; 127
    48e8:	72 e0       	ldi	r23, 0x02	; 2
    48ea:	0e 94 24 22 	call	0x4448	;  0x4448
    48ee:	c8 01       	movw	r24, r16
    48f0:	b7 01       	movw	r22, r14
    48f2:	0e 94 6e 2f 	call	0x5edc	;  0x5edc
    48f6:	9b 01       	movw	r18, r22
    48f8:	ac 01       	movw	r20, r24
    48fa:	c6 01       	movw	r24, r12
    48fc:	b5 01       	movw	r22, r10
    48fe:	0e 94 6c 2e 	call	0x5cd8	;  0x5cd8
    4902:	22 c0       	rjmp	.+68     	;  0x4948
    4904:	20 e0       	ldi	r18, 0x00	; 0
    4906:	30 e0       	ldi	r19, 0x00	; 0
    4908:	40 e2       	ldi	r20, 0x20	; 32
    490a:	51 e4       	ldi	r21, 0x41	; 65
    490c:	0e 94 20 30 	call	0x6040	;  0x6040
    4910:	7b 01       	movw	r14, r22
    4912:	8c 01       	movw	r16, r24
    4914:	0e 94 3d 2f 	call	0x5e7a	;  0x5e7a
    4918:	5b 01       	movw	r10, r22
    491a:	6c 01       	movw	r12, r24
    491c:	cc 24       	eor	r12, r12
    491e:	b7 fc       	sbrc	r11, 7
    4920:	c0 94       	com	r12
    4922:	dc 2c       	mov	r13, r12
    4924:	ce 01       	movw	r24, r28
    4926:	b6 01       	movw	r22, r12
    4928:	a5 01       	movw	r20, r10
    492a:	2a e0       	ldi	r18, 0x0A	; 10
    492c:	30 e0       	ldi	r19, 0x00	; 0
    492e:	0e 94 20 23 	call	0x4640	;  0x4640
    4932:	c6 01       	movw	r24, r12
    4934:	b5 01       	movw	r22, r10
    4936:	0e 94 70 2f 	call	0x5ee0	;  0x5ee0
    493a:	9b 01       	movw	r18, r22
    493c:	ac 01       	movw	r20, r24
    493e:	c8 01       	movw	r24, r16
    4940:	b7 01       	movw	r22, r14
    4942:	0e 94 6c 2e 	call	0x5cd8	;  0x5cd8
    4946:	9a 94       	dec	r9
    4948:	99 20       	and	r9, r9
    494a:	e1 f6       	brne	.-72     	;  0x4904
    494c:	df 91       	pop	r29
    494e:	cf 91       	pop	r28
    4950:	1f 91       	pop	r17
    4952:	0f 91       	pop	r16
    4954:	ff 90       	pop	r15
    4956:	ef 90       	pop	r14
    4958:	df 90       	pop	r13
    495a:	cf 90       	pop	r12
    495c:	bf 90       	pop	r11
    495e:	af 90       	pop	r10
    4960:	9f 90       	pop	r9
    4962:	08 95       	ret
    4964:	0e 94 26 24 	call	0x484c	;  0x484c
    4968:	08 95       	ret
    496a:	0f 93       	push	r16
    496c:	1f 93       	push	r17
    496e:	8c 01       	movw	r16, r24
    4970:	0e 94 26 24 	call	0x484c	;  0x484c
    4974:	c8 01       	movw	r24, r16
    4976:	0e 94 7b 23 	call	0x46f6	;  0x46f6
    497a:	1f 91       	pop	r17
    497c:	0f 91       	pop	r16
    497e:	08 95       	ret
    4980:	fc 01       	movw	r30, r24
    4982:	01 90       	ld	r0, Z+
    4984:	f0 81       	ld	r31, Z
    4986:	e0 2d       	mov	r30, r0
    4988:	e6 0f       	add	r30, r22
    498a:	f7 1f       	adc	r31, r23
    498c:	80 81       	ld	r24, Z
    498e:	08 95       	ret
    4990:	dc 01       	movw	r26, r24
    4992:	ed 91       	ld	r30, X+
    4994:	fc 91       	ld	r31, X
    4996:	11 97       	sbiw	r26, 0x01	; 1
    4998:	30 97       	sbiw	r30, 0x00	; 0
    499a:	51 f0       	breq	.+20     	;  0x49b0
    499c:	14 96       	adiw	r26, 0x04	; 4
    499e:	8d 91       	ld	r24, X+
    49a0:	9c 91       	ld	r25, X
    49a2:	15 97       	sbiw	r26, 0x05	; 5
    49a4:	68 17       	cp	r22, r24
    49a6:	79 07       	cpc	r23, r25
    49a8:	18 f4       	brcc	.+6      	;  0x49b0
    49aa:	e6 0f       	add	r30, r22
    49ac:	f7 1f       	adc	r31, r23
    49ae:	40 83       	st	Z, r20
    49b0:	08 95       	ret
    49b2:	fc 01       	movw	r30, r24
    49b4:	9b 01       	movw	r18, r22
    49b6:	84 81       	ldd	r24, Z+4	; 0x04
    49b8:	95 81       	ldd	r25, Z+5	; 0x05
    49ba:	68 17       	cp	r22, r24
    49bc:	79 07       	cpc	r23, r25
    49be:	28 f4       	brcc	.+10     	;  0x49ca
    49c0:	60 81       	ld	r22, Z
    49c2:	71 81       	ldd	r23, Z+1	; 0x01
    49c4:	61 15       	cp	r22, r1
    49c6:	71 05       	cpc	r23, r1
    49c8:	29 f4       	brne	.+10     	;  0x49d4
    49ca:	10 92 ba 05 	sts	0x05BA, r1
    49ce:	6a eb       	ldi	r22, 0xBA	; 186
    49d0:	75 e0       	ldi	r23, 0x05	; 5
    49d2:	02 c0       	rjmp	.+4      	;  0x49d8
    49d4:	62 0f       	add	r22, r18
    49d6:	73 1f       	adc	r23, r19
    49d8:	cb 01       	movw	r24, r22
    49da:	08 95       	ret
    49dc:	fc 01       	movw	r30, r24
    49de:	01 90       	ld	r0, Z+
    49e0:	f0 81       	ld	r31, Z
    49e2:	e0 2d       	mov	r30, r0
    49e4:	e6 0f       	add	r30, r22
    49e6:	f7 1f       	adc	r31, r23
    49e8:	80 81       	ld	r24, Z
    49ea:	08 95       	ret
    49ec:	fc 01       	movw	r30, r24
    49ee:	80 81       	ld	r24, Z
    49f0:	91 81       	ldd	r25, Z+1	; 0x01
    49f2:	0e 94 eb 32 	call	0x65d6	;  0x65d6
    49f6:	08 95       	ret
    49f8:	0f 93       	push	r16
    49fa:	1f 93       	push	r17
    49fc:	cf 93       	push	r28
    49fe:	df 93       	push	r29
    4a00:	fc 01       	movw	r30, r24
    4a02:	8b 01       	movw	r16, r22
    4a04:	41 15       	cp	r20, r1
    4a06:	51 05       	cpc	r21, r1
    4a08:	a1 f0       	breq	.+40     	;  0x4a32
    4a0a:	61 15       	cp	r22, r1
    4a0c:	71 05       	cpc	r23, r1
    4a0e:	89 f0       	breq	.+34     	;  0x4a32
    4a10:	84 81       	ldd	r24, Z+4	; 0x04
    4a12:	95 81       	ldd	r25, Z+5	; 0x05
    4a14:	ea 01       	movw	r28, r20
    4a16:	21 97       	sbiw	r28, 0x01	; 1
    4a18:	8c 17       	cp	r24, r28
    4a1a:	9d 07       	cpc	r25, r29
    4a1c:	08 f4       	brcc	.+2      	;  0x4a20
    4a1e:	ec 01       	movw	r28, r24
    4a20:	60 81       	ld	r22, Z
    4a22:	71 81       	ldd	r23, Z+1	; 0x01
    4a24:	c8 01       	movw	r24, r16
    4a26:	ae 01       	movw	r20, r28
    4a28:	0e 94 74 33 	call	0x66e8	;  0x66e8
    4a2c:	c0 0f       	add	r28, r16
    4a2e:	d1 1f       	adc	r29, r17
    4a30:	18 82       	st	Y, r1
    4a32:	df 91       	pop	r29
    4a34:	cf 91       	pop	r28
    4a36:	1f 91       	pop	r17
    4a38:	0f 91       	pop	r16
    4a3a:	08 95       	ret
    4a3c:	0f 93       	push	r16
    4a3e:	1f 93       	push	r17
    4a40:	cf 93       	push	r28
    4a42:	df 93       	push	r29
    4a44:	fc 01       	movw	r30, r24
    4a46:	8b 01       	movw	r16, r22
    4a48:	41 15       	cp	r20, r1
    4a4a:	51 05       	cpc	r21, r1
    4a4c:	a1 f0       	breq	.+40     	;  0x4a76
    4a4e:	61 15       	cp	r22, r1
    4a50:	71 05       	cpc	r23, r1
    4a52:	89 f0       	breq	.+34     	;  0x4a76
    4a54:	84 81       	ldd	r24, Z+4	; 0x04
    4a56:	95 81       	ldd	r25, Z+5	; 0x05
    4a58:	ea 01       	movw	r28, r20
    4a5a:	21 97       	sbiw	r28, 0x01	; 1
    4a5c:	8c 17       	cp	r24, r28
    4a5e:	9d 07       	cpc	r25, r29
    4a60:	08 f4       	brcc	.+2      	;  0x4a64
    4a62:	ec 01       	movw	r28, r24
    4a64:	60 81       	ld	r22, Z
    4a66:	71 81       	ldd	r23, Z+1	; 0x01
    4a68:	c8 01       	movw	r24, r16
    4a6a:	ae 01       	movw	r20, r28
    4a6c:	0e 94 74 33 	call	0x66e8	;  0x66e8
    4a70:	c0 0f       	add	r28, r16
    4a72:	d1 1f       	adc	r29, r17
    4a74:	18 82       	st	Y, r1
    4a76:	df 91       	pop	r29
    4a78:	cf 91       	pop	r28
    4a7a:	1f 91       	pop	r17
    4a7c:	0f 91       	pop	r16
    4a7e:	08 95       	ret
    4a80:	0f 93       	push	r16
    4a82:	1f 93       	push	r17
    4a84:	8c 01       	movw	r16, r24
    4a86:	fc 01       	movw	r30, r24
    4a88:	80 81       	ld	r24, Z
    4a8a:	91 81       	ldd	r25, Z+1	; 0x01
    4a8c:	0e 94 c5 31 	call	0x638a	;  0x638a
    4a90:	f8 01       	movw	r30, r16
    4a92:	13 82       	std	Z+3, r1	; 0x03
    4a94:	12 82       	std	Z+2, r1	; 0x02
    4a96:	15 82       	std	Z+5, r1	; 0x05
    4a98:	14 82       	std	Z+4, r1	; 0x04
    4a9a:	1f 91       	pop	r17
    4a9c:	0f 91       	pop	r16
    4a9e:	08 95       	ret
    4aa0:	fc 01       	movw	r30, r24
    4aa2:	db 01       	movw	r26, r22
    4aa4:	14 96       	adiw	r26, 0x04	; 4
    4aa6:	2d 91       	ld	r18, X+
    4aa8:	3c 91       	ld	r19, X
    4aaa:	15 97       	sbiw	r26, 0x05	; 5
    4aac:	84 81       	ldd	r24, Z+4	; 0x04
    4aae:	95 81       	ldd	r25, Z+5	; 0x05
    4ab0:	82 1b       	sub	r24, r18
    4ab2:	93 0b       	sbc	r25, r19
    4ab4:	84 17       	cp	r24, r20
    4ab6:	95 07       	cpc	r25, r21
    4ab8:	10 f4       	brcc	.+4      	;  0x4abe
    4aba:	80 e0       	ldi	r24, 0x00	; 0
    4abc:	08 95       	ret
    4abe:	80 81       	ld	r24, Z
    4ac0:	91 81       	ldd	r25, Z+1	; 0x01
    4ac2:	6d 91       	ld	r22, X+
    4ac4:	7c 91       	ld	r23, X
    4ac6:	84 0f       	add	r24, r20
    4ac8:	95 1f       	adc	r25, r21
    4aca:	a9 01       	movw	r20, r18
    4acc:	0e 94 66 33 	call	0x66cc	;  0x66cc
    4ad0:	9c 01       	movw	r18, r24
    4ad2:	80 e0       	ldi	r24, 0x00	; 0
    4ad4:	23 2b       	or	r18, r19
    4ad6:	09 f4       	brne	.+2      	;  0x4ada
    4ad8:	81 e0       	ldi	r24, 0x01	; 1
    4ada:	08 95       	ret
    4adc:	fc 01       	movw	r30, r24
    4ade:	db 01       	movw	r26, r22
    4ae0:	24 81       	ldd	r18, Z+4	; 0x04
    4ae2:	35 81       	ldd	r19, Z+5	; 0x05
    4ae4:	14 96       	adiw	r26, 0x04	; 4
    4ae6:	8d 91       	ld	r24, X+
    4ae8:	9c 91       	ld	r25, X
    4aea:	15 97       	sbiw	r26, 0x05	; 5
    4aec:	28 17       	cp	r18, r24
    4aee:	39 07       	cpc	r19, r25
    4af0:	10 f4       	brcc	.+4      	;  0x4af6
    4af2:	80 e0       	ldi	r24, 0x00	; 0
    4af4:	08 95       	ret
    4af6:	cf 01       	movw	r24, r30
    4af8:	40 e0       	ldi	r20, 0x00	; 0
    4afa:	50 e0       	ldi	r21, 0x00	; 0
    4afc:	0e 94 50 25 	call	0x4aa0	;  0x4aa0
    4b00:	08 95       	ret
    4b02:	df 92       	push	r13
    4b04:	ef 92       	push	r14
    4b06:	ff 92       	push	r15
    4b08:	0f 93       	push	r16
    4b0a:	1f 93       	push	r17
    4b0c:	cf 93       	push	r28
    4b0e:	df 93       	push	r29
    4b10:	ec 01       	movw	r28, r24
    4b12:	8c 81       	ldd	r24, Y+4	; 0x04
    4b14:	9d 81       	ldd	r25, Y+5	; 0x05
    4b16:	48 17       	cp	r20, r24
    4b18:	59 07       	cpc	r21, r25
    4b1a:	b8 f4       	brcc	.+46     	;  0x4b4a
    4b1c:	7a 01       	movw	r14, r20
    4b1e:	08 94       	sec
    4b20:	e1 1c       	adc	r14, r1
    4b22:	f1 1c       	adc	r15, r1
    4b24:	e8 81       	ld	r30, Y
    4b26:	f9 81       	ldd	r31, Y+1	; 0x01
    4b28:	ee 0d       	add	r30, r14
    4b2a:	ff 1d       	adc	r31, r15
    4b2c:	d0 80       	ld	r13, Z
    4b2e:	10 82       	st	Z, r1
    4b30:	08 81       	ld	r16, Y
    4b32:	19 81       	ldd	r17, Y+1	; 0x01
    4b34:	c8 01       	movw	r24, r16
    4b36:	70 e0       	ldi	r23, 0x00	; 0
    4b38:	0e 94 83 33 	call	0x6706	;  0x6706
    4b3c:	9c 01       	movw	r18, r24
    4b3e:	0e 0d       	add	r16, r14
    4b40:	1f 1d       	adc	r17, r15
    4b42:	f8 01       	movw	r30, r16
    4b44:	d0 82       	st	Z, r13
    4b46:	00 97       	sbiw	r24, 0x00	; 0
    4b48:	19 f4       	brne	.+6      	;  0x4b50
    4b4a:	ef ef       	ldi	r30, 0xFF	; 255
    4b4c:	ff ef       	ldi	r31, 0xFF	; 255
    4b4e:	05 c0       	rjmp	.+10     	;  0x4b5a
    4b50:	88 81       	ld	r24, Y
    4b52:	99 81       	ldd	r25, Y+1	; 0x01
    4b54:	f9 01       	movw	r30, r18
    4b56:	e8 1b       	sub	r30, r24
    4b58:	f9 0b       	sbc	r31, r25
    4b5a:	cf 01       	movw	r24, r30
    4b5c:	df 91       	pop	r29
    4b5e:	cf 91       	pop	r28
    4b60:	1f 91       	pop	r17
    4b62:	0f 91       	pop	r16
    4b64:	ff 90       	pop	r15
    4b66:	ef 90       	pop	r14
    4b68:	df 90       	pop	r13
    4b6a:	08 95       	ret
    4b6c:	fc 01       	movw	r30, r24
    4b6e:	44 81       	ldd	r20, Z+4	; 0x04
    4b70:	55 81       	ldd	r21, Z+5	; 0x05
    4b72:	41 50       	subi	r20, 0x01	; 1
    4b74:	50 40       	sbci	r21, 0x00	; 0
    4b76:	0e 94 81 25 	call	0x4b02	;  0x4b02
    4b7a:	08 95       	ret
    4b7c:	cf 93       	push	r28
    4b7e:	df 93       	push	r29
    4b80:	fc 01       	movw	r30, r24
    4b82:	db 01       	movw	r26, r22
    4b84:	84 81       	ldd	r24, Z+4	; 0x04
    4b86:	95 81       	ldd	r25, Z+5	; 0x05
    4b88:	48 17       	cp	r20, r24
    4b8a:	59 07       	cpc	r21, r25
    4b8c:	60 f4       	brcc	.+24     	;  0x4ba6
    4b8e:	c0 81       	ld	r28, Z
    4b90:	d1 81       	ldd	r29, Z+1	; 0x01
    4b92:	6d 91       	ld	r22, X+
    4b94:	7c 91       	ld	r23, X
    4b96:	ce 01       	movw	r24, r28
    4b98:	84 0f       	add	r24, r20
    4b9a:	95 1f       	adc	r25, r21
    4b9c:	0e 94 8e 33 	call	0x671c	;  0x671c
    4ba0:	9c 01       	movw	r18, r24
    4ba2:	00 97       	sbiw	r24, 0x00	; 0
    4ba4:	19 f4       	brne	.+6      	;  0x4bac
    4ba6:	2f ef       	ldi	r18, 0xFF	; 255
    4ba8:	3f ef       	ldi	r19, 0xFF	; 255
    4baa:	02 c0       	rjmp	.+4      	;  0x4bb0
    4bac:	2c 1b       	sub	r18, r28
    4bae:	3d 0b       	sbc	r19, r29
    4bb0:	c9 01       	movw	r24, r18
    4bb2:	df 91       	pop	r29
    4bb4:	cf 91       	pop	r28
    4bb6:	08 95       	ret
    4bb8:	40 e0       	ldi	r20, 0x00	; 0
    4bba:	50 e0       	ldi	r21, 0x00	; 0
    4bbc:	0e 94 be 25 	call	0x4b7c	;  0x4b7c
    4bc0:	08 95       	ret
    4bc2:	cf 93       	push	r28
    4bc4:	df 93       	push	r29
    4bc6:	fc 01       	movw	r30, r24
    4bc8:	84 81       	ldd	r24, Z+4	; 0x04
    4bca:	95 81       	ldd	r25, Z+5	; 0x05
    4bcc:	48 17       	cp	r20, r24
    4bce:	59 07       	cpc	r21, r25
    4bd0:	58 f4       	brcc	.+22     	;  0x4be8
    4bd2:	c0 81       	ld	r28, Z
    4bd4:	d1 81       	ldd	r29, Z+1	; 0x01
    4bd6:	ce 01       	movw	r24, r28
    4bd8:	84 0f       	add	r24, r20
    4bda:	95 1f       	adc	r25, r21
    4bdc:	70 e0       	ldi	r23, 0x00	; 0
    4bde:	0e 94 4b 33 	call	0x6696	;  0x6696
    4be2:	9c 01       	movw	r18, r24
    4be4:	00 97       	sbiw	r24, 0x00	; 0
    4be6:	19 f4       	brne	.+6      	;  0x4bee
    4be8:	2f ef       	ldi	r18, 0xFF	; 255
    4bea:	3f ef       	ldi	r19, 0xFF	; 255
    4bec:	02 c0       	rjmp	.+4      	;  0x4bf2
    4bee:	2c 1b       	sub	r18, r28
    4bf0:	3d 0b       	sbc	r19, r29
    4bf2:	c9 01       	movw	r24, r18
    4bf4:	df 91       	pop	r29
    4bf6:	cf 91       	pop	r28
    4bf8:	08 95       	ret
    4bfa:	40 e0       	ldi	r20, 0x00	; 0
    4bfc:	50 e0       	ldi	r21, 0x00	; 0
    4bfe:	0e 94 e1 25 	call	0x4bc2	;  0x4bc2
    4c02:	08 95       	ret
    4c04:	dc 01       	movw	r26, r24
    4c06:	fb 01       	movw	r30, r22
    4c08:	14 96       	adiw	r26, 0x04	; 4
    4c0a:	2d 91       	ld	r18, X+
    4c0c:	3c 91       	ld	r19, X
    4c0e:	15 97       	sbiw	r26, 0x05	; 5
    4c10:	84 81       	ldd	r24, Z+4	; 0x04
    4c12:	95 81       	ldd	r25, Z+5	; 0x05
    4c14:	28 17       	cp	r18, r24
    4c16:	39 07       	cpc	r19, r25
    4c18:	11 f0       	breq	.+4      	;  0x4c1e
    4c1a:	80 e0       	ldi	r24, 0x00	; 0
    4c1c:	08 95       	ret
    4c1e:	60 81       	ld	r22, Z
    4c20:	71 81       	ldd	r23, Z+1	; 0x01
    4c22:	8d 91       	ld	r24, X+
    4c24:	9c 91       	ld	r25, X
    4c26:	0e 94 56 33 	call	0x66ac	;  0x66ac
    4c2a:	9c 01       	movw	r18, r24
    4c2c:	80 e0       	ldi	r24, 0x00	; 0
    4c2e:	23 2b       	or	r18, r19
    4c30:	09 f4       	brne	.+2      	;  0x4c34
    4c32:	81 e0       	ldi	r24, 0x01	; 1
    4c34:	08 95       	ret
    4c36:	fc 01       	movw	r30, r24
    4c38:	db 01       	movw	r26, r22
    4c3a:	24 81       	ldd	r18, Z+4	; 0x04
    4c3c:	35 81       	ldd	r19, Z+5	; 0x05
    4c3e:	14 96       	adiw	r26, 0x04	; 4
    4c40:	8d 91       	ld	r24, X+
    4c42:	9c 91       	ld	r25, X
    4c44:	15 97       	sbiw	r26, 0x05	; 5
    4c46:	28 17       	cp	r18, r24
    4c48:	39 07       	cpc	r19, r25
    4c4a:	10 f4       	brcc	.+4      	;  0x4c50
    4c4c:	80 e0       	ldi	r24, 0x00	; 0
    4c4e:	08 95       	ret
    4c50:	28 1b       	sub	r18, r24
    4c52:	39 0b       	sbc	r19, r25
    4c54:	80 81       	ld	r24, Z
    4c56:	91 81       	ldd	r25, Z+1	; 0x01
    4c58:	6d 91       	ld	r22, X+
    4c5a:	7c 91       	ld	r23, X
    4c5c:	82 0f       	add	r24, r18
    4c5e:	93 1f       	adc	r25, r19
    4c60:	0e 94 56 33 	call	0x66ac	;  0x66ac
    4c64:	9c 01       	movw	r18, r24
    4c66:	80 e0       	ldi	r24, 0x00	; 0
    4c68:	23 2b       	or	r18, r19
    4c6a:	09 f4       	brne	.+2      	;  0x4c6e
    4c6c:	81 e0       	ldi	r24, 0x01	; 1
    4c6e:	08 95       	ret
    4c70:	dc 01       	movw	r26, r24
    4c72:	fb 01       	movw	r30, r22
    4c74:	60 81       	ld	r22, Z
    4c76:	71 81       	ldd	r23, Z+1	; 0x01
    4c78:	8d 91       	ld	r24, X+
    4c7a:	9c 91       	ld	r25, X
    4c7c:	0e 94 56 33 	call	0x66ac	;  0x66ac
    4c80:	29 2f       	mov	r18, r25
    4c82:	33 27       	eor	r19, r19
    4c84:	27 fd       	sbrc	r18, 7
    4c86:	30 95       	com	r19
    4c88:	20 95       	com	r18
    4c8a:	30 95       	com	r19
    4c8c:	22 27       	eor	r18, r18
    4c8e:	33 0f       	add	r19, r19
    4c90:	22 1f       	adc	r18, r18
    4c92:	33 27       	eor	r19, r19
    4c94:	c9 01       	movw	r24, r18
    4c96:	08 95       	ret
    4c98:	dc 01       	movw	r26, r24
    4c9a:	fb 01       	movw	r30, r22
    4c9c:	60 81       	ld	r22, Z
    4c9e:	71 81       	ldd	r23, Z+1	; 0x01
    4ca0:	8d 91       	ld	r24, X+
    4ca2:	9c 91       	ld	r25, X
    4ca4:	0e 94 56 33 	call	0x66ac	;  0x66ac
    4ca8:	40 e0       	ldi	r20, 0x00	; 0
    4caa:	50 e0       	ldi	r21, 0x00	; 0
    4cac:	18 16       	cp	r1, r24
    4cae:	19 06       	cpc	r1, r25
    4cb0:	14 f0       	brlt	.+4      	;  0x4cb6
    4cb2:	41 e0       	ldi	r20, 0x01	; 1
    4cb4:	50 e0       	ldi	r21, 0x00	; 0
    4cb6:	ca 01       	movw	r24, r20
    4cb8:	08 95       	ret
    4cba:	dc 01       	movw	r26, r24
    4cbc:	fb 01       	movw	r30, r22
    4cbe:	60 81       	ld	r22, Z
    4cc0:	71 81       	ldd	r23, Z+1	; 0x01
    4cc2:	8d 91       	ld	r24, X+
    4cc4:	9c 91       	ld	r25, X
    4cc6:	0e 94 56 33 	call	0x66ac	;  0x66ac
    4cca:	40 e0       	ldi	r20, 0x00	; 0
    4ccc:	50 e0       	ldi	r21, 0x00	; 0
    4cce:	18 16       	cp	r1, r24
    4cd0:	19 06       	cpc	r1, r25
    4cd2:	14 f4       	brge	.+4      	;  0x4cd8
    4cd4:	41 e0       	ldi	r20, 0x01	; 1
    4cd6:	50 e0       	ldi	r21, 0x00	; 0
    4cd8:	ca 01       	movw	r24, r20
    4cda:	08 95       	ret
    4cdc:	dc 01       	movw	r26, r24
    4cde:	fb 01       	movw	r30, r22
    4ce0:	60 81       	ld	r22, Z
    4ce2:	71 81       	ldd	r23, Z+1	; 0x01
    4ce4:	8d 91       	ld	r24, X+
    4ce6:	9c 91       	ld	r25, X
    4ce8:	0e 94 56 33 	call	0x66ac	;  0x66ac
    4cec:	29 2f       	mov	r18, r25
    4cee:	33 27       	eor	r19, r19
    4cf0:	27 fd       	sbrc	r18, 7
    4cf2:	30 95       	com	r19
    4cf4:	22 27       	eor	r18, r18
    4cf6:	33 0f       	add	r19, r19
    4cf8:	22 1f       	adc	r18, r18
    4cfa:	33 27       	eor	r19, r19
    4cfc:	c9 01       	movw	r24, r18
    4cfe:	08 95       	ret
    4d00:	dc 01       	movw	r26, r24
    4d02:	fb 01       	movw	r30, r22
    4d04:	14 96       	adiw	r26, 0x04	; 4
    4d06:	2d 91       	ld	r18, X+
    4d08:	3c 91       	ld	r19, X
    4d0a:	15 97       	sbiw	r26, 0x05	; 5
    4d0c:	84 81       	ldd	r24, Z+4	; 0x04
    4d0e:	95 81       	ldd	r25, Z+5	; 0x05
    4d10:	28 17       	cp	r18, r24
    4d12:	39 07       	cpc	r19, r25
    4d14:	51 f4       	brne	.+20     	;  0x4d2a
    4d16:	60 81       	ld	r22, Z
    4d18:	71 81       	ldd	r23, Z+1	; 0x01
    4d1a:	8d 91       	ld	r24, X+
    4d1c:	9c 91       	ld	r25, X
    4d1e:	0e 94 56 33 	call	0x66ac	;  0x66ac
    4d22:	9c 01       	movw	r18, r24
    4d24:	80 e0       	ldi	r24, 0x00	; 0
    4d26:	23 2b       	or	r18, r19
    4d28:	09 f0       	breq	.+2      	;  0x4d2c
    4d2a:	81 e0       	ldi	r24, 0x01	; 1
    4d2c:	90 e0       	ldi	r25, 0x00	; 0
    4d2e:	08 95       	ret
    4d30:	dc 01       	movw	r26, r24
    4d32:	fb 01       	movw	r30, r22
    4d34:	14 96       	adiw	r26, 0x04	; 4
    4d36:	2d 91       	ld	r18, X+
    4d38:	3c 91       	ld	r19, X
    4d3a:	15 97       	sbiw	r26, 0x05	; 5
    4d3c:	84 81       	ldd	r24, Z+4	; 0x04
    4d3e:	95 81       	ldd	r25, Z+5	; 0x05
    4d40:	28 17       	cp	r18, r24
    4d42:	39 07       	cpc	r19, r25
    4d44:	11 f0       	breq	.+4      	;  0x4d4a
    4d46:	80 e0       	ldi	r24, 0x00	; 0
    4d48:	0b c0       	rjmp	.+22     	;  0x4d60
    4d4a:	60 81       	ld	r22, Z
    4d4c:	71 81       	ldd	r23, Z+1	; 0x01
    4d4e:	8d 91       	ld	r24, X+
    4d50:	9c 91       	ld	r25, X
    4d52:	0e 94 56 33 	call	0x66ac	;  0x66ac
    4d56:	9c 01       	movw	r18, r24
    4d58:	80 e0       	ldi	r24, 0x00	; 0
    4d5a:	23 2b       	or	r18, r19
    4d5c:	09 f4       	brne	.+2      	;  0x4d60
    4d5e:	81 e0       	ldi	r24, 0x01	; 1
    4d60:	90 e0       	ldi	r25, 0x00	; 0
    4d62:	08 95       	ret
    4d64:	fc 01       	movw	r30, r24
    4d66:	db 01       	movw	r26, r22
    4d68:	6d 91       	ld	r22, X+
    4d6a:	7c 91       	ld	r23, X
    4d6c:	80 81       	ld	r24, Z
    4d6e:	91 81       	ldd	r25, Z+1	; 0x01
    4d70:	0e 94 56 33 	call	0x66ac	;  0x66ac
    4d74:	08 95       	ret
    4d76:	0f 93       	push	r16
    4d78:	1f 93       	push	r17
    4d7a:	cf 93       	push	r28
    4d7c:	df 93       	push	r29
    4d7e:	ec 01       	movw	r28, r24
    4d80:	8b 01       	movw	r16, r22
    4d82:	fb 01       	movw	r30, r22
    4d84:	64 81       	ldd	r22, Z+4	; 0x04
    4d86:	75 81       	ldd	r23, Z+5	; 0x05
    4d88:	8c 81       	ldd	r24, Y+4	; 0x04
    4d8a:	9d 81       	ldd	r25, Y+5	; 0x05
    4d8c:	68 0f       	add	r22, r24
    4d8e:	79 1f       	adc	r23, r25
    4d90:	7d 83       	std	Y+5, r23	; 0x05
    4d92:	6c 83       	std	Y+4, r22	; 0x04
    4d94:	8a 81       	ldd	r24, Y+2	; 0x02
    4d96:	9b 81       	ldd	r25, Y+3	; 0x03
    4d98:	86 17       	cp	r24, r22
    4d9a:	97 07       	cpc	r25, r23
    4d9c:	b8 f4       	brcc	.+46     	;  0x4dcc
    4d9e:	6f 5f       	subi	r22, 0xFF	; 255
    4da0:	7f 4f       	sbci	r23, 0xFF	; 255
    4da2:	88 81       	ld	r24, Y
    4da4:	99 81       	ldd	r25, Y+1	; 0x01
    4da6:	0e 94 1d 32 	call	0x643a	;  0x643a
    4daa:	4c 81       	ldd	r20, Y+4	; 0x04
    4dac:	5d 81       	ldd	r21, Y+5	; 0x05
    4dae:	00 97       	sbiw	r24, 0x00	; 0
    4db0:	29 f0       	breq	.+10     	;  0x4dbc
    4db2:	99 83       	std	Y+1, r25	; 0x01
    4db4:	88 83       	st	Y, r24
    4db6:	5b 83       	std	Y+3, r21	; 0x03
    4db8:	4a 83       	std	Y+2, r20	; 0x02
    4dba:	08 c0       	rjmp	.+16     	;  0x4dcc
    4dbc:	f8 01       	movw	r30, r16
    4dbe:	84 81       	ldd	r24, Z+4	; 0x04
    4dc0:	95 81       	ldd	r25, Z+5	; 0x05
    4dc2:	48 1b       	sub	r20, r24
    4dc4:	59 0b       	sbc	r21, r25
    4dc6:	5d 83       	std	Y+5, r21	; 0x05
    4dc8:	4c 83       	std	Y+4, r20	; 0x04
    4dca:	07 c0       	rjmp	.+14     	;  0x4dda
    4dcc:	f8 01       	movw	r30, r16
    4dce:	60 81       	ld	r22, Z
    4dd0:	71 81       	ldd	r23, Z+1	; 0x01
    4dd2:	88 81       	ld	r24, Y
    4dd4:	99 81       	ldd	r25, Y+1	; 0x01
    4dd6:	0e 94 40 33 	call	0x6680	;  0x6680
    4dda:	ce 01       	movw	r24, r28
    4ddc:	df 91       	pop	r29
    4dde:	cf 91       	pop	r28
    4de0:	1f 91       	pop	r17
    4de2:	0f 91       	pop	r16
    4de4:	08 95       	ret
    4de6:	0e 94 bb 26 	call	0x4d76	;  0x4d76
    4dea:	08 95       	ret
    4dec:	cf 93       	push	r28
    4dee:	df 93       	push	r29
    4df0:	ec 01       	movw	r28, r24
    4df2:	cb 01       	movw	r24, r22
    4df4:	7b 83       	std	Y+3, r23	; 0x03
    4df6:	6a 83       	std	Y+2, r22	; 0x02
    4df8:	01 96       	adiw	r24, 0x01	; 1
    4dfa:	0e 94 18 31 	call	0x6230	;  0x6230
    4dfe:	99 83       	std	Y+1, r25	; 0x01
    4e00:	88 83       	st	Y, r24
    4e02:	00 97       	sbiw	r24, 0x00	; 0
    4e04:	21 f4       	brne	.+8      	;  0x4e0e
    4e06:	1b 82       	std	Y+3, r1	; 0x03
    4e08:	1a 82       	std	Y+2, r1	; 0x02
    4e0a:	1d 82       	std	Y+5, r1	; 0x05
    4e0c:	1c 82       	std	Y+4, r1	; 0x04
    4e0e:	df 91       	pop	r29
    4e10:	cf 91       	pop	r28
    4e12:	08 95       	ret
    4e14:	0f 93       	push	r16
    4e16:	1f 93       	push	r17
    4e18:	cf 93       	push	r28
    4e1a:	df 93       	push	r29
    4e1c:	ec 01       	movw	r28, r24
    4e1e:	8b 01       	movw	r16, r22
    4e20:	86 17       	cp	r24, r22
    4e22:	97 07       	cpc	r25, r23
    4e24:	09 f1       	breq	.+66     	;  0x4e68
    4e26:	fb 01       	movw	r30, r22
    4e28:	24 81       	ldd	r18, Z+4	; 0x04
    4e2a:	35 81       	ldd	r19, Z+5	; 0x05
    4e2c:	8c 81       	ldd	r24, Y+4	; 0x04
    4e2e:	9d 81       	ldd	r25, Y+5	; 0x05
    4e30:	82 17       	cp	r24, r18
    4e32:	93 07       	cpc	r25, r19
    4e34:	50 f4       	brcc	.+20     	;  0x4e4a
    4e36:	88 81       	ld	r24, Y
    4e38:	99 81       	ldd	r25, Y+1	; 0x01
    4e3a:	0e 94 c5 31 	call	0x638a	;  0x638a
    4e3e:	f8 01       	movw	r30, r16
    4e40:	64 81       	ldd	r22, Z+4	; 0x04
    4e42:	75 81       	ldd	r23, Z+5	; 0x05
    4e44:	ce 01       	movw	r24, r28
    4e46:	0e 94 f6 26 	call	0x4dec	;  0x4dec
    4e4a:	28 81       	ld	r18, Y
    4e4c:	39 81       	ldd	r19, Y+1	; 0x01
    4e4e:	21 15       	cp	r18, r1
    4e50:	31 05       	cpc	r19, r1
    4e52:	51 f0       	breq	.+20     	;  0x4e68
    4e54:	f8 01       	movw	r30, r16
    4e56:	84 81       	ldd	r24, Z+4	; 0x04
    4e58:	95 81       	ldd	r25, Z+5	; 0x05
    4e5a:	9d 83       	std	Y+5, r25	; 0x05
    4e5c:	8c 83       	std	Y+4, r24	; 0x04
    4e5e:	60 81       	ld	r22, Z
    4e60:	71 81       	ldd	r23, Z+1	; 0x01
    4e62:	c9 01       	movw	r24, r18
    4e64:	0e 94 5f 33 	call	0x66be	;  0x66be
    4e68:	ce 01       	movw	r24, r28
    4e6a:	df 91       	pop	r29
    4e6c:	cf 91       	pop	r28
    4e6e:	1f 91       	pop	r17
    4e70:	0f 91       	pop	r16
    4e72:	08 95       	ret
    4e74:	1f 93       	push	r17
    4e76:	cf 93       	push	r28
    4e78:	df 93       	push	r29
    4e7a:	ec 01       	movw	r28, r24
    4e7c:	16 2f       	mov	r17, r22
    4e7e:	81 e0       	ldi	r24, 0x01	; 1
    4e80:	90 e0       	ldi	r25, 0x00	; 0
    4e82:	9d 83       	std	Y+5, r25	; 0x05
    4e84:	8c 83       	std	Y+4, r24	; 0x04
    4e86:	ce 01       	movw	r24, r28
    4e88:	61 e0       	ldi	r22, 0x01	; 1
    4e8a:	70 e0       	ldi	r23, 0x00	; 0
    4e8c:	0e 94 f6 26 	call	0x4dec	;  0x4dec
    4e90:	e8 81       	ld	r30, Y
    4e92:	f9 81       	ldd	r31, Y+1	; 0x01
    4e94:	30 97       	sbiw	r30, 0x00	; 0
    4e96:	21 f0       	breq	.+8      	;  0x4ea0
    4e98:	10 83       	st	Z, r17
    4e9a:	e8 81       	ld	r30, Y
    4e9c:	f9 81       	ldd	r31, Y+1	; 0x01
    4e9e:	11 82       	std	Z+1, r1	; 0x01
    4ea0:	df 91       	pop	r29
    4ea2:	cf 91       	pop	r28
    4ea4:	1f 91       	pop	r17
    4ea6:	08 95       	ret
    4ea8:	1f 93       	push	r17
    4eaa:	cf 93       	push	r28
    4eac:	df 93       	push	r29
    4eae:	ec 01       	movw	r28, r24
    4eb0:	16 2f       	mov	r17, r22
    4eb2:	81 e0       	ldi	r24, 0x01	; 1
    4eb4:	90 e0       	ldi	r25, 0x00	; 0
    4eb6:	9d 83       	std	Y+5, r25	; 0x05
    4eb8:	8c 83       	std	Y+4, r24	; 0x04
    4eba:	ce 01       	movw	r24, r28
    4ebc:	61 e0       	ldi	r22, 0x01	; 1
    4ebe:	70 e0       	ldi	r23, 0x00	; 0
    4ec0:	0e 94 f6 26 	call	0x4dec	;  0x4dec
    4ec4:	e8 81       	ld	r30, Y
    4ec6:	f9 81       	ldd	r31, Y+1	; 0x01
    4ec8:	30 97       	sbiw	r30, 0x00	; 0
    4eca:	21 f0       	breq	.+8      	;  0x4ed4
    4ecc:	10 83       	st	Z, r17
    4ece:	e8 81       	ld	r30, Y
    4ed0:	f9 81       	ldd	r31, Y+1	; 0x01
    4ed2:	11 82       	std	Z+1, r1	; 0x01
    4ed4:	df 91       	pop	r29
    4ed6:	cf 91       	pop	r28
    4ed8:	1f 91       	pop	r17
    4eda:	08 95       	ret
    4edc:	1f 93       	push	r17
    4ede:	cf 93       	push	r28
    4ee0:	df 93       	push	r29
    4ee2:	ec 01       	movw	r28, r24
    4ee4:	16 2f       	mov	r17, r22
    4ee6:	81 e0       	ldi	r24, 0x01	; 1
    4ee8:	90 e0       	ldi	r25, 0x00	; 0
    4eea:	9d 83       	std	Y+5, r25	; 0x05
    4eec:	8c 83       	std	Y+4, r24	; 0x04
    4eee:	ce 01       	movw	r24, r28
    4ef0:	61 e0       	ldi	r22, 0x01	; 1
    4ef2:	70 e0       	ldi	r23, 0x00	; 0
    4ef4:	0e 94 f6 26 	call	0x4dec	;  0x4dec
    4ef8:	e8 81       	ld	r30, Y
    4efa:	f9 81       	ldd	r31, Y+1	; 0x01
    4efc:	30 97       	sbiw	r30, 0x00	; 0
    4efe:	21 f0       	breq	.+8      	;  0x4f08
    4f00:	10 83       	st	Z, r17
    4f02:	e8 81       	ld	r30, Y
    4f04:	f9 81       	ldd	r31, Y+1	; 0x01
    4f06:	11 82       	std	Z+1, r1	; 0x01
    4f08:	df 91       	pop	r29
    4f0a:	cf 91       	pop	r28
    4f0c:	1f 91       	pop	r17
    4f0e:	08 95       	ret
    4f10:	1f 93       	push	r17
    4f12:	cf 93       	push	r28
    4f14:	df 93       	push	r29
    4f16:	ec 01       	movw	r28, r24
    4f18:	16 2f       	mov	r17, r22
    4f1a:	81 e0       	ldi	r24, 0x01	; 1
    4f1c:	90 e0       	ldi	r25, 0x00	; 0
    4f1e:	9d 83       	std	Y+5, r25	; 0x05
    4f20:	8c 83       	std	Y+4, r24	; 0x04
    4f22:	ce 01       	movw	r24, r28
    4f24:	61 e0       	ldi	r22, 0x01	; 1
    4f26:	70 e0       	ldi	r23, 0x00	; 0
    4f28:	0e 94 f6 26 	call	0x4dec	;  0x4dec
    4f2c:	e8 81       	ld	r30, Y
    4f2e:	f9 81       	ldd	r31, Y+1	; 0x01
    4f30:	30 97       	sbiw	r30, 0x00	; 0
    4f32:	21 f0       	breq	.+8      	;  0x4f3c
    4f34:	10 83       	st	Z, r17
    4f36:	e8 81       	ld	r30, Y
    4f38:	f9 81       	ldd	r31, Y+1	; 0x01
    4f3a:	11 82       	std	Z+1, r1	; 0x01
    4f3c:	df 91       	pop	r29
    4f3e:	cf 91       	pop	r28
    4f40:	1f 91       	pop	r17
    4f42:	08 95       	ret
    4f44:	0f 93       	push	r16
    4f46:	1f 93       	push	r17
    4f48:	cf 93       	push	r28
    4f4a:	df 93       	push	r29
    4f4c:	8c 01       	movw	r16, r24
    4f4e:	eb 01       	movw	r28, r22
    4f50:	6c 81       	ldd	r22, Y+4	; 0x04
    4f52:	7d 81       	ldd	r23, Y+5	; 0x05
    4f54:	fc 01       	movw	r30, r24
    4f56:	75 83       	std	Z+5, r23	; 0x05
    4f58:	64 83       	std	Z+4, r22	; 0x04
    4f5a:	0e 94 f6 26 	call	0x4dec	;  0x4dec
    4f5e:	f8 01       	movw	r30, r16
    4f60:	80 81       	ld	r24, Z
    4f62:	91 81       	ldd	r25, Z+1	; 0x01
    4f64:	00 97       	sbiw	r24, 0x00	; 0
    4f66:	21 f0       	breq	.+8      	;  0x4f70
    4f68:	68 81       	ld	r22, Y
    4f6a:	79 81       	ldd	r23, Y+1	; 0x01
    4f6c:	0e 94 5f 33 	call	0x66be	;  0x66be
    4f70:	df 91       	pop	r29
    4f72:	cf 91       	pop	r28
    4f74:	1f 91       	pop	r17
    4f76:	0f 91       	pop	r16
    4f78:	08 95       	ret
    4f7a:	0f 93       	push	r16
    4f7c:	1f 93       	push	r17
    4f7e:	cf 93       	push	r28
    4f80:	df 93       	push	r29
    4f82:	8c 01       	movw	r16, r24
    4f84:	eb 01       	movw	r28, r22
    4f86:	6c 81       	ldd	r22, Y+4	; 0x04
    4f88:	7d 81       	ldd	r23, Y+5	; 0x05
    4f8a:	fc 01       	movw	r30, r24
    4f8c:	75 83       	std	Z+5, r23	; 0x05
    4f8e:	64 83       	std	Z+4, r22	; 0x04
    4f90:	0e 94 f6 26 	call	0x4dec	;  0x4dec
    4f94:	f8 01       	movw	r30, r16
    4f96:	80 81       	ld	r24, Z
    4f98:	91 81       	ldd	r25, Z+1	; 0x01
    4f9a:	00 97       	sbiw	r24, 0x00	; 0
    4f9c:	21 f0       	breq	.+8      	;  0x4fa6
    4f9e:	68 81       	ld	r22, Y
    4fa0:	79 81       	ldd	r23, Y+1	; 0x01
    4fa2:	0e 94 5f 33 	call	0x66be	;  0x66be
    4fa6:	df 91       	pop	r29
    4fa8:	cf 91       	pop	r28
    4faa:	1f 91       	pop	r17
    4fac:	0f 91       	pop	r16
    4fae:	08 95       	ret
    4fb0:	ef 92       	push	r14
    4fb2:	ff 92       	push	r15
    4fb4:	0f 93       	push	r16
    4fb6:	1f 93       	push	r17
    4fb8:	df 93       	push	r29
    4fba:	cf 93       	push	r28
    4fbc:	cd b7       	in	r28, 0x3d	; 61
    4fbe:	de b7       	in	r29, 0x3e	; 62
    4fc0:	a1 97       	sbiw	r28, 0x21	; 33
    4fc2:	0f b6       	in	r0, 0x3f	; 63
    4fc4:	f8 94       	cli
    4fc6:	de bf       	out	0x3e, r29	; 62
    4fc8:	0f be       	out	0x3f, r0	; 63
    4fca:	cd bf       	out	0x3d, r28	; 61
    4fcc:	8c 01       	movw	r16, r24
    4fce:	cb 01       	movw	r24, r22
    4fd0:	ba 01       	movw	r22, r20
    4fd2:	7e 01       	movw	r14, r28
    4fd4:	08 94       	sec
    4fd6:	e1 1c       	adc	r14, r1
    4fd8:	f1 1c       	adc	r15, r1
    4fda:	a7 01       	movw	r20, r14
    4fdc:	2a e0       	ldi	r18, 0x0A	; 10
    4fde:	30 e0       	ldi	r19, 0x00	; 0
    4fe0:	0e 94 12 34 	call	0x6824	;  0x6824
    4fe4:	f7 01       	movw	r30, r14
    4fe6:	01 90       	ld	r0, Z+
    4fe8:	00 20       	and	r0, r0
    4fea:	e9 f7       	brne	.-6      	;  0x4fe6
    4fec:	31 97       	sbiw	r30, 0x01	; 1
    4fee:	ee 19       	sub	r30, r14
    4ff0:	ff 09       	sbc	r31, r15
    4ff2:	d8 01       	movw	r26, r16
    4ff4:	15 96       	adiw	r26, 0x05	; 5
    4ff6:	fc 93       	st	X, r31
    4ff8:	ee 93       	st	-X, r30
    4ffa:	14 97       	sbiw	r26, 0x04	; 4
    4ffc:	c8 01       	movw	r24, r16
    4ffe:	bf 01       	movw	r22, r30
    5000:	0e 94 f6 26 	call	0x4dec	;  0x4dec
    5004:	f8 01       	movw	r30, r16
    5006:	80 81       	ld	r24, Z
    5008:	91 81       	ldd	r25, Z+1	; 0x01
    500a:	00 97       	sbiw	r24, 0x00	; 0
    500c:	19 f0       	breq	.+6      	;  0x5014
    500e:	b7 01       	movw	r22, r14
    5010:	0e 94 5f 33 	call	0x66be	;  0x66be
    5014:	a1 96       	adiw	r28, 0x21	; 33
    5016:	0f b6       	in	r0, 0x3f	; 63
    5018:	f8 94       	cli
    501a:	de bf       	out	0x3e, r29	; 62
    501c:	0f be       	out	0x3f, r0	; 63
    501e:	cd bf       	out	0x3d, r28	; 61
    5020:	cf 91       	pop	r28
    5022:	df 91       	pop	r29
    5024:	1f 91       	pop	r17
    5026:	0f 91       	pop	r16
    5028:	ff 90       	pop	r15
    502a:	ef 90       	pop	r14
    502c:	08 95       	ret
    502e:	ef 92       	push	r14
    5030:	ff 92       	push	r15
    5032:	0f 93       	push	r16
    5034:	1f 93       	push	r17
    5036:	df 93       	push	r29
    5038:	cf 93       	push	r28
    503a:	cd b7       	in	r28, 0x3d	; 61
    503c:	de b7       	in	r29, 0x3e	; 62
    503e:	a1 97       	sbiw	r28, 0x21	; 33
    5040:	0f b6       	in	r0, 0x3f	; 63
    5042:	f8 94       	cli
    5044:	de bf       	out	0x3e, r29	; 62
    5046:	0f be       	out	0x3f, r0	; 63
    5048:	cd bf       	out	0x3d, r28	; 61
    504a:	8c 01       	movw	r16, r24
    504c:	cb 01       	movw	r24, r22
    504e:	ba 01       	movw	r22, r20
    5050:	7e 01       	movw	r14, r28
    5052:	08 94       	sec
    5054:	e1 1c       	adc	r14, r1
    5056:	f1 1c       	adc	r15, r1
    5058:	a7 01       	movw	r20, r14
    505a:	2a e0       	ldi	r18, 0x0A	; 10
    505c:	30 e0       	ldi	r19, 0x00	; 0
    505e:	0e 94 12 34 	call	0x6824	;  0x6824
    5062:	f7 01       	movw	r30, r14
    5064:	01 90       	ld	r0, Z+
    5066:	00 20       	and	r0, r0
    5068:	e9 f7       	brne	.-6      	;  0x5064
    506a:	31 97       	sbiw	r30, 0x01	; 1
    506c:	ee 19       	sub	r30, r14
    506e:	ff 09       	sbc	r31, r15
    5070:	d8 01       	movw	r26, r16
    5072:	15 96       	adiw	r26, 0x05	; 5
    5074:	fc 93       	st	X, r31
    5076:	ee 93       	st	-X, r30
    5078:	14 97       	sbiw	r26, 0x04	; 4
    507a:	c8 01       	movw	r24, r16
    507c:	bf 01       	movw	r22, r30
    507e:	0e 94 f6 26 	call	0x4dec	;  0x4dec
    5082:	f8 01       	movw	r30, r16
    5084:	80 81       	ld	r24, Z
    5086:	91 81       	ldd	r25, Z+1	; 0x01
    5088:	00 97       	sbiw	r24, 0x00	; 0
    508a:	19 f0       	breq	.+6      	;  0x5092
    508c:	b7 01       	movw	r22, r14
    508e:	0e 94 5f 33 	call	0x66be	;  0x66be
    5092:	a1 96       	adiw	r28, 0x21	; 33
    5094:	0f b6       	in	r0, 0x3f	; 63
    5096:	f8 94       	cli
    5098:	de bf       	out	0x3e, r29	; 62
    509a:	0f be       	out	0x3f, r0	; 63
    509c:	cd bf       	out	0x3d, r28	; 61
    509e:	cf 91       	pop	r28
    50a0:	df 91       	pop	r29
    50a2:	1f 91       	pop	r17
    50a4:	0f 91       	pop	r16
    50a6:	ff 90       	pop	r15
    50a8:	ef 90       	pop	r14
    50aa:	08 95       	ret
    50ac:	ef 92       	push	r14
    50ae:	ff 92       	push	r15
    50b0:	0f 93       	push	r16
    50b2:	1f 93       	push	r17
    50b4:	df 93       	push	r29
    50b6:	cf 93       	push	r28
    50b8:	cd b7       	in	r28, 0x3d	; 61
    50ba:	de b7       	in	r29, 0x3e	; 62
    50bc:	a1 97       	sbiw	r28, 0x21	; 33
    50be:	0f b6       	in	r0, 0x3f	; 63
    50c0:	f8 94       	cli
    50c2:	de bf       	out	0x3e, r29	; 62
    50c4:	0f be       	out	0x3f, r0	; 63
    50c6:	cd bf       	out	0x3d, r28	; 61
    50c8:	8c 01       	movw	r16, r24
    50ca:	9a 01       	movw	r18, r20
    50cc:	80 e0       	ldi	r24, 0x00	; 0
    50ce:	90 e0       	ldi	r25, 0x00	; 0
    50d0:	7e 01       	movw	r14, r28
    50d2:	08 94       	sec
    50d4:	e1 1c       	adc	r14, r1
    50d6:	f1 1c       	adc	r15, r1
    50d8:	a7 01       	movw	r20, r14
    50da:	0e 94 12 34 	call	0x6824	;  0x6824
    50de:	f7 01       	movw	r30, r14
    50e0:	01 90       	ld	r0, Z+
    50e2:	00 20       	and	r0, r0
    50e4:	e9 f7       	brne	.-6      	;  0x50e0
    50e6:	31 97       	sbiw	r30, 0x01	; 1
    50e8:	ee 19       	sub	r30, r14
    50ea:	ff 09       	sbc	r31, r15
    50ec:	d8 01       	movw	r26, r16
    50ee:	15 96       	adiw	r26, 0x05	; 5
    50f0:	fc 93       	st	X, r31
    50f2:	ee 93       	st	-X, r30
    50f4:	14 97       	sbiw	r26, 0x04	; 4
    50f6:	c8 01       	movw	r24, r16
    50f8:	bf 01       	movw	r22, r30
    50fa:	0e 94 f6 26 	call	0x4dec	;  0x4dec
    50fe:	f8 01       	movw	r30, r16
    5100:	80 81       	ld	r24, Z
    5102:	91 81       	ldd	r25, Z+1	; 0x01
    5104:	00 97       	sbiw	r24, 0x00	; 0
    5106:	19 f0       	breq	.+6      	;  0x510e
    5108:	b7 01       	movw	r22, r14
    510a:	0e 94 5f 33 	call	0x66be	;  0x66be
    510e:	a1 96       	adiw	r28, 0x21	; 33
    5110:	0f b6       	in	r0, 0x3f	; 63
    5112:	f8 94       	cli
    5114:	de bf       	out	0x3e, r29	; 62
    5116:	0f be       	out	0x3f, r0	; 63
    5118:	cd bf       	out	0x3d, r28	; 61
    511a:	cf 91       	pop	r28
    511c:	df 91       	pop	r29
    511e:	1f 91       	pop	r17
    5120:	0f 91       	pop	r16
    5122:	ff 90       	pop	r15
    5124:	ef 90       	pop	r14
    5126:	08 95       	ret
    5128:	ef 92       	push	r14
    512a:	ff 92       	push	r15
    512c:	0f 93       	push	r16
    512e:	1f 93       	push	r17
    5130:	df 93       	push	r29
    5132:	cf 93       	push	r28
    5134:	cd b7       	in	r28, 0x3d	; 61
    5136:	de b7       	in	r29, 0x3e	; 62
    5138:	a1 97       	sbiw	r28, 0x21	; 33
    513a:	0f b6       	in	r0, 0x3f	; 63
    513c:	f8 94       	cli
    513e:	de bf       	out	0x3e, r29	; 62
    5140:	0f be       	out	0x3f, r0	; 63
    5142:	cd bf       	out	0x3d, r28	; 61
    5144:	8c 01       	movw	r16, r24
    5146:	9a 01       	movw	r18, r20
    5148:	80 e0       	ldi	r24, 0x00	; 0
    514a:	90 e0       	ldi	r25, 0x00	; 0
    514c:	7e 01       	movw	r14, r28
    514e:	08 94       	sec
    5150:	e1 1c       	adc	r14, r1
    5152:	f1 1c       	adc	r15, r1
    5154:	a7 01       	movw	r20, r14
    5156:	0e 94 12 34 	call	0x6824	;  0x6824
    515a:	f7 01       	movw	r30, r14
    515c:	01 90       	ld	r0, Z+
    515e:	00 20       	and	r0, r0
    5160:	e9 f7       	brne	.-6      	;  0x515c
    5162:	31 97       	sbiw	r30, 0x01	; 1
    5164:	ee 19       	sub	r30, r14
    5166:	ff 09       	sbc	r31, r15
    5168:	d8 01       	movw	r26, r16
    516a:	15 96       	adiw	r26, 0x05	; 5
    516c:	fc 93       	st	X, r31
    516e:	ee 93       	st	-X, r30
    5170:	14 97       	sbiw	r26, 0x04	; 4
    5172:	c8 01       	movw	r24, r16
    5174:	bf 01       	movw	r22, r30
    5176:	0e 94 f6 26 	call	0x4dec	;  0x4dec
    517a:	f8 01       	movw	r30, r16
    517c:	80 81       	ld	r24, Z
    517e:	91 81       	ldd	r25, Z+1	; 0x01
    5180:	00 97       	sbiw	r24, 0x00	; 0
    5182:	19 f0       	breq	.+6      	;  0x518a
    5184:	b7 01       	movw	r22, r14
    5186:	0e 94 5f 33 	call	0x66be	;  0x66be
    518a:	a1 96       	adiw	r28, 0x21	; 33
    518c:	0f b6       	in	r0, 0x3f	; 63
    518e:	f8 94       	cli
    5190:	de bf       	out	0x3e, r29	; 62
    5192:	0f be       	out	0x3f, r0	; 63
    5194:	cd bf       	out	0x3d, r28	; 61
    5196:	cf 91       	pop	r28
    5198:	df 91       	pop	r29
    519a:	1f 91       	pop	r17
    519c:	0f 91       	pop	r16
    519e:	ff 90       	pop	r15
    51a0:	ef 90       	pop	r14
    51a2:	08 95       	ret
    51a4:	0f 93       	push	r16
    51a6:	1f 93       	push	r17
    51a8:	cf 93       	push	r28
    51aa:	df 93       	push	r29
    51ac:	8c 01       	movw	r16, r24
    51ae:	eb 01       	movw	r28, r22
    51b0:	61 15       	cp	r22, r1
    51b2:	71 05       	cpc	r23, r1
    51b4:	11 f4       	brne	.+4      	;  0x51ba
    51b6:	cb e8       	ldi	r28, 0x8B	; 139
    51b8:	d2 e0       	ldi	r29, 0x02	; 2
    51ba:	fe 01       	movw	r30, r28
    51bc:	01 90       	ld	r0, Z+
    51be:	00 20       	and	r0, r0
    51c0:	e9 f7       	brne	.-6      	;  0x51bc
    51c2:	31 97       	sbiw	r30, 0x01	; 1
    51c4:	ec 1b       	sub	r30, r28
    51c6:	fd 0b       	sbc	r31, r29
    51c8:	d8 01       	movw	r26, r16
    51ca:	15 96       	adiw	r26, 0x05	; 5
    51cc:	fc 93       	st	X, r31
    51ce:	ee 93       	st	-X, r30
    51d0:	14 97       	sbiw	r26, 0x04	; 4
    51d2:	c8 01       	movw	r24, r16
    51d4:	bf 01       	movw	r22, r30
    51d6:	0e 94 f6 26 	call	0x4dec	;  0x4dec
    51da:	f8 01       	movw	r30, r16
    51dc:	80 81       	ld	r24, Z
    51de:	91 81       	ldd	r25, Z+1	; 0x01
    51e0:	00 97       	sbiw	r24, 0x00	; 0
    51e2:	19 f0       	breq	.+6      	;  0x51ea
    51e4:	be 01       	movw	r22, r28
    51e6:	0e 94 5f 33 	call	0x66be	;  0x66be
    51ea:	df 91       	pop	r29
    51ec:	cf 91       	pop	r28
    51ee:	1f 91       	pop	r17
    51f0:	0f 91       	pop	r16
    51f2:	08 95       	ret
    51f4:	af 92       	push	r10
    51f6:	bf 92       	push	r11
    51f8:	cf 92       	push	r12
    51fa:	df 92       	push	r13
    51fc:	ef 92       	push	r14
    51fe:	ff 92       	push	r15
    5200:	0f 93       	push	r16
    5202:	1f 93       	push	r17
    5204:	cf 93       	push	r28
    5206:	df 93       	push	r29
    5208:	b8 2e       	mov	r11, r24
    520a:	a9 2e       	mov	r10, r25
    520c:	6b 01       	movw	r12, r22
    520e:	c8 2f       	mov	r28, r24
    5210:	d9 2f       	mov	r29, r25
    5212:	fb 01       	movw	r30, r22
    5214:	60 81       	ld	r22, Z
    5216:	71 81       	ldd	r23, Z+1	; 0x01
    5218:	ce 01       	movw	r24, r28
    521a:	0e 94 d2 28 	call	0x51a4	;  0x51a4
    521e:	ee 24       	eor	r14, r14
    5220:	ff 24       	eor	r15, r15
    5222:	0e c0       	rjmp	.+28     	;  0x5240
    5224:	08 81       	ld	r16, Y
    5226:	19 81       	ldd	r17, Y+1	; 0x01
    5228:	0e 0d       	add	r16, r14
    522a:	1f 1d       	adc	r17, r15
    522c:	f8 01       	movw	r30, r16
    522e:	80 81       	ld	r24, Z
    5230:	90 e0       	ldi	r25, 0x00	; 0
    5232:	0e 94 22 33 	call	0x6644	;  0x6644
    5236:	f8 01       	movw	r30, r16
    5238:	80 83       	st	Z, r24
    523a:	08 94       	sec
    523c:	e1 1c       	adc	r14, r1
    523e:	f1 1c       	adc	r15, r1
    5240:	f6 01       	movw	r30, r12
    5242:	84 81       	ldd	r24, Z+4	; 0x04
    5244:	95 81       	ldd	r25, Z+5	; 0x05
    5246:	e8 16       	cp	r14, r24
    5248:	f9 06       	cpc	r15, r25
    524a:	60 f3       	brcs	.-40     	;  0x5224
    524c:	8b 2d       	mov	r24, r11
    524e:	9a 2d       	mov	r25, r10
    5250:	df 91       	pop	r29
    5252:	cf 91       	pop	r28
    5254:	1f 91       	pop	r17
    5256:	0f 91       	pop	r16
    5258:	ff 90       	pop	r15
    525a:	ef 90       	pop	r14
    525c:	df 90       	pop	r13
    525e:	cf 90       	pop	r12
    5260:	bf 90       	pop	r11
    5262:	af 90       	pop	r10
    5264:	08 95       	ret
    5266:	af 92       	push	r10
    5268:	bf 92       	push	r11
    526a:	cf 92       	push	r12
    526c:	df 92       	push	r13
    526e:	ef 92       	push	r14
    5270:	ff 92       	push	r15
    5272:	0f 93       	push	r16
    5274:	1f 93       	push	r17
    5276:	cf 93       	push	r28
    5278:	df 93       	push	r29
    527a:	b8 2e       	mov	r11, r24
    527c:	a9 2e       	mov	r10, r25
    527e:	6b 01       	movw	r12, r22
    5280:	c8 2f       	mov	r28, r24
    5282:	d9 2f       	mov	r29, r25
    5284:	fb 01       	movw	r30, r22
    5286:	60 81       	ld	r22, Z
    5288:	71 81       	ldd	r23, Z+1	; 0x01
    528a:	ce 01       	movw	r24, r28
    528c:	0e 94 d2 28 	call	0x51a4	;  0x51a4
    5290:	ee 24       	eor	r14, r14
    5292:	ff 24       	eor	r15, r15
    5294:	0e c0       	rjmp	.+28     	;  0x52b2
    5296:	08 81       	ld	r16, Y
    5298:	19 81       	ldd	r17, Y+1	; 0x01
    529a:	0e 0d       	add	r16, r14
    529c:	1f 1d       	adc	r17, r15
    529e:	f8 01       	movw	r30, r16
    52a0:	80 81       	ld	r24, Z
    52a2:	90 e0       	ldi	r25, 0x00	; 0
    52a4:	0e 94 1a 33 	call	0x6634	;  0x6634
    52a8:	f8 01       	movw	r30, r16
    52aa:	80 83       	st	Z, r24
    52ac:	08 94       	sec
    52ae:	e1 1c       	adc	r14, r1
    52b0:	f1 1c       	adc	r15, r1
    52b2:	f6 01       	movw	r30, r12
    52b4:	84 81       	ldd	r24, Z+4	; 0x04
    52b6:	95 81       	ldd	r25, Z+5	; 0x05
    52b8:	e8 16       	cp	r14, r24
    52ba:	f9 06       	cpc	r15, r25
    52bc:	60 f3       	brcs	.-40     	;  0x5296
    52be:	8b 2d       	mov	r24, r11
    52c0:	9a 2d       	mov	r25, r10
    52c2:	df 91       	pop	r29
    52c4:	cf 91       	pop	r28
    52c6:	1f 91       	pop	r17
    52c8:	0f 91       	pop	r16
    52ca:	ff 90       	pop	r15
    52cc:	ef 90       	pop	r14
    52ce:	df 90       	pop	r13
    52d0:	cf 90       	pop	r12
    52d2:	bf 90       	pop	r11
    52d4:	af 90       	pop	r10
    52d6:	08 95       	ret
    52d8:	ef 92       	push	r14
    52da:	ff 92       	push	r15
    52dc:	0f 93       	push	r16
    52de:	1f 93       	push	r17
    52e0:	df 93       	push	r29
    52e2:	cf 93       	push	r28
    52e4:	cd b7       	in	r28, 0x3d	; 61
    52e6:	de b7       	in	r29, 0x3e	; 62
    52e8:	2c 97       	sbiw	r28, 0x0c	; 12
    52ea:	0f b6       	in	r0, 0x3f	; 63
    52ec:	f8 94       	cli
    52ee:	de bf       	out	0x3e, r29	; 62
    52f0:	0f be       	out	0x3f, r0	; 63
    52f2:	cd bf       	out	0x3d, r28	; 61
    52f4:	fc 01       	movw	r30, r24
    52f6:	7b 01       	movw	r14, r22
    52f8:	86 17       	cp	r24, r22
    52fa:	97 07       	cpc	r25, r23
    52fc:	11 f4       	brne	.+4      	;  0x5302
    52fe:	01 e0       	ldi	r16, 0x01	; 1
    5300:	29 c0       	rjmp	.+82     	;  0x5354
    5302:	24 81       	ldd	r18, Z+4	; 0x04
    5304:	35 81       	ldd	r19, Z+5	; 0x05
    5306:	db 01       	movw	r26, r22
    5308:	14 96       	adiw	r26, 0x04	; 4
    530a:	8d 91       	ld	r24, X+
    530c:	9c 91       	ld	r25, X
    530e:	15 97       	sbiw	r26, 0x05	; 5
    5310:	28 17       	cp	r18, r24
    5312:	39 07       	cpc	r19, r25
    5314:	11 f0       	breq	.+4      	;  0x531a
    5316:	00 e0       	ldi	r16, 0x00	; 0
    5318:	1d c0       	rjmp	.+58     	;  0x5354
    531a:	ce 01       	movw	r24, r28
    531c:	01 96       	adiw	r24, 0x01	; 1
    531e:	bf 01       	movw	r22, r30
    5320:	0e 94 33 29 	call	0x5266	;  0x5266
    5324:	09 81       	ldd	r16, Y+1	; 0x01
    5326:	1a 81       	ldd	r17, Y+2	; 0x02
    5328:	ce 01       	movw	r24, r28
    532a:	07 96       	adiw	r24, 0x07	; 7
    532c:	b7 01       	movw	r22, r14
    532e:	0e 94 33 29 	call	0x5266	;  0x5266
    5332:	6f 81       	ldd	r22, Y+7	; 0x07
    5334:	78 85       	ldd	r23, Y+8	; 0x08
    5336:	c8 01       	movw	r24, r16
    5338:	0e 94 56 33 	call	0x66ac	;  0x66ac
    533c:	00 e0       	ldi	r16, 0x00	; 0
    533e:	00 97       	sbiw	r24, 0x00	; 0
    5340:	09 f4       	brne	.+2      	;  0x5344
    5342:	01 e0       	ldi	r16, 0x01	; 1
    5344:	ce 01       	movw	r24, r28
    5346:	07 96       	adiw	r24, 0x07	; 7
    5348:	0e 94 40 25 	call	0x4a80	;  0x4a80
    534c:	ce 01       	movw	r24, r28
    534e:	01 96       	adiw	r24, 0x01	; 1
    5350:	0e 94 40 25 	call	0x4a80	;  0x4a80
    5354:	80 2f       	mov	r24, r16
    5356:	2c 96       	adiw	r28, 0x0c	; 12
    5358:	0f b6       	in	r0, 0x3f	; 63
    535a:	f8 94       	cli
    535c:	de bf       	out	0x3e, r29	; 62
    535e:	0f be       	out	0x3f, r0	; 63
    5360:	cd bf       	out	0x3d, r28	; 61
    5362:	cf 91       	pop	r28
    5364:	df 91       	pop	r29
    5366:	1f 91       	pop	r17
    5368:	0f 91       	pop	r16
    536a:	ff 90       	pop	r15
    536c:	ef 90       	pop	r14
    536e:	08 95       	ret
    5370:	cf 92       	push	r12
    5372:	df 92       	push	r13
    5374:	ef 92       	push	r14
    5376:	ff 92       	push	r15
    5378:	1f 93       	push	r17
    537a:	cf 93       	push	r28
    537c:	df 93       	push	r29
    537e:	6c 01       	movw	r12, r24
    5380:	7b 01       	movw	r14, r22
    5382:	b9 01       	movw	r22, r18
    5384:	24 17       	cp	r18, r20
    5386:	35 07       	cpc	r19, r21
    5388:	10 f4       	brcc	.+4      	;  0x538e
    538a:	ba 01       	movw	r22, r20
    538c:	a9 01       	movw	r20, r18
    538e:	d7 01       	movw	r26, r14
    5390:	14 96       	adiw	r26, 0x04	; 4
    5392:	8d 91       	ld	r24, X+
    5394:	9c 91       	ld	r25, X
    5396:	15 97       	sbiw	r26, 0x05	; 5
    5398:	eb 01       	movw	r28, r22
    539a:	86 17       	cp	r24, r22
    539c:	97 07       	cpc	r25, r23
    539e:	08 f4       	brcc	.+2      	;  0x53a2
    53a0:	ec 01       	movw	r28, r24
    53a2:	d7 01       	movw	r26, r14
    53a4:	ed 91       	ld	r30, X+
    53a6:	fc 91       	ld	r31, X
    53a8:	11 97       	sbiw	r26, 0x01	; 1
    53aa:	ec 0f       	add	r30, r28
    53ac:	fd 1f       	adc	r31, r29
    53ae:	10 81       	ld	r17, Z
    53b0:	10 82       	st	Z, r1
    53b2:	6d 91       	ld	r22, X+
    53b4:	7c 91       	ld	r23, X
    53b6:	64 0f       	add	r22, r20
    53b8:	75 1f       	adc	r23, r21
    53ba:	c6 01       	movw	r24, r12
    53bc:	0e 94 d2 28 	call	0x51a4	;  0x51a4
    53c0:	d7 01       	movw	r26, r14
    53c2:	ed 91       	ld	r30, X+
    53c4:	fc 91       	ld	r31, X
    53c6:	ec 0f       	add	r30, r28
    53c8:	fd 1f       	adc	r31, r29
    53ca:	10 83       	st	Z, r17
    53cc:	c6 01       	movw	r24, r12
    53ce:	df 91       	pop	r29
    53d0:	cf 91       	pop	r28
    53d2:	1f 91       	pop	r17
    53d4:	ff 90       	pop	r15
    53d6:	ef 90       	pop	r14
    53d8:	df 90       	pop	r13
    53da:	cf 90       	pop	r12
    53dc:	08 95       	ret
    53de:	0f 93       	push	r16
    53e0:	1f 93       	push	r17
    53e2:	8c 01       	movw	r16, r24
    53e4:	fb 01       	movw	r30, r22
    53e6:	24 81       	ldd	r18, Z+4	; 0x04
    53e8:	35 81       	ldd	r19, Z+5	; 0x05
    53ea:	0e 94 b8 29 	call	0x5370	;  0x5370
    53ee:	c8 01       	movw	r24, r16
    53f0:	1f 91       	pop	r17
    53f2:	0f 91       	pop	r16
    53f4:	08 95       	ret
    53f6:	8f 92       	push	r8
    53f8:	9f 92       	push	r9
    53fa:	af 92       	push	r10
    53fc:	bf 92       	push	r11
    53fe:	cf 92       	push	r12
    5400:	df 92       	push	r13
    5402:	ef 92       	push	r14
    5404:	ff 92       	push	r15
    5406:	0f 93       	push	r16
    5408:	1f 93       	push	r17
    540a:	df 93       	push	r29
    540c:	cf 93       	push	r28
    540e:	00 d0       	rcall	.+0      	;  0x5410
    5410:	00 d0       	rcall	.+0      	;  0x5412
    5412:	00 d0       	rcall	.+0      	;  0x5414
    5414:	cd b7       	in	r28, 0x3d	; 61
    5416:	de b7       	in	r29, 0x3e	; 62
    5418:	5c 01       	movw	r10, r24
    541a:	6b 01       	movw	r12, r22
    541c:	db 01       	movw	r26, r22
    541e:	14 96       	adiw	r26, 0x04	; 4
    5420:	8d 91       	ld	r24, X+
    5422:	9c 91       	ld	r25, X
    5424:	15 97       	sbiw	r26, 0x05	; 5
    5426:	00 97       	sbiw	r24, 0x00	; 0
    5428:	a1 f1       	breq	.+104    	;  0x5492
    542a:	01 97       	sbiw	r24, 0x01	; 1
    542c:	48 17       	cp	r20, r24
    542e:	59 07       	cpc	r21, r25
    5430:	80 f1       	brcs	.+96     	;  0x5492
    5432:	f5 01       	movw	r30, r10
    5434:	84 81       	ldd	r24, Z+4	; 0x04
    5436:	95 81       	ldd	r25, Z+5	; 0x05
    5438:	48 17       	cp	r20, r24
    543a:	59 07       	cpc	r21, r25
    543c:	50 f5       	brcc	.+84     	;  0x5492
    543e:	ed 91       	ld	r30, X+
    5440:	fc 91       	ld	r31, X
    5442:	00 81       	ld	r16, Z
    5444:	7a 01       	movw	r14, r20
    5446:	4e 01       	movw	r8, r28
    5448:	08 94       	sec
    544a:	81 1c       	adc	r8, r1
    544c:	91 1c       	adc	r9, r1
    544e:	1f c0       	rjmp	.+62     	;  0x548e
    5450:	d5 01       	movw	r26, r10
    5452:	ed 91       	ld	r30, X+
    5454:	fc 91       	ld	r31, X
    5456:	ee 0d       	add	r30, r14
    5458:	ff 1d       	adc	r31, r15
    545a:	80 81       	ld	r24, Z
    545c:	80 17       	cp	r24, r16
    545e:	a1 f4       	brne	.+40     	;  0x5488
    5460:	f6 01       	movw	r30, r12
    5462:	24 81       	ldd	r18, Z+4	; 0x04
    5464:	35 81       	ldd	r19, Z+5	; 0x05
    5466:	2e 0d       	add	r18, r14
    5468:	3f 1d       	adc	r19, r15
    546a:	c4 01       	movw	r24, r8
    546c:	b5 01       	movw	r22, r10
    546e:	a7 01       	movw	r20, r14
    5470:	0e 94 b8 29 	call	0x5370	;  0x5370
    5474:	c4 01       	movw	r24, r8
    5476:	b6 01       	movw	r22, r12
    5478:	0e 94 02 26 	call	0x4c04	;  0x4c04
    547c:	18 2f       	mov	r17, r24
    547e:	c4 01       	movw	r24, r8
    5480:	0e 94 40 25 	call	0x4a80	;  0x4a80
    5484:	11 23       	and	r17, r17
    5486:	41 f4       	brne	.+16     	;  0x5498
    5488:	08 94       	sec
    548a:	e1 08       	sbc	r14, r1
    548c:	f1 08       	sbc	r15, r1
    548e:	f7 fe       	sbrs	r15, 7
    5490:	df cf       	rjmp	.-66     	;  0x5450
    5492:	ee 24       	eor	r14, r14
    5494:	ea 94       	dec	r14
    5496:	fe 2c       	mov	r15, r14
    5498:	c7 01       	movw	r24, r14
    549a:	26 96       	adiw	r28, 0x06	; 6
    549c:	0f b6       	in	r0, 0x3f	; 63
    549e:	f8 94       	cli
    54a0:	de bf       	out	0x3e, r29	; 62
    54a2:	0f be       	out	0x3f, r0	; 63
    54a4:	cd bf       	out	0x3d, r28	; 61
    54a6:	cf 91       	pop	r28
    54a8:	df 91       	pop	r29
    54aa:	1f 91       	pop	r17
    54ac:	0f 91       	pop	r16
    54ae:	ff 90       	pop	r15
    54b0:	ef 90       	pop	r14
    54b2:	df 90       	pop	r13
    54b4:	cf 90       	pop	r12
    54b6:	bf 90       	pop	r11
    54b8:	af 90       	pop	r10
    54ba:	9f 90       	pop	r9
    54bc:	8f 90       	pop	r8
    54be:	08 95       	ret
    54c0:	fc 01       	movw	r30, r24
    54c2:	db 01       	movw	r26, r22
    54c4:	44 81       	ldd	r20, Z+4	; 0x04
    54c6:	55 81       	ldd	r21, Z+5	; 0x05
    54c8:	14 96       	adiw	r26, 0x04	; 4
    54ca:	8d 91       	ld	r24, X+
    54cc:	9c 91       	ld	r25, X
    54ce:	15 97       	sbiw	r26, 0x05	; 5
    54d0:	48 1b       	sub	r20, r24
    54d2:	59 0b       	sbc	r21, r25
    54d4:	cf 01       	movw	r24, r30
    54d6:	0e 94 fb 29 	call	0x53f6	;  0x53f6
    54da:	08 95       	ret
    54dc:	af 92       	push	r10
    54de:	bf 92       	push	r11
    54e0:	cf 92       	push	r12
    54e2:	df 92       	push	r13
    54e4:	ef 92       	push	r14
    54e6:	ff 92       	push	r15
    54e8:	0f 93       	push	r16
    54ea:	1f 93       	push	r17
    54ec:	df 93       	push	r29
    54ee:	cf 93       	push	r28
    54f0:	00 d0       	rcall	.+0      	;  0x54f2
    54f2:	00 d0       	rcall	.+0      	;  0x54f4
    54f4:	00 d0       	rcall	.+0      	;  0x54f6
    54f6:	cd b7       	in	r28, 0x3d	; 61
    54f8:	de b7       	in	r29, 0x3e	; 62
    54fa:	5c 01       	movw	r10, r24
    54fc:	8b 01       	movw	r16, r22
    54fe:	db 01       	movw	r26, r22
    5500:	6d 91       	ld	r22, X+
    5502:	7c 91       	ld	r23, X
    5504:	61 15       	cp	r22, r1
    5506:	71 05       	cpc	r23, r1
    5508:	21 f4       	brne	.+8      	;  0x5512
    550a:	b8 01       	movw	r22, r16
    550c:	0e 94 a2 27 	call	0x4f44	;  0x4f44
    5510:	3e c0       	rjmp	.+124    	;  0x558e
    5512:	ce 01       	movw	r24, r28
    5514:	01 96       	adiw	r24, 0x01	; 1
    5516:	0e 94 d2 28 	call	0x51a4	;  0x51a4
    551a:	f8 01       	movw	r30, r16
    551c:	e4 80       	ldd	r14, Z+4	; 0x04
    551e:	f5 80       	ldd	r15, Z+5	; 0x05
    5520:	cc 24       	eor	r12, r12
    5522:	dd 24       	eor	r13, r13
    5524:	0e c0       	rjmp	.+28     	;  0x5542
    5526:	d8 01       	movw	r26, r16
    5528:	ed 91       	ld	r30, X+
    552a:	fc 91       	ld	r31, X
    552c:	ec 0d       	add	r30, r12
    552e:	fd 1d       	adc	r31, r13
    5530:	80 81       	ld	r24, Z
    5532:	90 e0       	ldi	r25, 0x00	; 0
    5534:	0e 94 12 33 	call	0x6624	;  0x6624
    5538:	89 2b       	or	r24, r25
    553a:	31 f0       	breq	.+12     	;  0x5548
    553c:	08 94       	sec
    553e:	c1 1c       	adc	r12, r1
    5540:	d1 1c       	adc	r13, r1
    5542:	ce 14       	cp	r12, r14
    5544:	df 04       	cpc	r13, r15
    5546:	78 f3       	brcs	.-34     	;  0x5526
    5548:	ed 80       	ldd	r14, Y+5	; 0x05
    554a:	fe 80       	ldd	r15, Y+6	; 0x06
    554c:	0b c0       	rjmp	.+22     	;  0x5564
    554e:	d8 01       	movw	r26, r16
    5550:	ed 91       	ld	r30, X+
    5552:	fc 91       	ld	r31, X
    5554:	ee 0d       	add	r30, r14
    5556:	ff 1d       	adc	r31, r15
    5558:	80 81       	ld	r24, Z
    555a:	90 e0       	ldi	r25, 0x00	; 0
    555c:	0e 94 12 33 	call	0x6624	;  0x6624
    5560:	89 2b       	or	r24, r25
    5562:	31 f0       	breq	.+12     	;  0x5570
    5564:	08 94       	sec
    5566:	e1 08       	sbc	r14, r1
    5568:	f1 08       	sbc	r15, r1
    556a:	ce 14       	cp	r12, r14
    556c:	df 04       	cpc	r13, r15
    556e:	78 f3       	brcs	.-34     	;  0x554e
    5570:	08 94       	sec
    5572:	e1 1c       	adc	r14, r1
    5574:	f1 1c       	adc	r15, r1
    5576:	c5 01       	movw	r24, r10
    5578:	8e 01       	movw	r16, r28
    557a:	0f 5f       	subi	r16, 0xFF	; 255
    557c:	1f 4f       	sbci	r17, 0xFF	; 255
    557e:	b8 01       	movw	r22, r16
    5580:	a6 01       	movw	r20, r12
    5582:	97 01       	movw	r18, r14
    5584:	0e 94 b8 29 	call	0x5370	;  0x5370
    5588:	c8 01       	movw	r24, r16
    558a:	0e 94 40 25 	call	0x4a80	;  0x4a80
    558e:	c5 01       	movw	r24, r10
    5590:	26 96       	adiw	r28, 0x06	; 6
    5592:	0f b6       	in	r0, 0x3f	; 63
    5594:	f8 94       	cli
    5596:	de bf       	out	0x3e, r29	; 62
    5598:	0f be       	out	0x3f, r0	; 63
    559a:	cd bf       	out	0x3d, r28	; 61
    559c:	cf 91       	pop	r28
    559e:	df 91       	pop	r29
    55a0:	1f 91       	pop	r17
    55a2:	0f 91       	pop	r16
    55a4:	ff 90       	pop	r15
    55a6:	ef 90       	pop	r14
    55a8:	df 90       	pop	r13
    55aa:	cf 90       	pop	r12
    55ac:	bf 90       	pop	r11
    55ae:	af 90       	pop	r10
    55b0:	08 95       	ret
    55b2:	2f 92       	push	r2
    55b4:	3f 92       	push	r3
    55b6:	4f 92       	push	r4
    55b8:	5f 92       	push	r5
    55ba:	6f 92       	push	r6
    55bc:	7f 92       	push	r7
    55be:	8f 92       	push	r8
    55c0:	9f 92       	push	r9
    55c2:	af 92       	push	r10
    55c4:	bf 92       	push	r11
    55c6:	cf 92       	push	r12
    55c8:	df 92       	push	r13
    55ca:	ef 92       	push	r14
    55cc:	ff 92       	push	r15
    55ce:	0f 93       	push	r16
    55d0:	1f 93       	push	r17
    55d2:	df 93       	push	r29
    55d4:	cf 93       	push	r28
    55d6:	cd b7       	in	r28, 0x3d	; 61
    55d8:	de b7       	in	r29, 0x3e	; 62
    55da:	68 97       	sbiw	r28, 0x18	; 24
    55dc:	0f b6       	in	r0, 0x3f	; 63
    55de:	f8 94       	cli
    55e0:	de bf       	out	0x3e, r29	; 62
    55e2:	0f be       	out	0x3f, r0	; 63
    55e4:	cd bf       	out	0x3d, r28	; 61
    55e6:	3c 01       	movw	r6, r24
    55e8:	fb 01       	movw	r30, r22
    55ea:	2a 01       	movw	r4, r20
    55ec:	19 01       	movw	r2, r18
    55ee:	60 81       	ld	r22, Z
    55f0:	71 81       	ldd	r23, Z+1	; 0x01
    55f2:	61 15       	cp	r22, r1
    55f4:	71 05       	cpc	r23, r1
    55f6:	21 f4       	brne	.+8      	;  0x5600
    55f8:	bf 01       	movw	r22, r30
    55fa:	0e 94 a2 27 	call	0x4f44	;  0x4f44
    55fe:	5a c0       	rjmp	.+180    	;  0x56b4
    5600:	7e 01       	movw	r14, r28
    5602:	08 94       	sec
    5604:	e1 1c       	adc	r14, r1
    5606:	f1 1c       	adc	r15, r1
    5608:	c7 01       	movw	r24, r14
    560a:	0e 94 d2 28 	call	0x51a4	;  0x51a4
    560e:	8e 01       	movw	r16, r28
    5610:	09 5f       	subi	r16, 0xF9	; 249
    5612:	1f 4f       	sbci	r17, 0xFF	; 255
    5614:	c8 01       	movw	r24, r16
    5616:	6b e8       	ldi	r22, 0x8B	; 139
    5618:	72 e0       	ldi	r23, 0x02	; 2
    561a:	0e 94 d2 28 	call	0x51a4	;  0x51a4
    561e:	d0 2e       	mov	r13, r16
    5620:	c1 2e       	mov	r12, r17
    5622:	3d e0       	ldi	r19, 0x0D	; 13
    5624:	83 2e       	mov	r8, r19
    5626:	91 2c       	mov	r9, r1
    5628:	8c 0e       	add	r8, r28
    562a:	9d 1e       	adc	r9, r29
    562c:	23 e1       	ldi	r18, 0x13	; 19
    562e:	a2 2e       	mov	r10, r18
    5630:	b1 2c       	mov	r11, r1
    5632:	ac 0e       	add	r10, r28
    5634:	bd 1e       	adc	r11, r29
    5636:	24 c0       	rjmp	.+72     	;  0x5680
    5638:	c4 01       	movw	r24, r8
    563a:	b7 01       	movw	r22, r14
    563c:	40 e0       	ldi	r20, 0x00	; 0
    563e:	50 e0       	ldi	r21, 0x00	; 0
    5640:	98 01       	movw	r18, r16
    5642:	0e 94 b8 29 	call	0x5370	;  0x5370
    5646:	8d 2d       	mov	r24, r13
    5648:	9c 2d       	mov	r25, r12
    564a:	b4 01       	movw	r22, r8
    564c:	0e 94 bb 26 	call	0x4d76	;  0x4d76
    5650:	c4 01       	movw	r24, r8
    5652:	0e 94 40 25 	call	0x4a80	;  0x4a80
    5656:	8d 2d       	mov	r24, r13
    5658:	9c 2d       	mov	r25, r12
    565a:	b1 01       	movw	r22, r2
    565c:	0e 94 bb 26 	call	0x4d76	;  0x4d76
    5660:	f2 01       	movw	r30, r4
    5662:	44 81       	ldd	r20, Z+4	; 0x04
    5664:	55 81       	ldd	r21, Z+5	; 0x05
    5666:	40 0f       	add	r20, r16
    5668:	51 1f       	adc	r21, r17
    566a:	c5 01       	movw	r24, r10
    566c:	b7 01       	movw	r22, r14
    566e:	0e 94 ef 29 	call	0x53de	;  0x53de
    5672:	c7 01       	movw	r24, r14
    5674:	b5 01       	movw	r22, r10
    5676:	0e 94 0a 27 	call	0x4e14	;  0x4e14
    567a:	c5 01       	movw	r24, r10
    567c:	0e 94 40 25 	call	0x4a80	;  0x4a80
    5680:	c7 01       	movw	r24, r14
    5682:	b2 01       	movw	r22, r4
    5684:	0e 94 dc 25 	call	0x4bb8	;  0x4bb8
    5688:	8c 01       	movw	r16, r24
    568a:	ff ef       	ldi	r31, 0xFF	; 255
    568c:	8f 3f       	cpi	r24, 0xFF	; 255
    568e:	9f 07       	cpc	r25, r31
    5690:	99 f6       	brne	.-90     	;  0x5638
    5692:	8d 2d       	mov	r24, r13
    5694:	9c 2d       	mov	r25, r12
    5696:	b7 01       	movw	r22, r14
    5698:	0e 94 bb 26 	call	0x4d76	;  0x4d76
    569c:	c3 01       	movw	r24, r6
    569e:	6d 2d       	mov	r22, r13
    56a0:	7c 2d       	mov	r23, r12
    56a2:	0e 94 a2 27 	call	0x4f44	;  0x4f44
    56a6:	8d 2d       	mov	r24, r13
    56a8:	9c 2d       	mov	r25, r12
    56aa:	0e 94 40 25 	call	0x4a80	;  0x4a80
    56ae:	c7 01       	movw	r24, r14
    56b0:	0e 94 40 25 	call	0x4a80	;  0x4a80
    56b4:	c3 01       	movw	r24, r6
    56b6:	68 96       	adiw	r28, 0x18	; 24
    56b8:	0f b6       	in	r0, 0x3f	; 63
    56ba:	f8 94       	cli
    56bc:	de bf       	out	0x3e, r29	; 62
    56be:	0f be       	out	0x3f, r0	; 63
    56c0:	cd bf       	out	0x3d, r28	; 61
    56c2:	cf 91       	pop	r28
    56c4:	df 91       	pop	r29
    56c6:	1f 91       	pop	r17
    56c8:	0f 91       	pop	r16
    56ca:	ff 90       	pop	r15
    56cc:	ef 90       	pop	r14
    56ce:	df 90       	pop	r13
    56d0:	cf 90       	pop	r12
    56d2:	bf 90       	pop	r11
    56d4:	af 90       	pop	r10
    56d6:	9f 90       	pop	r9
    56d8:	8f 90       	pop	r8
    56da:	7f 90       	pop	r7
    56dc:	6f 90       	pop	r6
    56de:	5f 90       	pop	r5
    56e0:	4f 90       	pop	r4
    56e2:	3f 90       	pop	r3
    56e4:	2f 90       	pop	r2
    56e6:	08 95       	ret
    56e8:	ef 92       	push	r14
    56ea:	ff 92       	push	r15
    56ec:	0f 93       	push	r16
    56ee:	1f 93       	push	r17
    56f0:	df 93       	push	r29
    56f2:	cf 93       	push	r28
    56f4:	00 d0       	rcall	.+0      	;  0x56f6
    56f6:	00 d0       	rcall	.+0      	;  0x56f8
    56f8:	00 d0       	rcall	.+0      	;  0x56fa
    56fa:	cd b7       	in	r28, 0x3d	; 61
    56fc:	de b7       	in	r29, 0x3e	; 62
    56fe:	7c 01       	movw	r14, r24
    5700:	fb 01       	movw	r30, r22
    5702:	14 2f       	mov	r17, r20
    5704:	02 2f       	mov	r16, r18
    5706:	60 81       	ld	r22, Z
    5708:	71 81       	ldd	r23, Z+1	; 0x01
    570a:	61 15       	cp	r22, r1
    570c:	71 05       	cpc	r23, r1
    570e:	21 f4       	brne	.+8      	;  0x5718
    5710:	bf 01       	movw	r22, r30
    5712:	0e 94 a2 27 	call	0x4f44	;  0x4f44
    5716:	19 c0       	rjmp	.+50     	;  0x574a
    5718:	ce 01       	movw	r24, r28
    571a:	01 96       	adiw	r24, 0x01	; 1
    571c:	0e 94 d2 28 	call	0x51a4	;  0x51a4
    5720:	89 81       	ldd	r24, Y+1	; 0x01
    5722:	9a 81       	ldd	r25, Y+2	; 0x02
    5724:	01 c0       	rjmp	.+2      	;  0x5728
    5726:	00 83       	st	Z, r16
    5728:	61 2f       	mov	r22, r17
    572a:	70 e0       	ldi	r23, 0x00	; 0
    572c:	0e 94 4b 33 	call	0x6696	;  0x6696
    5730:	fc 01       	movw	r30, r24
    5732:	00 97       	sbiw	r24, 0x00	; 0
    5734:	c1 f7       	brne	.-16     	;  0x5726
    5736:	c7 01       	movw	r24, r14
    5738:	8e 01       	movw	r16, r28
    573a:	0f 5f       	subi	r16, 0xFF	; 255
    573c:	1f 4f       	sbci	r17, 0xFF	; 255
    573e:	b8 01       	movw	r22, r16
    5740:	0e 94 a2 27 	call	0x4f44	;  0x4f44
    5744:	c8 01       	movw	r24, r16
    5746:	0e 94 40 25 	call	0x4a80	;  0x4a80
    574a:	c7 01       	movw	r24, r14
    574c:	26 96       	adiw	r28, 0x06	; 6
    574e:	0f b6       	in	r0, 0x3f	; 63
    5750:	f8 94       	cli
    5752:	de bf       	out	0x3e, r29	; 62
    5754:	0f be       	out	0x3f, r0	; 63
    5756:	cd bf       	out	0x3d, r28	; 61
    5758:	cf 91       	pop	r28
    575a:	df 91       	pop	r29
    575c:	1f 91       	pop	r17
    575e:	0f 91       	pop	r16
    5760:	ff 90       	pop	r15
    5762:	ef 90       	pop	r14
    5764:	08 95       	ret
    5766:	0f 93       	push	r16
    5768:	1f 93       	push	r17
    576a:	cf 93       	push	r28
    576c:	df 93       	push	r29
    576e:	8c 01       	movw	r16, r24
    5770:	eb 01       	movw	r28, r22
    5772:	61 15       	cp	r22, r1
    5774:	71 05       	cpc	r23, r1
    5776:	11 f4       	brne	.+4      	;  0x577c
    5778:	cb e8       	ldi	r28, 0x8B	; 139
    577a:	d2 e0       	ldi	r29, 0x02	; 2
    577c:	fe 01       	movw	r30, r28
    577e:	01 90       	ld	r0, Z+
    5780:	00 20       	and	r0, r0
    5782:	e9 f7       	brne	.-6      	;  0x577e
    5784:	31 97       	sbiw	r30, 0x01	; 1
    5786:	ec 1b       	sub	r30, r28
    5788:	fd 0b       	sbc	r31, r29
    578a:	d8 01       	movw	r26, r16
    578c:	15 96       	adiw	r26, 0x05	; 5
    578e:	fc 93       	st	X, r31
    5790:	ee 93       	st	-X, r30
    5792:	14 97       	sbiw	r26, 0x04	; 4
    5794:	c8 01       	movw	r24, r16
    5796:	bf 01       	movw	r22, r30
    5798:	0e 94 f6 26 	call	0x4dec	;  0x4dec
    579c:	f8 01       	movw	r30, r16
    579e:	80 81       	ld	r24, Z
    57a0:	91 81       	ldd	r25, Z+1	; 0x01
    57a2:	00 97       	sbiw	r24, 0x00	; 0
    57a4:	19 f0       	breq	.+6      	;  0x57ac
    57a6:	be 01       	movw	r22, r28
    57a8:	0e 94 5f 33 	call	0x66be	;  0x66be
    57ac:	df 91       	pop	r29
    57ae:	cf 91       	pop	r28
    57b0:	1f 91       	pop	r17
    57b2:	0f 91       	pop	r16
    57b4:	08 95       	ret
    57b6:	ef 92       	push	r14
    57b8:	ff 92       	push	r15
    57ba:	0f 93       	push	r16
    57bc:	1f 93       	push	r17
    57be:	df 93       	push	r29
    57c0:	cf 93       	push	r28
    57c2:	cd b7       	in	r28, 0x3d	; 61
    57c4:	de b7       	in	r29, 0x3e	; 62
    57c6:	a1 97       	sbiw	r28, 0x21	; 33
    57c8:	0f b6       	in	r0, 0x3f	; 63
    57ca:	f8 94       	cli
    57cc:	de bf       	out	0x3e, r29	; 62
    57ce:	0f be       	out	0x3f, r0	; 63
    57d0:	cd bf       	out	0x3d, r28	; 61
    57d2:	8c 01       	movw	r16, r24
    57d4:	cb 01       	movw	r24, r22
    57d6:	ba 01       	movw	r22, r20
    57d8:	7e 01       	movw	r14, r28
    57da:	08 94       	sec
    57dc:	e1 1c       	adc	r14, r1
    57de:	f1 1c       	adc	r15, r1
    57e0:	a7 01       	movw	r20, r14
    57e2:	0e 94 c9 33 	call	0x6792	;  0x6792
    57e6:	f7 01       	movw	r30, r14
    57e8:	01 90       	ld	r0, Z+
    57ea:	00 20       	and	r0, r0
    57ec:	e9 f7       	brne	.-6      	;  0x57e8
    57ee:	31 97       	sbiw	r30, 0x01	; 1
    57f0:	ee 19       	sub	r30, r14
    57f2:	ff 09       	sbc	r31, r15
    57f4:	d8 01       	movw	r26, r16
    57f6:	15 96       	adiw	r26, 0x05	; 5
    57f8:	fc 93       	st	X, r31
    57fa:	ee 93       	st	-X, r30
    57fc:	14 97       	sbiw	r26, 0x04	; 4
    57fe:	c8 01       	movw	r24, r16
    5800:	bf 01       	movw	r22, r30
    5802:	0e 94 f6 26 	call	0x4dec	;  0x4dec
    5806:	f8 01       	movw	r30, r16
    5808:	80 81       	ld	r24, Z
    580a:	91 81       	ldd	r25, Z+1	; 0x01
    580c:	00 97       	sbiw	r24, 0x00	; 0
    580e:	19 f0       	breq	.+6      	;  0x5816
    5810:	b7 01       	movw	r22, r14
    5812:	0e 94 5f 33 	call	0x66be	;  0x66be
    5816:	a1 96       	adiw	r28, 0x21	; 33
    5818:	0f b6       	in	r0, 0x3f	; 63
    581a:	f8 94       	cli
    581c:	de bf       	out	0x3e, r29	; 62
    581e:	0f be       	out	0x3f, r0	; 63
    5820:	cd bf       	out	0x3d, r28	; 61
    5822:	cf 91       	pop	r28
    5824:	df 91       	pop	r29
    5826:	1f 91       	pop	r17
    5828:	0f 91       	pop	r16
    582a:	ff 90       	pop	r15
    582c:	ef 90       	pop	r14
    582e:	08 95       	ret
    5830:	ef 92       	push	r14
    5832:	ff 92       	push	r15
    5834:	0f 93       	push	r16
    5836:	1f 93       	push	r17
    5838:	df 93       	push	r29
    583a:	cf 93       	push	r28
    583c:	cd b7       	in	r28, 0x3d	; 61
    583e:	de b7       	in	r29, 0x3e	; 62
    5840:	a1 97       	sbiw	r28, 0x21	; 33
    5842:	0f b6       	in	r0, 0x3f	; 63
    5844:	f8 94       	cli
    5846:	de bf       	out	0x3e, r29	; 62
    5848:	0f be       	out	0x3f, r0	; 63
    584a:	cd bf       	out	0x3d, r28	; 61
    584c:	8c 01       	movw	r16, r24
    584e:	cb 01       	movw	r24, r22
    5850:	ba 01       	movw	r22, r20
    5852:	7e 01       	movw	r14, r28
    5854:	08 94       	sec
    5856:	e1 1c       	adc	r14, r1
    5858:	f1 1c       	adc	r15, r1
    585a:	a7 01       	movw	r20, r14
    585c:	0e 94 c9 33 	call	0x6792	;  0x6792
    5860:	f7 01       	movw	r30, r14
    5862:	01 90       	ld	r0, Z+
    5864:	00 20       	and	r0, r0
    5866:	e9 f7       	brne	.-6      	;  0x5862
    5868:	31 97       	sbiw	r30, 0x01	; 1
    586a:	ee 19       	sub	r30, r14
    586c:	ff 09       	sbc	r31, r15
    586e:	d8 01       	movw	r26, r16
    5870:	15 96       	adiw	r26, 0x05	; 5
    5872:	fc 93       	st	X, r31
    5874:	ee 93       	st	-X, r30
    5876:	14 97       	sbiw	r26, 0x04	; 4
    5878:	c8 01       	movw	r24, r16
    587a:	bf 01       	movw	r22, r30
    587c:	0e 94 f6 26 	call	0x4dec	;  0x4dec
    5880:	f8 01       	movw	r30, r16
    5882:	80 81       	ld	r24, Z
    5884:	91 81       	ldd	r25, Z+1	; 0x01
    5886:	00 97       	sbiw	r24, 0x00	; 0
    5888:	19 f0       	breq	.+6      	;  0x5890
    588a:	b7 01       	movw	r22, r14
    588c:	0e 94 5f 33 	call	0x66be	;  0x66be
    5890:	a1 96       	adiw	r28, 0x21	; 33
    5892:	0f b6       	in	r0, 0x3f	; 63
    5894:	f8 94       	cli
    5896:	de bf       	out	0x3e, r29	; 62
    5898:	0f be       	out	0x3f, r0	; 63
    589a:	cd bf       	out	0x3d, r28	; 61
    589c:	cf 91       	pop	r28
    589e:	df 91       	pop	r29
    58a0:	1f 91       	pop	r17
    58a2:	0f 91       	pop	r16
    58a4:	ff 90       	pop	r15
    58a6:	ef 90       	pop	r14
    58a8:	08 95       	ret
    58aa:	ef 92       	push	r14
    58ac:	ff 92       	push	r15
    58ae:	0f 93       	push	r16
    58b0:	1f 93       	push	r17
    58b2:	df 93       	push	r29
    58b4:	cf 93       	push	r28
    58b6:	cd b7       	in	r28, 0x3d	; 61
    58b8:	de b7       	in	r29, 0x3e	; 62
    58ba:	a1 97       	sbiw	r28, 0x21	; 33
    58bc:	0f b6       	in	r0, 0x3f	; 63
    58be:	f8 94       	cli
    58c0:	de bf       	out	0x3e, r29	; 62
    58c2:	0f be       	out	0x3f, r0	; 63
    58c4:	cd bf       	out	0x3d, r28	; 61
    58c6:	8c 01       	movw	r16, r24
    58c8:	cb 01       	movw	r24, r22
    58ca:	7e 01       	movw	r14, r28
    58cc:	08 94       	sec
    58ce:	e1 1c       	adc	r14, r1
    58d0:	f1 1c       	adc	r15, r1
    58d2:	b7 01       	movw	r22, r14
    58d4:	0e 94 a8 33 	call	0x6750	;  0x6750
    58d8:	f7 01       	movw	r30, r14
    58da:	01 90       	ld	r0, Z+
    58dc:	00 20       	and	r0, r0
    58de:	e9 f7       	brne	.-6      	;  0x58da
    58e0:	31 97       	sbiw	r30, 0x01	; 1
    58e2:	ee 19       	sub	r30, r14
    58e4:	ff 09       	sbc	r31, r15
    58e6:	d8 01       	movw	r26, r16
    58e8:	15 96       	adiw	r26, 0x05	; 5
    58ea:	fc 93       	st	X, r31
    58ec:	ee 93       	st	-X, r30
    58ee:	14 97       	sbiw	r26, 0x04	; 4
    58f0:	c8 01       	movw	r24, r16
    58f2:	bf 01       	movw	r22, r30
    58f4:	0e 94 f6 26 	call	0x4dec	;  0x4dec
    58f8:	f8 01       	movw	r30, r16
    58fa:	80 81       	ld	r24, Z
    58fc:	91 81       	ldd	r25, Z+1	; 0x01
    58fe:	00 97       	sbiw	r24, 0x00	; 0
    5900:	19 f0       	breq	.+6      	;  0x5908
    5902:	b7 01       	movw	r22, r14
    5904:	0e 94 5f 33 	call	0x66be	;  0x66be
    5908:	a1 96       	adiw	r28, 0x21	; 33
    590a:	0f b6       	in	r0, 0x3f	; 63
    590c:	f8 94       	cli
    590e:	de bf       	out	0x3e, r29	; 62
    5910:	0f be       	out	0x3f, r0	; 63
    5912:	cd bf       	out	0x3d, r28	; 61
    5914:	cf 91       	pop	r28
    5916:	df 91       	pop	r29
    5918:	1f 91       	pop	r17
    591a:	0f 91       	pop	r16
    591c:	ff 90       	pop	r15
    591e:	ef 90       	pop	r14
    5920:	08 95       	ret
    5922:	ef 92       	push	r14
    5924:	ff 92       	push	r15
    5926:	0f 93       	push	r16
    5928:	1f 93       	push	r17
    592a:	df 93       	push	r29
    592c:	cf 93       	push	r28
    592e:	cd b7       	in	r28, 0x3d	; 61
    5930:	de b7       	in	r29, 0x3e	; 62
    5932:	a1 97       	sbiw	r28, 0x21	; 33
    5934:	0f b6       	in	r0, 0x3f	; 63
    5936:	f8 94       	cli
    5938:	de bf       	out	0x3e, r29	; 62
    593a:	0f be       	out	0x3f, r0	; 63
    593c:	cd bf       	out	0x3d, r28	; 61
    593e:	8c 01       	movw	r16, r24
    5940:	cb 01       	movw	r24, r22
    5942:	7e 01       	movw	r14, r28
    5944:	08 94       	sec
    5946:	e1 1c       	adc	r14, r1
    5948:	f1 1c       	adc	r15, r1
    594a:	b7 01       	movw	r22, r14
    594c:	0e 94 a8 33 	call	0x6750	;  0x6750
    5950:	f7 01       	movw	r30, r14
    5952:	01 90       	ld	r0, Z+
    5954:	00 20       	and	r0, r0
    5956:	e9 f7       	brne	.-6      	;  0x5952
    5958:	31 97       	sbiw	r30, 0x01	; 1
    595a:	ee 19       	sub	r30, r14
    595c:	ff 09       	sbc	r31, r15
    595e:	d8 01       	movw	r26, r16
    5960:	15 96       	adiw	r26, 0x05	; 5
    5962:	fc 93       	st	X, r31
    5964:	ee 93       	st	-X, r30
    5966:	14 97       	sbiw	r26, 0x04	; 4
    5968:	c8 01       	movw	r24, r16
    596a:	bf 01       	movw	r22, r30
    596c:	0e 94 f6 26 	call	0x4dec	;  0x4dec
    5970:	f8 01       	movw	r30, r16
    5972:	80 81       	ld	r24, Z
    5974:	91 81       	ldd	r25, Z+1	; 0x01
    5976:	00 97       	sbiw	r24, 0x00	; 0
    5978:	19 f0       	breq	.+6      	;  0x5980
    597a:	b7 01       	movw	r22, r14
    597c:	0e 94 5f 33 	call	0x66be	;  0x66be
    5980:	a1 96       	adiw	r28, 0x21	; 33
    5982:	0f b6       	in	r0, 0x3f	; 63
    5984:	f8 94       	cli
    5986:	de bf       	out	0x3e, r29	; 62
    5988:	0f be       	out	0x3f, r0	; 63
    598a:	cd bf       	out	0x3d, r28	; 61
    598c:	cf 91       	pop	r28
    598e:	df 91       	pop	r29
    5990:	1f 91       	pop	r17
    5992:	0f 91       	pop	r16
    5994:	ff 90       	pop	r15
    5996:	ef 90       	pop	r14
    5998:	08 95       	ret
    599a:	1f 92       	push	r1
    599c:	0f 92       	push	r0
    599e:	0f b6       	in	r0, 0x3f	; 63
    59a0:	0f 92       	push	r0
    59a2:	11 24       	eor	r1, r1
    59a4:	2f 93       	push	r18
    59a6:	3f 93       	push	r19
    59a8:	8f 93       	push	r24
    59aa:	9f 93       	push	r25
    59ac:	af 93       	push	r26
    59ae:	bf 93       	push	r27
    59b0:	80 91 bf 05 	lds	r24, 0x05BF
    59b4:	90 91 c0 05 	lds	r25, 0x05C0
    59b8:	a0 91 c1 05 	lds	r26, 0x05C1
    59bc:	b0 91 c2 05 	lds	r27, 0x05C2
    59c0:	30 91 c3 05 	lds	r19, 0x05C3
    59c4:	01 96       	adiw	r24, 0x01	; 1
    59c6:	a1 1d       	adc	r26, r1
    59c8:	b1 1d       	adc	r27, r1
    59ca:	23 2f       	mov	r18, r19
    59cc:	2d 5f       	subi	r18, 0xFD	; 253
    59ce:	2d 37       	cpi	r18, 0x7D	; 125
    59d0:	20 f0       	brcs	.+8      	;  0x59da
    59d2:	2d 57       	subi	r18, 0x7D	; 125
    59d4:	01 96       	adiw	r24, 0x01	; 1
    59d6:	a1 1d       	adc	r26, r1
    59d8:	b1 1d       	adc	r27, r1
    59da:	20 93 c3 05 	sts	0x05C3, r18
    59de:	80 93 bf 05 	sts	0x05BF, r24
    59e2:	90 93 c0 05 	sts	0x05C0, r25
    59e6:	a0 93 c1 05 	sts	0x05C1, r26
    59ea:	b0 93 c2 05 	sts	0x05C2, r27
    59ee:	80 91 bb 05 	lds	r24, 0x05BB
    59f2:	90 91 bc 05 	lds	r25, 0x05BC
    59f6:	a0 91 bd 05 	lds	r26, 0x05BD
    59fa:	b0 91 be 05 	lds	r27, 0x05BE
    59fe:	01 96       	adiw	r24, 0x01	; 1
    5a00:	a1 1d       	adc	r26, r1
    5a02:	b1 1d       	adc	r27, r1
    5a04:	80 93 bb 05 	sts	0x05BB, r24
    5a08:	90 93 bc 05 	sts	0x05BC, r25
    5a0c:	a0 93 bd 05 	sts	0x05BD, r26
    5a10:	b0 93 be 05 	sts	0x05BE, r27
    5a14:	bf 91       	pop	r27
    5a16:	af 91       	pop	r26
    5a18:	9f 91       	pop	r25
    5a1a:	8f 91       	pop	r24
    5a1c:	3f 91       	pop	r19
    5a1e:	2f 91       	pop	r18
    5a20:	0f 90       	pop	r0
    5a22:	0f be       	out	0x3f, r0	; 63
    5a24:	0f 90       	pop	r0
    5a26:	1f 90       	pop	r1
    5a28:	18 95       	reti
    5a2a:	8f b7       	in	r24, 0x3f	; 63
    5a2c:	f8 94       	cli
    5a2e:	20 91 bf 05 	lds	r18, 0x05BF
    5a32:	30 91 c0 05 	lds	r19, 0x05C0
    5a36:	40 91 c1 05 	lds	r20, 0x05C1
    5a3a:	50 91 c2 05 	lds	r21, 0x05C2
    5a3e:	8f bf       	out	0x3f, r24	; 63
    5a40:	b9 01       	movw	r22, r18
    5a42:	ca 01       	movw	r24, r20
    5a44:	08 95       	ret
    5a46:	9f b7       	in	r25, 0x3f	; 63
    5a48:	f8 94       	cli
    5a4a:	20 91 bb 05 	lds	r18, 0x05BB
    5a4e:	30 91 bc 05 	lds	r19, 0x05BC
    5a52:	40 91 bd 05 	lds	r20, 0x05BD
    5a56:	50 91 be 05 	lds	r21, 0x05BE
    5a5a:	86 b5       	in	r24, 0x26	; 38
    5a5c:	a8 9b       	sbis	0x15, 0	; 21
    5a5e:	06 c0       	rjmp	.+12     	;  0x5a6c
    5a60:	8f 3f       	cpi	r24, 0xFF	; 255
    5a62:	21 f0       	breq	.+8      	;  0x5a6c
    5a64:	2f 5f       	subi	r18, 0xFF	; 255
    5a66:	3f 4f       	sbci	r19, 0xFF	; 255
    5a68:	4f 4f       	sbci	r20, 0xFF	; 255
    5a6a:	5f 4f       	sbci	r21, 0xFF	; 255
    5a6c:	9f bf       	out	0x3f, r25	; 63
    5a6e:	54 2f       	mov	r21, r20
    5a70:	43 2f       	mov	r20, r19
    5a72:	32 2f       	mov	r19, r18
    5a74:	22 27       	eor	r18, r18
    5a76:	28 0f       	add	r18, r24
    5a78:	31 1d       	adc	r19, r1
    5a7a:	41 1d       	adc	r20, r1
    5a7c:	51 1d       	adc	r21, r1
    5a7e:	82 e0       	ldi	r24, 0x02	; 2
    5a80:	22 0f       	add	r18, r18
    5a82:	33 1f       	adc	r19, r19
    5a84:	44 1f       	adc	r20, r20
    5a86:	55 1f       	adc	r21, r21
    5a88:	8a 95       	dec	r24
    5a8a:	d1 f7       	brne	.-12     	;  0x5a80
    5a8c:	b9 01       	movw	r22, r18
    5a8e:	ca 01       	movw	r24, r20
    5a90:	08 95       	ret
    5a92:	ef 92       	push	r14
    5a94:	ff 92       	push	r15
    5a96:	0f 93       	push	r16
    5a98:	1f 93       	push	r17
    5a9a:	cf 93       	push	r28
    5a9c:	df 93       	push	r29
    5a9e:	7b 01       	movw	r14, r22
    5aa0:	8c 01       	movw	r16, r24
    5aa2:	0e 94 23 2d 	call	0x5a46	;  0x5a46
    5aa6:	eb 01       	movw	r28, r22
    5aa8:	0e c0       	rjmp	.+28     	;  0x5ac6
    5aaa:	0e 94 23 2d 	call	0x5a46	;  0x5a46
    5aae:	6c 1b       	sub	r22, r28
    5ab0:	7d 0b       	sbc	r23, r29
    5ab2:	68 5e       	subi	r22, 0xE8	; 232
    5ab4:	73 40       	sbci	r23, 0x03	; 3
    5ab6:	c8 f3       	brcs	.-14     	;  0x5aaa
    5ab8:	08 94       	sec
    5aba:	e1 08       	sbc	r14, r1
    5abc:	f1 08       	sbc	r15, r1
    5abe:	01 09       	sbc	r16, r1
    5ac0:	11 09       	sbc	r17, r1
    5ac2:	c8 51       	subi	r28, 0x18	; 24
    5ac4:	dc 4f       	sbci	r29, 0xFC	; 252
    5ac6:	e1 14       	cp	r14, r1
    5ac8:	f1 04       	cpc	r15, r1
    5aca:	01 05       	cpc	r16, r1
    5acc:	11 05       	cpc	r17, r1
    5ace:	69 f7       	brne	.-38     	;  0x5aaa
    5ad0:	df 91       	pop	r29
    5ad2:	cf 91       	pop	r28
    5ad4:	1f 91       	pop	r17
    5ad6:	0f 91       	pop	r16
    5ad8:	ff 90       	pop	r15
    5ada:	ef 90       	pop	r14
    5adc:	08 95       	ret
    5ade:	01 97       	sbiw	r24, 0x01	; 1
    5ae0:	39 f0       	breq	.+14     	;  0x5af0
    5ae2:	88 0f       	add	r24, r24
    5ae4:	99 1f       	adc	r25, r25
    5ae6:	88 0f       	add	r24, r24
    5ae8:	99 1f       	adc	r25, r25
    5aea:	02 97       	sbiw	r24, 0x02	; 2
    5aec:	01 97       	sbiw	r24, 0x01	; 1
    5aee:	f1 f7       	brne	.-4      	;  0x5aec
    5af0:	08 95       	ret
    5af2:	78 94       	sei
    5af4:	84 b5       	in	r24, 0x24	; 36
    5af6:	82 60       	ori	r24, 0x02	; 2
    5af8:	84 bd       	out	0x24, r24	; 36
    5afa:	84 b5       	in	r24, 0x24	; 36
    5afc:	81 60       	ori	r24, 0x01	; 1
    5afe:	84 bd       	out	0x24, r24	; 36
    5b00:	85 b5       	in	r24, 0x25	; 37
    5b02:	82 60       	ori	r24, 0x02	; 2
    5b04:	85 bd       	out	0x25, r24	; 37
    5b06:	85 b5       	in	r24, 0x25	; 37
    5b08:	81 60       	ori	r24, 0x01	; 1
    5b0a:	85 bd       	out	0x25, r24	; 37
    5b0c:	ee e6       	ldi	r30, 0x6E	; 110
    5b0e:	f0 e0       	ldi	r31, 0x00	; 0
    5b10:	80 81       	ld	r24, Z
    5b12:	81 60       	ori	r24, 0x01	; 1
    5b14:	80 83       	st	Z, r24
    5b16:	e1 e8       	ldi	r30, 0x81	; 129
    5b18:	f0 e0       	ldi	r31, 0x00	; 0
    5b1a:	10 82       	st	Z, r1
    5b1c:	80 81       	ld	r24, Z
    5b1e:	82 60       	ori	r24, 0x02	; 2
    5b20:	80 83       	st	Z, r24
    5b22:	80 81       	ld	r24, Z
    5b24:	81 60       	ori	r24, 0x01	; 1
    5b26:	80 83       	st	Z, r24
    5b28:	e0 e8       	ldi	r30, 0x80	; 128
    5b2a:	f0 e0       	ldi	r31, 0x00	; 0
    5b2c:	80 81       	ld	r24, Z
    5b2e:	81 60       	ori	r24, 0x01	; 1
    5b30:	80 83       	st	Z, r24
    5b32:	e1 eb       	ldi	r30, 0xB1	; 177
    5b34:	f0 e0       	ldi	r31, 0x00	; 0
    5b36:	80 81       	ld	r24, Z
    5b38:	84 60       	ori	r24, 0x04	; 4
    5b3a:	80 83       	st	Z, r24
    5b3c:	e0 eb       	ldi	r30, 0xB0	; 176
    5b3e:	f0 e0       	ldi	r31, 0x00	; 0
    5b40:	80 81       	ld	r24, Z
    5b42:	81 60       	ori	r24, 0x01	; 1
    5b44:	80 83       	st	Z, r24
    5b46:	ea e7       	ldi	r30, 0x7A	; 122
    5b48:	f0 e0       	ldi	r31, 0x00	; 0
    5b4a:	80 81       	ld	r24, Z
    5b4c:	84 60       	ori	r24, 0x04	; 4
    5b4e:	80 83       	st	Z, r24
    5b50:	80 81       	ld	r24, Z
    5b52:	82 60       	ori	r24, 0x02	; 2
    5b54:	80 83       	st	Z, r24
    5b56:	80 81       	ld	r24, Z
    5b58:	81 60       	ori	r24, 0x01	; 1
    5b5a:	80 83       	st	Z, r24
    5b5c:	80 81       	ld	r24, Z
    5b5e:	80 68       	ori	r24, 0x80	; 128
    5b60:	80 83       	st	Z, r24
    5b62:	10 92 c1 00 	sts	0x00C1, r1
    5b66:	08 95       	ret
    5b68:	48 2f       	mov	r20, r24
    5b6a:	50 e0       	ldi	r21, 0x00	; 0
    5b6c:	ca 01       	movw	r24, r20
    5b6e:	86 55       	subi	r24, 0x56	; 86
    5b70:	9f 4f       	sbci	r25, 0xFF	; 255
    5b72:	fc 01       	movw	r30, r24
    5b74:	24 91       	lpm	r18, Z+
    5b76:	4a 56       	subi	r20, 0x6A	; 106
    5b78:	5f 4f       	sbci	r21, 0xFF	; 255
    5b7a:	fa 01       	movw	r30, r20
    5b7c:	84 91       	lpm	r24, Z+
    5b7e:	88 23       	and	r24, r24
    5b80:	c1 f0       	breq	.+48     	;  0x5bb2
    5b82:	e8 2f       	mov	r30, r24
    5b84:	f0 e0       	ldi	r31, 0x00	; 0
    5b86:	ee 0f       	add	r30, r30
    5b88:	ff 1f       	adc	r31, r31
    5b8a:	e8 58       	subi	r30, 0x88	; 136
    5b8c:	ff 4f       	sbci	r31, 0xFF	; 255
    5b8e:	a5 91       	lpm	r26, Z+
    5b90:	b4 91       	lpm	r27, Z+
    5b92:	66 23       	and	r22, r22
    5b94:	41 f4       	brne	.+16     	;  0x5ba6
    5b96:	9f b7       	in	r25, 0x3f	; 63
    5b98:	f8 94       	cli
    5b9a:	8c 91       	ld	r24, X
    5b9c:	20 95       	com	r18
    5b9e:	82 23       	and	r24, r18
    5ba0:	8c 93       	st	X, r24
    5ba2:	9f bf       	out	0x3f, r25	; 63
    5ba4:	08 95       	ret
    5ba6:	9f b7       	in	r25, 0x3f	; 63
    5ba8:	f8 94       	cli
    5baa:	8c 91       	ld	r24, X
    5bac:	82 2b       	or	r24, r18
    5bae:	8c 93       	st	X, r24
    5bb0:	9f bf       	out	0x3f, r25	; 63
    5bb2:	08 95       	ret
    5bb4:	83 30       	cpi	r24, 0x03	; 3
    5bb6:	71 f0       	breq	.+28     	;  0x5bd4
    5bb8:	84 30       	cpi	r24, 0x04	; 4
    5bba:	28 f4       	brcc	.+10     	;  0x5bc6
    5bbc:	81 30       	cpi	r24, 0x01	; 1
    5bbe:	a1 f0       	breq	.+40     	;  0x5be8
    5bc0:	82 30       	cpi	r24, 0x02	; 2
    5bc2:	21 f5       	brne	.+72     	;  0x5c0c
    5bc4:	14 c0       	rjmp	.+40     	;  0x5bee
    5bc6:	86 30       	cpi	r24, 0x06	; 6
    5bc8:	b1 f0       	breq	.+44     	;  0x5bf6
    5bca:	87 30       	cpi	r24, 0x07	; 7
    5bcc:	d1 f0       	breq	.+52     	;  0x5c02
    5bce:	84 30       	cpi	r24, 0x04	; 4
    5bd0:	e9 f4       	brne	.+58     	;  0x5c0c
    5bd2:	04 c0       	rjmp	.+8      	;  0x5bdc
    5bd4:	80 91 80 00 	lds	r24, 0x0080
    5bd8:	8f 77       	andi	r24, 0x7F	; 127
    5bda:	03 c0       	rjmp	.+6      	;  0x5be2
    5bdc:	80 91 80 00 	lds	r24, 0x0080
    5be0:	8f 7d       	andi	r24, 0xDF	; 223
    5be2:	80 93 80 00 	sts	0x0080, r24
    5be6:	08 95       	ret
    5be8:	84 b5       	in	r24, 0x24	; 36
    5bea:	8f 77       	andi	r24, 0x7F	; 127
    5bec:	02 c0       	rjmp	.+4      	;  0x5bf2
    5bee:	84 b5       	in	r24, 0x24	; 36
    5bf0:	8f 7d       	andi	r24, 0xDF	; 223
    5bf2:	84 bd       	out	0x24, r24	; 36
    5bf4:	08 95       	ret
    5bf6:	80 91 b0 00 	lds	r24, 0x00B0
    5bfa:	8f 77       	andi	r24, 0x7F	; 127
    5bfc:	80 93 b0 00 	sts	0x00B0, r24
    5c00:	08 95       	ret
    5c02:	80 91 b0 00 	lds	r24, 0x00B0
    5c06:	8f 7d       	andi	r24, 0xDF	; 223
    5c08:	80 93 b0 00 	sts	0x00B0, r24
    5c0c:	08 95       	ret
    5c0e:	ff 92       	push	r15
    5c10:	0f 93       	push	r16
    5c12:	1f 93       	push	r17
    5c14:	f6 2e       	mov	r15, r22
    5c16:	48 2f       	mov	r20, r24
    5c18:	50 e0       	ldi	r21, 0x00	; 0
    5c1a:	ca 01       	movw	r24, r20
    5c1c:	82 54       	subi	r24, 0x42	; 66
    5c1e:	9f 4f       	sbci	r25, 0xFF	; 255
    5c20:	fc 01       	movw	r30, r24
    5c22:	24 91       	lpm	r18, Z+
    5c24:	ca 01       	movw	r24, r20
    5c26:	86 55       	subi	r24, 0x56	; 86
    5c28:	9f 4f       	sbci	r25, 0xFF	; 255
    5c2a:	fc 01       	movw	r30, r24
    5c2c:	14 91       	lpm	r17, Z+
    5c2e:	4a 56       	subi	r20, 0x6A	; 106
    5c30:	5f 4f       	sbci	r21, 0xFF	; 255
    5c32:	fa 01       	movw	r30, r20
    5c34:	04 91       	lpm	r16, Z+
    5c36:	00 23       	and	r16, r16
    5c38:	d9 f0       	breq	.+54     	;  0x5c70
    5c3a:	22 23       	and	r18, r18
    5c3c:	19 f0       	breq	.+6      	;  0x5c44
    5c3e:	82 2f       	mov	r24, r18
    5c40:	0e 94 da 2d 	call	0x5bb4	;  0x5bb4
    5c44:	e0 2f       	mov	r30, r16
    5c46:	f0 e0       	ldi	r31, 0x00	; 0
    5c48:	ee 0f       	add	r30, r30
    5c4a:	ff 1f       	adc	r31, r31
    5c4c:	ee 57       	subi	r30, 0x7E	; 126
    5c4e:	ff 4f       	sbci	r31, 0xFF	; 255
    5c50:	a5 91       	lpm	r26, Z+
    5c52:	b4 91       	lpm	r27, Z+
    5c54:	ff 20       	and	r15, r15
    5c56:	31 f4       	brne	.+12     	;  0x5c64
    5c58:	9f b7       	in	r25, 0x3f	; 63
    5c5a:	f8 94       	cli
    5c5c:	8c 91       	ld	r24, X
    5c5e:	10 95       	com	r17
    5c60:	81 23       	and	r24, r17
    5c62:	04 c0       	rjmp	.+8      	;  0x5c6c
    5c64:	9f b7       	in	r25, 0x3f	; 63
    5c66:	f8 94       	cli
    5c68:	8c 91       	ld	r24, X
    5c6a:	81 2b       	or	r24, r17
    5c6c:	8c 93       	st	X, r24
    5c6e:	9f bf       	out	0x3f, r25	; 63
    5c70:	1f 91       	pop	r17
    5c72:	0f 91       	pop	r16
    5c74:	ff 90       	pop	r15
    5c76:	08 95       	ret
    5c78:	0f 93       	push	r16
    5c7a:	1f 93       	push	r17
    5c7c:	48 2f       	mov	r20, r24
    5c7e:	50 e0       	ldi	r21, 0x00	; 0
    5c80:	ca 01       	movw	r24, r20
    5c82:	82 54       	subi	r24, 0x42	; 66
    5c84:	9f 4f       	sbci	r25, 0xFF	; 255
    5c86:	fc 01       	movw	r30, r24
    5c88:	24 91       	lpm	r18, Z+
    5c8a:	ca 01       	movw	r24, r20
    5c8c:	86 55       	subi	r24, 0x56	; 86
    5c8e:	9f 4f       	sbci	r25, 0xFF	; 255
    5c90:	fc 01       	movw	r30, r24
    5c92:	04 91       	lpm	r16, Z+
    5c94:	4a 56       	subi	r20, 0x6A	; 106
    5c96:	5f 4f       	sbci	r21, 0xFF	; 255
    5c98:	fa 01       	movw	r30, r20
    5c9a:	14 91       	lpm	r17, Z+
    5c9c:	11 23       	and	r17, r17
    5c9e:	19 f4       	brne	.+6      	;  0x5ca6
    5ca0:	20 e0       	ldi	r18, 0x00	; 0
    5ca2:	30 e0       	ldi	r19, 0x00	; 0
    5ca4:	15 c0       	rjmp	.+42     	;  0x5cd0
    5ca6:	22 23       	and	r18, r18
    5ca8:	19 f0       	breq	.+6      	;  0x5cb0
    5caa:	82 2f       	mov	r24, r18
    5cac:	0e 94 da 2d 	call	0x5bb4	;  0x5bb4
    5cb0:	81 2f       	mov	r24, r17
    5cb2:	90 e0       	ldi	r25, 0x00	; 0
    5cb4:	88 0f       	add	r24, r24
    5cb6:	99 1f       	adc	r25, r25
    5cb8:	84 57       	subi	r24, 0x74	; 116
    5cba:	9f 4f       	sbci	r25, 0xFF	; 255
    5cbc:	fc 01       	movw	r30, r24
    5cbe:	a5 91       	lpm	r26, Z+
    5cc0:	b4 91       	lpm	r27, Z+
    5cc2:	8c 91       	ld	r24, X
    5cc4:	20 e0       	ldi	r18, 0x00	; 0
    5cc6:	30 e0       	ldi	r19, 0x00	; 0
    5cc8:	80 23       	and	r24, r16
    5cca:	11 f0       	breq	.+4      	;  0x5cd0
    5ccc:	21 e0       	ldi	r18, 0x01	; 1
    5cce:	30 e0       	ldi	r19, 0x00	; 0
    5cd0:	c9 01       	movw	r24, r18
    5cd2:	1f 91       	pop	r17
    5cd4:	0f 91       	pop	r16
    5cd6:	08 95       	ret
    5cd8:	50 58       	subi	r21, 0x80	; 128
    5cda:	bb 27       	eor	r27, r27
    5cdc:	aa 27       	eor	r26, r26
    5cde:	0e d0       	rcall	.+28     	;  0x5cfc
    5ce0:	75 c1       	rjmp	.+746    	;  0x5fcc
    5ce2:	66 d1       	rcall	.+716    	;  0x5fb0
    5ce4:	30 f0       	brcs	.+12     	;  0x5cf2
    5ce6:	6b d1       	rcall	.+726    	;  0x5fbe
    5ce8:	20 f0       	brcs	.+8      	;  0x5cf2
    5cea:	31 f4       	brne	.+12     	;  0x5cf8
    5cec:	9f 3f       	cpi	r25, 0xFF	; 255
    5cee:	11 f4       	brne	.+4      	;  0x5cf4
    5cf0:	1e f4       	brtc	.+6      	;  0x5cf8
    5cf2:	5b c1       	rjmp	.+694    	;  0x5faa
    5cf4:	0e f4       	brtc	.+2      	;  0x5cf8
    5cf6:	e0 95       	com	r30
    5cf8:	e7 fb       	bst	r30, 7
    5cfa:	51 c1       	rjmp	.+674    	;  0x5f9e
    5cfc:	e9 2f       	mov	r30, r25
    5cfe:	77 d1       	rcall	.+750    	;  0x5fee
    5d00:	80 f3       	brcs	.-32     	;  0x5ce2
    5d02:	ba 17       	cp	r27, r26
    5d04:	62 07       	cpc	r22, r18
    5d06:	73 07       	cpc	r23, r19
    5d08:	84 07       	cpc	r24, r20
    5d0a:	95 07       	cpc	r25, r21
    5d0c:	18 f0       	brcs	.+6      	;  0x5d14
    5d0e:	71 f4       	brne	.+28     	;  0x5d2c
    5d10:	9e f5       	brtc	.+102    	;  0x5d78
    5d12:	8f c1       	rjmp	.+798    	;  0x6032
    5d14:	0e f4       	brtc	.+2      	;  0x5d18
    5d16:	e0 95       	com	r30
    5d18:	0b 2e       	mov	r0, r27
    5d1a:	ba 2f       	mov	r27, r26
    5d1c:	a0 2d       	mov	r26, r0
    5d1e:	0b 01       	movw	r0, r22
    5d20:	b9 01       	movw	r22, r18
    5d22:	90 01       	movw	r18, r0
    5d24:	0c 01       	movw	r0, r24
    5d26:	ca 01       	movw	r24, r20
    5d28:	a0 01       	movw	r20, r0
    5d2a:	11 24       	eor	r1, r1
    5d2c:	ff 27       	eor	r31, r31
    5d2e:	59 1b       	sub	r21, r25
    5d30:	99 f0       	breq	.+38     	;  0x5d58
    5d32:	59 3f       	cpi	r21, 0xF9	; 249
    5d34:	50 f4       	brcc	.+20     	;  0x5d4a
    5d36:	50 3e       	cpi	r21, 0xE0	; 224
    5d38:	68 f1       	brcs	.+90     	;  0x5d94
    5d3a:	1a 16       	cp	r1, r26
    5d3c:	f0 40       	sbci	r31, 0x00	; 0
    5d3e:	a2 2f       	mov	r26, r18
    5d40:	23 2f       	mov	r18, r19
    5d42:	34 2f       	mov	r19, r20
    5d44:	44 27       	eor	r20, r20
    5d46:	58 5f       	subi	r21, 0xF8	; 248
    5d48:	f3 cf       	rjmp	.-26     	;  0x5d30
    5d4a:	46 95       	lsr	r20
    5d4c:	37 95       	ror	r19
    5d4e:	27 95       	ror	r18
    5d50:	a7 95       	ror	r26
    5d52:	f0 40       	sbci	r31, 0x00	; 0
    5d54:	53 95       	inc	r21
    5d56:	c9 f7       	brne	.-14     	;  0x5d4a
    5d58:	7e f4       	brtc	.+30     	;  0x5d78
    5d5a:	1f 16       	cp	r1, r31
    5d5c:	ba 0b       	sbc	r27, r26
    5d5e:	62 0b       	sbc	r22, r18
    5d60:	73 0b       	sbc	r23, r19
    5d62:	84 0b       	sbc	r24, r20
    5d64:	ba f0       	brmi	.+46     	;  0x5d94
    5d66:	91 50       	subi	r25, 0x01	; 1
    5d68:	a1 f0       	breq	.+40     	;  0x5d92
    5d6a:	ff 0f       	add	r31, r31
    5d6c:	bb 1f       	adc	r27, r27
    5d6e:	66 1f       	adc	r22, r22
    5d70:	77 1f       	adc	r23, r23
    5d72:	88 1f       	adc	r24, r24
    5d74:	c2 f7       	brpl	.-16     	;  0x5d66
    5d76:	0e c0       	rjmp	.+28     	;  0x5d94
    5d78:	ba 0f       	add	r27, r26
    5d7a:	62 1f       	adc	r22, r18
    5d7c:	73 1f       	adc	r23, r19
    5d7e:	84 1f       	adc	r24, r20
    5d80:	48 f4       	brcc	.+18     	;  0x5d94
    5d82:	87 95       	ror	r24
    5d84:	77 95       	ror	r23
    5d86:	67 95       	ror	r22
    5d88:	b7 95       	ror	r27
    5d8a:	f7 95       	ror	r31
    5d8c:	9e 3f       	cpi	r25, 0xFE	; 254
    5d8e:	08 f0       	brcs	.+2      	;  0x5d92
    5d90:	b3 cf       	rjmp	.-154    	;  0x5cf8
    5d92:	93 95       	inc	r25
    5d94:	88 0f       	add	r24, r24
    5d96:	08 f0       	brcs	.+2      	;  0x5d9a
    5d98:	99 27       	eor	r25, r25
    5d9a:	ee 0f       	add	r30, r30
    5d9c:	97 95       	ror	r25
    5d9e:	87 95       	ror	r24
    5da0:	08 95       	ret
    5da2:	d9 d0       	rcall	.+434    	;  0x5f56
    5da4:	08 f4       	brcc	.+2      	;  0x5da8
    5da6:	81 e0       	ldi	r24, 0x01	; 1
    5da8:	08 95       	ret
    5daa:	0c d0       	rcall	.+24     	;  0x5dc4
    5dac:	0f c1       	rjmp	.+542    	;  0x5fcc
    5dae:	07 d1       	rcall	.+526    	;  0x5fbe
    5db0:	40 f0       	brcs	.+16     	;  0x5dc2
    5db2:	fe d0       	rcall	.+508    	;  0x5fb0
    5db4:	30 f0       	brcs	.+12     	;  0x5dc2
    5db6:	21 f4       	brne	.+8      	;  0x5dc0
    5db8:	5f 3f       	cpi	r21, 0xFF	; 255
    5dba:	19 f0       	breq	.+6      	;  0x5dc2
    5dbc:	f0 c0       	rjmp	.+480    	;  0x5f9e
    5dbe:	51 11       	cpse	r21, r1
    5dc0:	39 c1       	rjmp	.+626    	;  0x6034
    5dc2:	f3 c0       	rjmp	.+486    	;  0x5faa
    5dc4:	14 d1       	rcall	.+552    	;  0x5fee
    5dc6:	98 f3       	brcs	.-26     	;  0x5dae
    5dc8:	99 23       	and	r25, r25
    5dca:	c9 f3       	breq	.-14     	;  0x5dbe
    5dcc:	55 23       	and	r21, r21
    5dce:	b1 f3       	breq	.-20     	;  0x5dbc
    5dd0:	95 1b       	sub	r25, r21
    5dd2:	55 0b       	sbc	r21, r21
    5dd4:	bb 27       	eor	r27, r27
    5dd6:	aa 27       	eor	r26, r26
    5dd8:	62 17       	cp	r22, r18
    5dda:	73 07       	cpc	r23, r19
    5ddc:	84 07       	cpc	r24, r20
    5dde:	38 f0       	brcs	.+14     	;  0x5dee
    5de0:	9f 5f       	subi	r25, 0xFF	; 255
    5de2:	5f 4f       	sbci	r21, 0xFF	; 255
    5de4:	22 0f       	add	r18, r18
    5de6:	33 1f       	adc	r19, r19
    5de8:	44 1f       	adc	r20, r20
    5dea:	aa 1f       	adc	r26, r26
    5dec:	a9 f3       	breq	.-22     	;  0x5dd8
    5dee:	33 d0       	rcall	.+102    	;  0x5e56
    5df0:	0e 2e       	mov	r0, r30
    5df2:	3a f0       	brmi	.+14     	;  0x5e02
    5df4:	e0 e8       	ldi	r30, 0x80	; 128
    5df6:	30 d0       	rcall	.+96     	;  0x5e58
    5df8:	91 50       	subi	r25, 0x01	; 1
    5dfa:	50 40       	sbci	r21, 0x00	; 0
    5dfc:	e6 95       	lsr	r30
    5dfe:	00 1c       	adc	r0, r0
    5e00:	ca f7       	brpl	.-14     	;  0x5df4
    5e02:	29 d0       	rcall	.+82     	;  0x5e56
    5e04:	fe 2f       	mov	r31, r30
    5e06:	27 d0       	rcall	.+78     	;  0x5e56
    5e08:	66 0f       	add	r22, r22
    5e0a:	77 1f       	adc	r23, r23
    5e0c:	88 1f       	adc	r24, r24
    5e0e:	bb 1f       	adc	r27, r27
    5e10:	26 17       	cp	r18, r22
    5e12:	37 07       	cpc	r19, r23
    5e14:	48 07       	cpc	r20, r24
    5e16:	ab 07       	cpc	r26, r27
    5e18:	b0 e8       	ldi	r27, 0x80	; 128
    5e1a:	09 f0       	breq	.+2      	;  0x5e1e
    5e1c:	bb 0b       	sbc	r27, r27
    5e1e:	80 2d       	mov	r24, r0
    5e20:	bf 01       	movw	r22, r30
    5e22:	ff 27       	eor	r31, r31
    5e24:	93 58       	subi	r25, 0x83	; 131
    5e26:	5f 4f       	sbci	r21, 0xFF	; 255
    5e28:	2a f0       	brmi	.+10     	;  0x5e34
    5e2a:	9e 3f       	cpi	r25, 0xFE	; 254
    5e2c:	51 05       	cpc	r21, r1
    5e2e:	68 f0       	brcs	.+26     	;  0x5e4a
    5e30:	b6 c0       	rjmp	.+364    	;  0x5f9e
    5e32:	00 c1       	rjmp	.+512    	;  0x6034
    5e34:	5f 3f       	cpi	r21, 0xFF	; 255
    5e36:	ec f3       	brlt	.-6      	;  0x5e32
    5e38:	98 3e       	cpi	r25, 0xE8	; 232
    5e3a:	dc f3       	brlt	.-10     	;  0x5e32
    5e3c:	86 95       	lsr	r24
    5e3e:	77 95       	ror	r23
    5e40:	67 95       	ror	r22
    5e42:	b7 95       	ror	r27
    5e44:	f7 95       	ror	r31
    5e46:	9f 5f       	subi	r25, 0xFF	; 255
    5e48:	c9 f7       	brne	.-14     	;  0x5e3c
    5e4a:	88 0f       	add	r24, r24
    5e4c:	91 1d       	adc	r25, r1
    5e4e:	96 95       	lsr	r25
    5e50:	87 95       	ror	r24
    5e52:	97 f9       	bld	r25, 7
    5e54:	08 95       	ret
    5e56:	e1 e0       	ldi	r30, 0x01	; 1
    5e58:	66 0f       	add	r22, r22
    5e5a:	77 1f       	adc	r23, r23
    5e5c:	88 1f       	adc	r24, r24
    5e5e:	bb 1f       	adc	r27, r27
    5e60:	62 17       	cp	r22, r18
    5e62:	73 07       	cpc	r23, r19
    5e64:	84 07       	cpc	r24, r20
    5e66:	ba 07       	cpc	r27, r26
    5e68:	20 f0       	brcs	.+8      	;  0x5e72
    5e6a:	62 1b       	sub	r22, r18
    5e6c:	73 0b       	sbc	r23, r19
    5e6e:	84 0b       	sbc	r24, r20
    5e70:	ba 0b       	sbc	r27, r26
    5e72:	ee 1f       	adc	r30, r30
    5e74:	88 f7       	brcc	.-30     	;  0x5e58
    5e76:	e0 95       	com	r30
    5e78:	08 95       	ret
    5e7a:	04 d0       	rcall	.+8      	;  0x5e84
    5e7c:	68 94       	set
    5e7e:	b1 11       	cpse	r27, r1
    5e80:	d9 c0       	rjmp	.+434    	;  0x6034
    5e82:	08 95       	ret
    5e84:	bc d0       	rcall	.+376    	;  0x5ffe
    5e86:	88 f0       	brcs	.+34     	;  0x5eaa
    5e88:	9f 57       	subi	r25, 0x7F	; 127
    5e8a:	90 f0       	brcs	.+36     	;  0x5eb0
    5e8c:	b9 2f       	mov	r27, r25
    5e8e:	99 27       	eor	r25, r25
    5e90:	b7 51       	subi	r27, 0x17	; 23
    5e92:	a0 f0       	brcs	.+40     	;  0x5ebc
    5e94:	d1 f0       	breq	.+52     	;  0x5eca
    5e96:	66 0f       	add	r22, r22
    5e98:	77 1f       	adc	r23, r23
    5e9a:	88 1f       	adc	r24, r24
    5e9c:	99 1f       	adc	r25, r25
    5e9e:	1a f0       	brmi	.+6      	;  0x5ea6
    5ea0:	ba 95       	dec	r27
    5ea2:	c9 f7       	brne	.-14     	;  0x5e96
    5ea4:	12 c0       	rjmp	.+36     	;  0x5eca
    5ea6:	b1 30       	cpi	r27, 0x01	; 1
    5ea8:	81 f0       	breq	.+32     	;  0x5eca
    5eaa:	c3 d0       	rcall	.+390    	;  0x6032
    5eac:	b1 e0       	ldi	r27, 0x01	; 1
    5eae:	08 95       	ret
    5eb0:	c0 c0       	rjmp	.+384    	;  0x6032
    5eb2:	67 2f       	mov	r22, r23
    5eb4:	78 2f       	mov	r23, r24
    5eb6:	88 27       	eor	r24, r24
    5eb8:	b8 5f       	subi	r27, 0xF8	; 248
    5eba:	39 f0       	breq	.+14     	;  0x5eca
    5ebc:	b9 3f       	cpi	r27, 0xF9	; 249
    5ebe:	cc f3       	brlt	.-14     	;  0x5eb2
    5ec0:	86 95       	lsr	r24
    5ec2:	77 95       	ror	r23
    5ec4:	67 95       	ror	r22
    5ec6:	b3 95       	inc	r27
    5ec8:	d9 f7       	brne	.-10     	;  0x5ec0
    5eca:	3e f4       	brtc	.+14     	;  0x5eda
    5ecc:	90 95       	com	r25
    5ece:	80 95       	com	r24
    5ed0:	70 95       	com	r23
    5ed2:	61 95       	neg	r22
    5ed4:	7f 4f       	sbci	r23, 0xFF	; 255
    5ed6:	8f 4f       	sbci	r24, 0xFF	; 255
    5ed8:	9f 4f       	sbci	r25, 0xFF	; 255
    5eda:	08 95       	ret
    5edc:	e8 94       	clt
    5ede:	09 c0       	rjmp	.+18     	;  0x5ef2
    5ee0:	97 fb       	bst	r25, 7
    5ee2:	3e f4       	brtc	.+14     	;  0x5ef2
    5ee4:	90 95       	com	r25
    5ee6:	80 95       	com	r24
    5ee8:	70 95       	com	r23
    5eea:	61 95       	neg	r22
    5eec:	7f 4f       	sbci	r23, 0xFF	; 255
    5eee:	8f 4f       	sbci	r24, 0xFF	; 255
    5ef0:	9f 4f       	sbci	r25, 0xFF	; 255
    5ef2:	99 23       	and	r25, r25
    5ef4:	a9 f0       	breq	.+42     	;  0x5f20
    5ef6:	f9 2f       	mov	r31, r25
    5ef8:	96 e9       	ldi	r25, 0x96	; 150
    5efa:	bb 27       	eor	r27, r27
    5efc:	93 95       	inc	r25
    5efe:	f6 95       	lsr	r31
    5f00:	87 95       	ror	r24
    5f02:	77 95       	ror	r23
    5f04:	67 95       	ror	r22
    5f06:	b7 95       	ror	r27
    5f08:	f1 11       	cpse	r31, r1
    5f0a:	f8 cf       	rjmp	.-16     	;  0x5efc
    5f0c:	fa f4       	brpl	.+62     	;  0x5f4c
    5f0e:	bb 0f       	add	r27, r27
    5f10:	11 f4       	brne	.+4      	;  0x5f16
    5f12:	60 ff       	sbrs	r22, 0
    5f14:	1b c0       	rjmp	.+54     	;  0x5f4c
    5f16:	6f 5f       	subi	r22, 0xFF	; 255
    5f18:	7f 4f       	sbci	r23, 0xFF	; 255
    5f1a:	8f 4f       	sbci	r24, 0xFF	; 255
    5f1c:	9f 4f       	sbci	r25, 0xFF	; 255
    5f1e:	16 c0       	rjmp	.+44     	;  0x5f4c
    5f20:	88 23       	and	r24, r24
    5f22:	11 f0       	breq	.+4      	;  0x5f28
    5f24:	96 e9       	ldi	r25, 0x96	; 150
    5f26:	11 c0       	rjmp	.+34     	;  0x5f4a
    5f28:	77 23       	and	r23, r23
    5f2a:	21 f0       	breq	.+8      	;  0x5f34
    5f2c:	9e e8       	ldi	r25, 0x8E	; 142
    5f2e:	87 2f       	mov	r24, r23
    5f30:	76 2f       	mov	r23, r22
    5f32:	05 c0       	rjmp	.+10     	;  0x5f3e
    5f34:	66 23       	and	r22, r22
    5f36:	71 f0       	breq	.+28     	;  0x5f54
    5f38:	96 e8       	ldi	r25, 0x86	; 134
    5f3a:	86 2f       	mov	r24, r22
    5f3c:	70 e0       	ldi	r23, 0x00	; 0
    5f3e:	60 e0       	ldi	r22, 0x00	; 0
    5f40:	2a f0       	brmi	.+10     	;  0x5f4c
    5f42:	9a 95       	dec	r25
    5f44:	66 0f       	add	r22, r22
    5f46:	77 1f       	adc	r23, r23
    5f48:	88 1f       	adc	r24, r24
    5f4a:	da f7       	brpl	.-10     	;  0x5f42
    5f4c:	88 0f       	add	r24, r24
    5f4e:	96 95       	lsr	r25
    5f50:	87 95       	ror	r24
    5f52:	97 f9       	bld	r25, 7
    5f54:	08 95       	ret
    5f56:	99 0f       	add	r25, r25
    5f58:	00 08       	sbc	r0, r0
    5f5a:	55 0f       	add	r21, r21
    5f5c:	aa 0b       	sbc	r26, r26
    5f5e:	e0 e8       	ldi	r30, 0x80	; 128
    5f60:	fe ef       	ldi	r31, 0xFE	; 254
    5f62:	16 16       	cp	r1, r22
    5f64:	17 06       	cpc	r1, r23
    5f66:	e8 07       	cpc	r30, r24
    5f68:	f9 07       	cpc	r31, r25
    5f6a:	c0 f0       	brcs	.+48     	;  0x5f9c
    5f6c:	12 16       	cp	r1, r18
    5f6e:	13 06       	cpc	r1, r19
    5f70:	e4 07       	cpc	r30, r20
    5f72:	f5 07       	cpc	r31, r21
    5f74:	98 f0       	brcs	.+38     	;  0x5f9c
    5f76:	62 1b       	sub	r22, r18
    5f78:	73 0b       	sbc	r23, r19
    5f7a:	84 0b       	sbc	r24, r20
    5f7c:	95 0b       	sbc	r25, r21
    5f7e:	39 f4       	brne	.+14     	;  0x5f8e
    5f80:	0a 26       	eor	r0, r26
    5f82:	61 f0       	breq	.+24     	;  0x5f9c
    5f84:	23 2b       	or	r18, r19
    5f86:	24 2b       	or	r18, r20
    5f88:	25 2b       	or	r18, r21
    5f8a:	21 f4       	brne	.+8      	;  0x5f94
    5f8c:	08 95       	ret
    5f8e:	0a 26       	eor	r0, r26
    5f90:	09 f4       	brne	.+2      	;  0x5f94
    5f92:	a1 40       	sbci	r26, 0x01	; 1
    5f94:	a6 95       	lsr	r26
    5f96:	8f ef       	ldi	r24, 0xFF	; 255
    5f98:	81 1d       	adc	r24, r1
    5f9a:	81 1d       	adc	r24, r1
    5f9c:	08 95       	ret
    5f9e:	97 f9       	bld	r25, 7
    5fa0:	9f 67       	ori	r25, 0x7F	; 127
    5fa2:	80 e8       	ldi	r24, 0x80	; 128
    5fa4:	70 e0       	ldi	r23, 0x00	; 0
    5fa6:	60 e0       	ldi	r22, 0x00	; 0
    5fa8:	08 95       	ret
    5faa:	9f ef       	ldi	r25, 0xFF	; 255
    5fac:	80 ec       	ldi	r24, 0xC0	; 192
    5fae:	08 95       	ret
    5fb0:	00 24       	eor	r0, r0
    5fb2:	0a 94       	dec	r0
    5fb4:	16 16       	cp	r1, r22
    5fb6:	17 06       	cpc	r1, r23
    5fb8:	18 06       	cpc	r1, r24
    5fba:	09 06       	cpc	r0, r25
    5fbc:	08 95       	ret
    5fbe:	00 24       	eor	r0, r0
    5fc0:	0a 94       	dec	r0
    5fc2:	12 16       	cp	r1, r18
    5fc4:	13 06       	cpc	r1, r19
    5fc6:	14 06       	cpc	r1, r20
    5fc8:	05 06       	cpc	r0, r21
    5fca:	08 95       	ret
    5fcc:	09 2e       	mov	r0, r25
    5fce:	03 94       	inc	r0
    5fd0:	00 0c       	add	r0, r0
    5fd2:	11 f4       	brne	.+4      	;  0x5fd8
    5fd4:	88 23       	and	r24, r24
    5fd6:	52 f0       	brmi	.+20     	;  0x5fec
    5fd8:	bb 0f       	add	r27, r27
    5fda:	40 f4       	brcc	.+16     	;  0x5fec
    5fdc:	bf 2b       	or	r27, r31
    5fde:	11 f4       	brne	.+4      	;  0x5fe4
    5fe0:	60 ff       	sbrs	r22, 0
    5fe2:	04 c0       	rjmp	.+8      	;  0x5fec
    5fe4:	6f 5f       	subi	r22, 0xFF	; 255
    5fe6:	7f 4f       	sbci	r23, 0xFF	; 255
    5fe8:	8f 4f       	sbci	r24, 0xFF	; 255
    5fea:	9f 4f       	sbci	r25, 0xFF	; 255
    5fec:	08 95       	ret
    5fee:	57 fd       	sbrc	r21, 7
    5ff0:	90 58       	subi	r25, 0x80	; 128
    5ff2:	44 0f       	add	r20, r20
    5ff4:	55 1f       	adc	r21, r21
    5ff6:	59 f0       	breq	.+22     	;  0x600e
    5ff8:	5f 3f       	cpi	r21, 0xFF	; 255
    5ffa:	71 f0       	breq	.+28     	;  0x6018
    5ffc:	47 95       	ror	r20
    5ffe:	88 0f       	add	r24, r24
    6000:	97 fb       	bst	r25, 7
    6002:	99 1f       	adc	r25, r25
    6004:	61 f0       	breq	.+24     	;  0x601e
    6006:	9f 3f       	cpi	r25, 0xFF	; 255
    6008:	79 f0       	breq	.+30     	;  0x6028
    600a:	87 95       	ror	r24
    600c:	08 95       	ret
    600e:	12 16       	cp	r1, r18
    6010:	13 06       	cpc	r1, r19
    6012:	14 06       	cpc	r1, r20
    6014:	55 1f       	adc	r21, r21
    6016:	f2 cf       	rjmp	.-28     	;  0x5ffc
    6018:	46 95       	lsr	r20
    601a:	f1 df       	rcall	.-30     	;  0x5ffe
    601c:	08 c0       	rjmp	.+16     	;  0x602e
    601e:	16 16       	cp	r1, r22
    6020:	17 06       	cpc	r1, r23
    6022:	18 06       	cpc	r1, r24
    6024:	99 1f       	adc	r25, r25
    6026:	f1 cf       	rjmp	.-30     	;  0x600a
    6028:	86 95       	lsr	r24
    602a:	71 05       	cpc	r23, r1
    602c:	61 05       	cpc	r22, r1
    602e:	08 94       	sec
    6030:	08 95       	ret
    6032:	e8 94       	clt
    6034:	bb 27       	eor	r27, r27
    6036:	66 27       	eor	r22, r22
    6038:	77 27       	eor	r23, r23
    603a:	cb 01       	movw	r24, r22
    603c:	97 f9       	bld	r25, 7
    603e:	08 95       	ret
    6040:	0b d0       	rcall	.+22     	;  0x6058
    6042:	c4 cf       	rjmp	.-120    	;  0x5fcc
    6044:	b5 df       	rcall	.-150    	;  0x5fb0
    6046:	28 f0       	brcs	.+10     	;  0x6052
    6048:	ba df       	rcall	.-140    	;  0x5fbe
    604a:	18 f0       	brcs	.+6      	;  0x6052
    604c:	95 23       	and	r25, r21
    604e:	09 f0       	breq	.+2      	;  0x6052
    6050:	a6 cf       	rjmp	.-180    	;  0x5f9e
    6052:	ab cf       	rjmp	.-170    	;  0x5faa
    6054:	11 24       	eor	r1, r1
    6056:	ee cf       	rjmp	.-36     	;  0x6034
    6058:	ca df       	rcall	.-108    	;  0x5fee
    605a:	a0 f3       	brcs	.-24     	;  0x6044
    605c:	95 9f       	mul	r25, r21
    605e:	d1 f3       	breq	.-12     	;  0x6054
    6060:	95 0f       	add	r25, r21
    6062:	50 e0       	ldi	r21, 0x00	; 0
    6064:	55 1f       	adc	r21, r21
    6066:	62 9f       	mul	r22, r18
    6068:	f0 01       	movw	r30, r0
    606a:	72 9f       	mul	r23, r18
    606c:	bb 27       	eor	r27, r27
    606e:	f0 0d       	add	r31, r0
    6070:	b1 1d       	adc	r27, r1
    6072:	63 9f       	mul	r22, r19
    6074:	aa 27       	eor	r26, r26
    6076:	f0 0d       	add	r31, r0
    6078:	b1 1d       	adc	r27, r1
    607a:	aa 1f       	adc	r26, r26
    607c:	64 9f       	mul	r22, r20
    607e:	66 27       	eor	r22, r22
    6080:	b0 0d       	add	r27, r0
    6082:	a1 1d       	adc	r26, r1
    6084:	66 1f       	adc	r22, r22
    6086:	82 9f       	mul	r24, r18
    6088:	22 27       	eor	r18, r18
    608a:	b0 0d       	add	r27, r0
    608c:	a1 1d       	adc	r26, r1
    608e:	62 1f       	adc	r22, r18
    6090:	73 9f       	mul	r23, r19
    6092:	b0 0d       	add	r27, r0
    6094:	a1 1d       	adc	r26, r1
    6096:	62 1f       	adc	r22, r18
    6098:	83 9f       	mul	r24, r19
    609a:	a0 0d       	add	r26, r0
    609c:	61 1d       	adc	r22, r1
    609e:	22 1f       	adc	r18, r18
    60a0:	74 9f       	mul	r23, r20
    60a2:	33 27       	eor	r19, r19
    60a4:	a0 0d       	add	r26, r0
    60a6:	61 1d       	adc	r22, r1
    60a8:	23 1f       	adc	r18, r19
    60aa:	84 9f       	mul	r24, r20
    60ac:	60 0d       	add	r22, r0
    60ae:	21 1d       	adc	r18, r1
    60b0:	82 2f       	mov	r24, r18
    60b2:	76 2f       	mov	r23, r22
    60b4:	6a 2f       	mov	r22, r26
    60b6:	11 24       	eor	r1, r1
    60b8:	9f 57       	subi	r25, 0x7F	; 127
    60ba:	50 40       	sbci	r21, 0x00	; 0
    60bc:	8a f0       	brmi	.+34     	;  0x60e0
    60be:	e1 f0       	breq	.+56     	;  0x60f8
    60c0:	88 23       	and	r24, r24
    60c2:	4a f0       	brmi	.+18     	;  0x60d6
    60c4:	ee 0f       	add	r30, r30
    60c6:	ff 1f       	adc	r31, r31
    60c8:	bb 1f       	adc	r27, r27
    60ca:	66 1f       	adc	r22, r22
    60cc:	77 1f       	adc	r23, r23
    60ce:	88 1f       	adc	r24, r24
    60d0:	91 50       	subi	r25, 0x01	; 1
    60d2:	50 40       	sbci	r21, 0x00	; 0
    60d4:	a9 f7       	brne	.-22     	;  0x60c0
    60d6:	9e 3f       	cpi	r25, 0xFE	; 254
    60d8:	51 05       	cpc	r21, r1
    60da:	70 f0       	brcs	.+28     	;  0x60f8
    60dc:	60 cf       	rjmp	.-320    	;  0x5f9e
    60de:	aa cf       	rjmp	.-172    	;  0x6034
    60e0:	5f 3f       	cpi	r21, 0xFF	; 255
    60e2:	ec f3       	brlt	.-6      	;  0x60de
    60e4:	98 3e       	cpi	r25, 0xE8	; 232
    60e6:	dc f3       	brlt	.-10     	;  0x60de
    60e8:	86 95       	lsr	r24
    60ea:	77 95       	ror	r23
    60ec:	67 95       	ror	r22
    60ee:	b7 95       	ror	r27
    60f0:	f7 95       	ror	r31
    60f2:	e7 95       	ror	r30
    60f4:	9f 5f       	subi	r25, 0xFF	; 255
    60f6:	c1 f7       	brne	.-16     	;  0x60e8
    60f8:	fe 2b       	or	r31, r30
    60fa:	88 0f       	add	r24, r24
    60fc:	91 1d       	adc	r25, r1
    60fe:	96 95       	lsr	r25
    6100:	87 95       	ror	r24
    6102:	97 f9       	bld	r25, 7
    6104:	08 95       	ret
    6106:	62 9f       	mul	r22, r18
    6108:	d0 01       	movw	r26, r0
    610a:	73 9f       	mul	r23, r19
    610c:	f0 01       	movw	r30, r0
    610e:	82 9f       	mul	r24, r18
    6110:	e0 0d       	add	r30, r0
    6112:	f1 1d       	adc	r31, r1
    6114:	64 9f       	mul	r22, r20
    6116:	e0 0d       	add	r30, r0
    6118:	f1 1d       	adc	r31, r1
    611a:	92 9f       	mul	r25, r18
    611c:	f0 0d       	add	r31, r0
    611e:	83 9f       	mul	r24, r19
    6120:	f0 0d       	add	r31, r0
    6122:	74 9f       	mul	r23, r20
    6124:	f0 0d       	add	r31, r0
    6126:	65 9f       	mul	r22, r21
    6128:	f0 0d       	add	r31, r0
    612a:	99 27       	eor	r25, r25
    612c:	72 9f       	mul	r23, r18
    612e:	b0 0d       	add	r27, r0
    6130:	e1 1d       	adc	r30, r1
    6132:	f9 1f       	adc	r31, r25
    6134:	63 9f       	mul	r22, r19
    6136:	b0 0d       	add	r27, r0
    6138:	e1 1d       	adc	r30, r1
    613a:	f9 1f       	adc	r31, r25
    613c:	bd 01       	movw	r22, r26
    613e:	cf 01       	movw	r24, r30
    6140:	11 24       	eor	r1, r1
    6142:	08 95       	ret
    6144:	99 1b       	sub	r25, r25
    6146:	79 e0       	ldi	r23, 0x09	; 9
    6148:	04 c0       	rjmp	.+8      	;  0x6152
    614a:	99 1f       	adc	r25, r25
    614c:	96 17       	cp	r25, r22
    614e:	08 f0       	brcs	.+2      	;  0x6152
    6150:	96 1b       	sub	r25, r22
    6152:	88 1f       	adc	r24, r24
    6154:	7a 95       	dec	r23
    6156:	c9 f7       	brne	.-14     	;  0x614a
    6158:	80 95       	com	r24
    615a:	08 95       	ret
    615c:	97 fb       	bst	r25, 7
    615e:	09 2e       	mov	r0, r25
    6160:	07 26       	eor	r0, r23
    6162:	0a d0       	rcall	.+20     	;  0x6178
    6164:	77 fd       	sbrc	r23, 7
    6166:	04 d0       	rcall	.+8      	;  0x6170
    6168:	49 d0       	rcall	.+146    	;  0x61fc
    616a:	06 d0       	rcall	.+12     	;  0x6178
    616c:	00 20       	and	r0, r0
    616e:	1a f4       	brpl	.+6      	;  0x6176
    6170:	70 95       	com	r23
    6172:	61 95       	neg	r22
    6174:	7f 4f       	sbci	r23, 0xFF	; 255
    6176:	08 95       	ret
    6178:	f6 f7       	brtc	.-4      	;  0x6176
    617a:	90 95       	com	r25
    617c:	81 95       	neg	r24
    617e:	9f 4f       	sbci	r25, 0xFF	; 255
    6180:	08 95       	ret
    6182:	a1 e2       	ldi	r26, 0x21	; 33
    6184:	1a 2e       	mov	r1, r26
    6186:	aa 1b       	sub	r26, r26
    6188:	bb 1b       	sub	r27, r27
    618a:	fd 01       	movw	r30, r26
    618c:	0d c0       	rjmp	.+26     	;  0x61a8
    618e:	aa 1f       	adc	r26, r26
    6190:	bb 1f       	adc	r27, r27
    6192:	ee 1f       	adc	r30, r30
    6194:	ff 1f       	adc	r31, r31
    6196:	a2 17       	cp	r26, r18
    6198:	b3 07       	cpc	r27, r19
    619a:	e4 07       	cpc	r30, r20
    619c:	f5 07       	cpc	r31, r21
    619e:	20 f0       	brcs	.+8      	;  0x61a8
    61a0:	a2 1b       	sub	r26, r18
    61a2:	b3 0b       	sbc	r27, r19
    61a4:	e4 0b       	sbc	r30, r20
    61a6:	f5 0b       	sbc	r31, r21
    61a8:	66 1f       	adc	r22, r22
    61aa:	77 1f       	adc	r23, r23
    61ac:	88 1f       	adc	r24, r24
    61ae:	99 1f       	adc	r25, r25
    61b0:	1a 94       	dec	r1
    61b2:	69 f7       	brne	.-38     	;  0x618e
    61b4:	60 95       	com	r22
    61b6:	70 95       	com	r23
    61b8:	80 95       	com	r24
    61ba:	90 95       	com	r25
    61bc:	9b 01       	movw	r18, r22
    61be:	ac 01       	movw	r20, r24
    61c0:	bd 01       	movw	r22, r26
    61c2:	cf 01       	movw	r24, r30
    61c4:	08 95       	ret
    61c6:	97 fb       	bst	r25, 7
    61c8:	09 2e       	mov	r0, r25
    61ca:	05 26       	eor	r0, r21
    61cc:	0e d0       	rcall	.+28     	;  0x61ea
    61ce:	57 fd       	sbrc	r21, 7
    61d0:	04 d0       	rcall	.+8      	;  0x61da
    61d2:	d7 df       	rcall	.-82     	;  0x6182
    61d4:	0a d0       	rcall	.+20     	;  0x61ea
    61d6:	00 1c       	adc	r0, r0
    61d8:	38 f4       	brcc	.+14     	;  0x61e8
    61da:	50 95       	com	r21
    61dc:	40 95       	com	r20
    61de:	30 95       	com	r19
    61e0:	21 95       	neg	r18
    61e2:	3f 4f       	sbci	r19, 0xFF	; 255
    61e4:	4f 4f       	sbci	r20, 0xFF	; 255
    61e6:	5f 4f       	sbci	r21, 0xFF	; 255
    61e8:	08 95       	ret
    61ea:	f6 f7       	brtc	.-4      	;  0x61e8
    61ec:	90 95       	com	r25
    61ee:	80 95       	com	r24
    61f0:	70 95       	com	r23
    61f2:	61 95       	neg	r22
    61f4:	7f 4f       	sbci	r23, 0xFF	; 255
    61f6:	8f 4f       	sbci	r24, 0xFF	; 255
    61f8:	9f 4f       	sbci	r25, 0xFF	; 255
    61fa:	08 95       	ret
    61fc:	aa 1b       	sub	r26, r26
    61fe:	bb 1b       	sub	r27, r27
    6200:	51 e1       	ldi	r21, 0x11	; 17
    6202:	07 c0       	rjmp	.+14     	;  0x6212
    6204:	aa 1f       	adc	r26, r26
    6206:	bb 1f       	adc	r27, r27
    6208:	a6 17       	cp	r26, r22
    620a:	b7 07       	cpc	r27, r23
    620c:	10 f0       	brcs	.+4      	;  0x6212
    620e:	a6 1b       	sub	r26, r22
    6210:	b7 0b       	sbc	r27, r23
    6212:	88 1f       	adc	r24, r24
    6214:	99 1f       	adc	r25, r25
    6216:	5a 95       	dec	r21
    6218:	a9 f7       	brne	.-22     	;  0x6204
    621a:	80 95       	com	r24
    621c:	90 95       	com	r25
    621e:	bc 01       	movw	r22, r24
    6220:	cd 01       	movw	r24, r26
    6222:	08 95       	ret
    6224:	ee 0f       	add	r30, r30
    6226:	ff 1f       	adc	r31, r31
    6228:	05 90       	lpm	r0, Z+
    622a:	f4 91       	lpm	r31, Z+
    622c:	e0 2d       	mov	r30, r0
    622e:	09 94       	ijmp
    6230:	cf 93       	push	r28
    6232:	df 93       	push	r29
    6234:	bc 01       	movw	r22, r24
    6236:	82 30       	cpi	r24, 0x02	; 2
    6238:	91 05       	cpc	r25, r1
    623a:	10 f4       	brcc	.+4      	;  0x6240
    623c:	62 e0       	ldi	r22, 0x02	; 2
    623e:	70 e0       	ldi	r23, 0x00	; 0
    6240:	a0 91 c6 05 	lds	r26, 0x05C6
    6244:	b0 91 c7 05 	lds	r27, 0x05C7
    6248:	ed 01       	movw	r28, r26
    624a:	e0 e0       	ldi	r30, 0x00	; 0
    624c:	f0 e0       	ldi	r31, 0x00	; 0
    624e:	40 e0       	ldi	r20, 0x00	; 0
    6250:	50 e0       	ldi	r21, 0x00	; 0
    6252:	21 c0       	rjmp	.+66     	;  0x6296
    6254:	88 81       	ld	r24, Y
    6256:	99 81       	ldd	r25, Y+1	; 0x01
    6258:	86 17       	cp	r24, r22
    625a:	97 07       	cpc	r25, r23
    625c:	69 f4       	brne	.+26     	;  0x6278
    625e:	8a 81       	ldd	r24, Y+2	; 0x02
    6260:	9b 81       	ldd	r25, Y+3	; 0x03
    6262:	30 97       	sbiw	r30, 0x00	; 0
    6264:	19 f0       	breq	.+6      	;  0x626c
    6266:	93 83       	std	Z+3, r25	; 0x03
    6268:	82 83       	std	Z+2, r24	; 0x02
    626a:	04 c0       	rjmp	.+8      	;  0x6274
    626c:	90 93 c7 05 	sts	0x05C7, r25
    6270:	80 93 c6 05 	sts	0x05C6, r24
    6274:	fe 01       	movw	r30, r28
    6276:	34 c0       	rjmp	.+104    	;  0x62e0
    6278:	68 17       	cp	r22, r24
    627a:	79 07       	cpc	r23, r25
    627c:	38 f4       	brcc	.+14     	;  0x628c
    627e:	41 15       	cp	r20, r1
    6280:	51 05       	cpc	r21, r1
    6282:	19 f0       	breq	.+6      	;  0x628a
    6284:	84 17       	cp	r24, r20
    6286:	95 07       	cpc	r25, r21
    6288:	08 f4       	brcc	.+2      	;  0x628c
    628a:	ac 01       	movw	r20, r24
    628c:	fe 01       	movw	r30, r28
    628e:	8a 81       	ldd	r24, Y+2	; 0x02
    6290:	9b 81       	ldd	r25, Y+3	; 0x03
    6292:	9c 01       	movw	r18, r24
    6294:	e9 01       	movw	r28, r18
    6296:	20 97       	sbiw	r28, 0x00	; 0
    6298:	e9 f6       	brne	.-70     	;  0x6254
    629a:	41 15       	cp	r20, r1
    629c:	51 05       	cpc	r21, r1
    629e:	a9 f1       	breq	.+106    	;  0x630a
    62a0:	ca 01       	movw	r24, r20
    62a2:	86 1b       	sub	r24, r22
    62a4:	97 0b       	sbc	r25, r23
    62a6:	04 97       	sbiw	r24, 0x04	; 4
    62a8:	08 f4       	brcc	.+2      	;  0x62ac
    62aa:	ba 01       	movw	r22, r20
    62ac:	e0 e0       	ldi	r30, 0x00	; 0
    62ae:	f0 e0       	ldi	r31, 0x00	; 0
    62b0:	2a c0       	rjmp	.+84     	;  0x6306
    62b2:	8d 91       	ld	r24, X+
    62b4:	9c 91       	ld	r25, X
    62b6:	11 97       	sbiw	r26, 0x01	; 1
    62b8:	84 17       	cp	r24, r20
    62ba:	95 07       	cpc	r25, r21
    62bc:	f9 f4       	brne	.+62     	;  0x62fc
    62be:	64 17       	cp	r22, r20
    62c0:	75 07       	cpc	r23, r21
    62c2:	81 f4       	brne	.+32     	;  0x62e4
    62c4:	12 96       	adiw	r26, 0x02	; 2
    62c6:	8d 91       	ld	r24, X+
    62c8:	9c 91       	ld	r25, X
    62ca:	13 97       	sbiw	r26, 0x03	; 3
    62cc:	30 97       	sbiw	r30, 0x00	; 0
    62ce:	19 f0       	breq	.+6      	;  0x62d6
    62d0:	93 83       	std	Z+3, r25	; 0x03
    62d2:	82 83       	std	Z+2, r24	; 0x02
    62d4:	04 c0       	rjmp	.+8      	;  0x62de
    62d6:	90 93 c7 05 	sts	0x05C7, r25
    62da:	80 93 c6 05 	sts	0x05C6, r24
    62de:	fd 01       	movw	r30, r26
    62e0:	32 96       	adiw	r30, 0x02	; 2
    62e2:	4f c0       	rjmp	.+158    	;  0x6382
    62e4:	ca 01       	movw	r24, r20
    62e6:	86 1b       	sub	r24, r22
    62e8:	97 0b       	sbc	r25, r23
    62ea:	fd 01       	movw	r30, r26
    62ec:	e8 0f       	add	r30, r24
    62ee:	f9 1f       	adc	r31, r25
    62f0:	61 93       	st	Z+, r22
    62f2:	71 93       	st	Z+, r23
    62f4:	02 97       	sbiw	r24, 0x02	; 2
    62f6:	8d 93       	st	X+, r24
    62f8:	9c 93       	st	X, r25
    62fa:	43 c0       	rjmp	.+134    	;  0x6382
    62fc:	fd 01       	movw	r30, r26
    62fe:	82 81       	ldd	r24, Z+2	; 0x02
    6300:	93 81       	ldd	r25, Z+3	; 0x03
    6302:	9c 01       	movw	r18, r24
    6304:	d9 01       	movw	r26, r18
    6306:	10 97       	sbiw	r26, 0x00	; 0
    6308:	a1 f6       	brne	.-88     	;  0x62b2
    630a:	80 91 c4 05 	lds	r24, 0x05C4
    630e:	90 91 c5 05 	lds	r25, 0x05C5
    6312:	89 2b       	or	r24, r25
    6314:	41 f4       	brne	.+16     	;  0x6326
    6316:	80 91 8e 02 	lds	r24, 0x028E
    631a:	90 91 8f 02 	lds	r25, 0x028F
    631e:	90 93 c5 05 	sts	0x05C5, r25
    6322:	80 93 c4 05 	sts	0x05C4, r24
    6326:	40 91 90 02 	lds	r20, 0x0290
    632a:	50 91 91 02 	lds	r21, 0x0291
    632e:	41 15       	cp	r20, r1
    6330:	51 05       	cpc	r21, r1
    6332:	41 f4       	brne	.+16     	;  0x6344
    6334:	4d b7       	in	r20, 0x3d	; 61
    6336:	5e b7       	in	r21, 0x3e	; 62
    6338:	80 91 8c 02 	lds	r24, 0x028C
    633c:	90 91 8d 02 	lds	r25, 0x028D
    6340:	48 1b       	sub	r20, r24
    6342:	59 0b       	sbc	r21, r25
    6344:	20 91 c4 05 	lds	r18, 0x05C4
    6348:	30 91 c5 05 	lds	r19, 0x05C5
    634c:	24 17       	cp	r18, r20
    634e:	35 07       	cpc	r19, r21
    6350:	b0 f4       	brcc	.+44     	;  0x637e
    6352:	ca 01       	movw	r24, r20
    6354:	82 1b       	sub	r24, r18
    6356:	93 0b       	sbc	r25, r19
    6358:	86 17       	cp	r24, r22
    635a:	97 07       	cpc	r25, r23
    635c:	80 f0       	brcs	.+32     	;  0x637e
    635e:	ab 01       	movw	r20, r22
    6360:	4e 5f       	subi	r20, 0xFE	; 254
    6362:	5f 4f       	sbci	r21, 0xFF	; 255
    6364:	84 17       	cp	r24, r20
    6366:	95 07       	cpc	r25, r21
    6368:	50 f0       	brcs	.+20     	;  0x637e
    636a:	42 0f       	add	r20, r18
    636c:	53 1f       	adc	r21, r19
    636e:	50 93 c5 05 	sts	0x05C5, r21
    6372:	40 93 c4 05 	sts	0x05C4, r20
    6376:	f9 01       	movw	r30, r18
    6378:	61 93       	st	Z+, r22
    637a:	71 93       	st	Z+, r23
    637c:	02 c0       	rjmp	.+4      	;  0x6382
    637e:	e0 e0       	ldi	r30, 0x00	; 0
    6380:	f0 e0       	ldi	r31, 0x00	; 0
    6382:	cf 01       	movw	r24, r30
    6384:	df 91       	pop	r29
    6386:	cf 91       	pop	r28
    6388:	08 95       	ret
    638a:	cf 93       	push	r28
    638c:	df 93       	push	r29
    638e:	00 97       	sbiw	r24, 0x00	; 0
    6390:	09 f4       	brne	.+2      	;  0x6394
    6392:	50 c0       	rjmp	.+160    	;  0x6434
    6394:	ec 01       	movw	r28, r24
    6396:	22 97       	sbiw	r28, 0x02	; 2
    6398:	1b 82       	std	Y+3, r1	; 0x03
    639a:	1a 82       	std	Y+2, r1	; 0x02
    639c:	a0 91 c6 05 	lds	r26, 0x05C6
    63a0:	b0 91 c7 05 	lds	r27, 0x05C7
    63a4:	10 97       	sbiw	r26, 0x00	; 0
    63a6:	09 f1       	breq	.+66     	;  0x63ea
    63a8:	40 e0       	ldi	r20, 0x00	; 0
    63aa:	50 e0       	ldi	r21, 0x00	; 0
    63ac:	ac 17       	cp	r26, r28
    63ae:	bd 07       	cpc	r27, r29
    63b0:	08 f1       	brcs	.+66     	;  0x63f4
    63b2:	bb 83       	std	Y+3, r27	; 0x03
    63b4:	aa 83       	std	Y+2, r26	; 0x02
    63b6:	fe 01       	movw	r30, r28
    63b8:	21 91       	ld	r18, Z+
    63ba:	31 91       	ld	r19, Z+
    63bc:	e2 0f       	add	r30, r18
    63be:	f3 1f       	adc	r31, r19
    63c0:	ae 17       	cp	r26, r30
    63c2:	bf 07       	cpc	r27, r31
    63c4:	79 f4       	brne	.+30     	;  0x63e4
    63c6:	8d 91       	ld	r24, X+
    63c8:	9c 91       	ld	r25, X
    63ca:	11 97       	sbiw	r26, 0x01	; 1
    63cc:	28 0f       	add	r18, r24
    63ce:	39 1f       	adc	r19, r25
    63d0:	2e 5f       	subi	r18, 0xFE	; 254
    63d2:	3f 4f       	sbci	r19, 0xFF	; 255
    63d4:	39 83       	std	Y+1, r19	; 0x01
    63d6:	28 83       	st	Y, r18
    63d8:	12 96       	adiw	r26, 0x02	; 2
    63da:	8d 91       	ld	r24, X+
    63dc:	9c 91       	ld	r25, X
    63de:	13 97       	sbiw	r26, 0x03	; 3
    63e0:	9b 83       	std	Y+3, r25	; 0x03
    63e2:	8a 83       	std	Y+2, r24	; 0x02
    63e4:	41 15       	cp	r20, r1
    63e6:	51 05       	cpc	r21, r1
    63e8:	71 f4       	brne	.+28     	;  0x6406
    63ea:	d0 93 c7 05 	sts	0x05C7, r29
    63ee:	c0 93 c6 05 	sts	0x05C6, r28
    63f2:	20 c0       	rjmp	.+64     	;  0x6434
    63f4:	12 96       	adiw	r26, 0x02	; 2
    63f6:	8d 91       	ld	r24, X+
    63f8:	9c 91       	ld	r25, X
    63fa:	13 97       	sbiw	r26, 0x03	; 3
    63fc:	ad 01       	movw	r20, r26
    63fe:	00 97       	sbiw	r24, 0x00	; 0
    6400:	11 f0       	breq	.+4      	;  0x6406
    6402:	dc 01       	movw	r26, r24
    6404:	d3 cf       	rjmp	.-90     	;  0x63ac
    6406:	fa 01       	movw	r30, r20
    6408:	d3 83       	std	Z+3, r29	; 0x03
    640a:	c2 83       	std	Z+2, r28	; 0x02
    640c:	21 91       	ld	r18, Z+
    640e:	31 91       	ld	r19, Z+
    6410:	e2 0f       	add	r30, r18
    6412:	f3 1f       	adc	r31, r19
    6414:	ce 17       	cp	r28, r30
    6416:	df 07       	cpc	r29, r31
    6418:	69 f4       	brne	.+26     	;  0x6434
    641a:	88 81       	ld	r24, Y
    641c:	99 81       	ldd	r25, Y+1	; 0x01
    641e:	28 0f       	add	r18, r24
    6420:	39 1f       	adc	r19, r25
    6422:	2e 5f       	subi	r18, 0xFE	; 254
    6424:	3f 4f       	sbci	r19, 0xFF	; 255
    6426:	fa 01       	movw	r30, r20
    6428:	31 83       	std	Z+1, r19	; 0x01
    642a:	20 83       	st	Z, r18
    642c:	8a 81       	ldd	r24, Y+2	; 0x02
    642e:	9b 81       	ldd	r25, Y+3	; 0x03
    6430:	93 83       	std	Z+3, r25	; 0x03
    6432:	82 83       	std	Z+2, r24	; 0x02
    6434:	df 91       	pop	r29
    6436:	cf 91       	pop	r28
    6438:	08 95       	ret
    643a:	a0 e0       	ldi	r26, 0x00	; 0
    643c:	b0 e0       	ldi	r27, 0x00	; 0
    643e:	e3 e2       	ldi	r30, 0x23	; 35
    6440:	f2 e3       	ldi	r31, 0x32	; 50
    6442:	0c 94 fe 36 	jmp	0x6dfc	;  0x6dfc
    6446:	8c 01       	movw	r16, r24
    6448:	00 97       	sbiw	r24, 0x00	; 0
    644a:	29 f4       	brne	.+10     	;  0x6456
    644c:	cb 01       	movw	r24, r22
    644e:	0e 94 18 31 	call	0x6230	;  0x6230
    6452:	8c 01       	movw	r16, r24
    6454:	ba c0       	rjmp	.+372    	;  0x65ca
    6456:	9e ef       	ldi	r25, 0xFE	; 254
    6458:	e9 2e       	mov	r14, r25
    645a:	9f ef       	ldi	r25, 0xFF	; 255
    645c:	f9 2e       	mov	r15, r25
    645e:	e0 0e       	add	r14, r16
    6460:	f1 1e       	adc	r15, r17
    6462:	58 01       	movw	r10, r16
    6464:	a6 0e       	add	r10, r22
    6466:	b7 1e       	adc	r11, r23
    6468:	ae 14       	cp	r10, r14
    646a:	bf 04       	cpc	r11, r15
    646c:	08 f4       	brcc	.+2      	;  0x6470
    646e:	ab c0       	rjmp	.+342    	;  0x65c6
    6470:	8e ef       	ldi	r24, 0xFE	; 254
    6472:	88 2e       	mov	r8, r24
    6474:	8f ef       	ldi	r24, 0xFF	; 255
    6476:	98 2e       	mov	r9, r24
    6478:	8a 0c       	add	r8, r10
    647a:	9b 1c       	adc	r9, r11
    647c:	e7 01       	movw	r28, r14
    647e:	48 81       	ld	r20, Y
    6480:	59 81       	ldd	r21, Y+1	; 0x01
    6482:	46 17       	cp	r20, r22
    6484:	57 07       	cpc	r21, r23
    6486:	b8 f0       	brcs	.+46     	;  0x64b6
    6488:	45 30       	cpi	r20, 0x05	; 5
    648a:	51 05       	cpc	r21, r1
    648c:	08 f4       	brcc	.+2      	;  0x6490
    648e:	9d c0       	rjmp	.+314    	;  0x65ca
    6490:	ca 01       	movw	r24, r20
    6492:	04 97       	sbiw	r24, 0x04	; 4
    6494:	86 17       	cp	r24, r22
    6496:	97 07       	cpc	r25, r23
    6498:	08 f4       	brcc	.+2      	;  0x649c
    649a:	97 c0       	rjmp	.+302    	;  0x65ca
    649c:	42 50       	subi	r20, 0x02	; 2
    649e:	50 40       	sbci	r21, 0x00	; 0
    64a0:	46 1b       	sub	r20, r22
    64a2:	57 0b       	sbc	r21, r23
    64a4:	f4 01       	movw	r30, r8
    64a6:	51 83       	std	Z+1, r21	; 0x01
    64a8:	40 83       	st	Z, r20
    64aa:	79 83       	std	Y+1, r23	; 0x01
    64ac:	68 83       	st	Y, r22
    64ae:	c5 01       	movw	r24, r10
    64b0:	0e 94 c5 31 	call	0x638a	;  0x638a
    64b4:	8a c0       	rjmp	.+276    	;  0x65ca
    64b6:	6b 01       	movw	r12, r22
    64b8:	c4 1a       	sub	r12, r20
    64ba:	d5 0a       	sbc	r13, r21
    64bc:	e0 91 c6 05 	lds	r30, 0x05C6
    64c0:	f0 91 c7 05 	lds	r31, 0x05C7
    64c4:	a0 e0       	ldi	r26, 0x00	; 0
    64c6:	b0 e0       	ldi	r27, 0x00	; 0
    64c8:	c0 e0       	ldi	r28, 0x00	; 0
    64ca:	d0 e0       	ldi	r29, 0x00	; 0
    64cc:	42 c0       	rjmp	.+132    	;  0x6552
    64ce:	e8 15       	cp	r30, r8
    64d0:	f9 05       	cpc	r31, r9
    64d2:	a1 f5       	brne	.+104    	;  0x653c
    64d4:	20 81       	ld	r18, Z
    64d6:	31 81       	ldd	r19, Z+1	; 0x01
    64d8:	2c 15       	cp	r18, r12
    64da:	3d 05       	cpc	r19, r13
    64dc:	78 f1       	brcs	.+94     	;  0x653c
    64de:	c9 01       	movw	r24, r18
    64e0:	02 96       	adiw	r24, 0x02	; 2
    64e2:	8c 15       	cp	r24, r12
    64e4:	9d 05       	cpc	r25, r13
    64e6:	a8 f0       	brcs	.+42     	;  0x6512
    64e8:	4e 5f       	subi	r20, 0xFE	; 254
    64ea:	5f 4f       	sbci	r21, 0xFF	; 255
    64ec:	42 0f       	add	r20, r18
    64ee:	53 1f       	adc	r21, r19
    64f0:	e7 01       	movw	r28, r14
    64f2:	59 83       	std	Y+1, r21	; 0x01
    64f4:	48 83       	st	Y, r20
    64f6:	22 81       	ldd	r18, Z+2	; 0x02
    64f8:	33 81       	ldd	r19, Z+3	; 0x03
    64fa:	10 97       	sbiw	r26, 0x00	; 0
    64fc:	29 f0       	breq	.+10     	;  0x6508
    64fe:	13 96       	adiw	r26, 0x03	; 3
    6500:	3c 93       	st	X, r19
    6502:	2e 93       	st	-X, r18
    6504:	12 97       	sbiw	r26, 0x02	; 2
    6506:	61 c0       	rjmp	.+194    	;  0x65ca
    6508:	30 93 c7 05 	sts	0x05C7, r19
    650c:	20 93 c6 05 	sts	0x05C6, r18
    6510:	5c c0       	rjmp	.+184    	;  0x65ca
    6512:	22 50       	subi	r18, 0x02	; 2
    6514:	30 40       	sbci	r19, 0x00	; 0
    6516:	2c 19       	sub	r18, r12
    6518:	3d 09       	sbc	r19, r13
    651a:	31 83       	std	Z+1, r19	; 0x01
    651c:	20 83       	st	Z, r18
    651e:	10 97       	sbiw	r26, 0x00	; 0
    6520:	29 f0       	breq	.+10     	;  0x652c
    6522:	13 96       	adiw	r26, 0x03	; 3
    6524:	fc 93       	st	X, r31
    6526:	ee 93       	st	-X, r30
    6528:	12 97       	sbiw	r26, 0x02	; 2
    652a:	04 c0       	rjmp	.+8      	;  0x6534
    652c:	f0 93 c7 05 	sts	0x05C7, r31
    6530:	e0 93 c6 05 	sts	0x05C6, r30
    6534:	f7 01       	movw	r30, r14
    6536:	71 83       	std	Z+1, r23	; 0x01
    6538:	60 83       	st	Z, r22
    653a:	47 c0       	rjmp	.+142    	;  0x65ca
    653c:	80 81       	ld	r24, Z
    653e:	91 81       	ldd	r25, Z+1	; 0x01
    6540:	c8 17       	cp	r28, r24
    6542:	d9 07       	cpc	r29, r25
    6544:	08 f4       	brcc	.+2      	;  0x6548
    6546:	ec 01       	movw	r28, r24
    6548:	df 01       	movw	r26, r30
    654a:	82 81       	ldd	r24, Z+2	; 0x02
    654c:	93 81       	ldd	r25, Z+3	; 0x03
    654e:	9c 01       	movw	r18, r24
    6550:	f9 01       	movw	r30, r18
    6552:	30 97       	sbiw	r30, 0x00	; 0
    6554:	09 f0       	breq	.+2      	;  0x6558
    6556:	bb cf       	rjmp	.-138    	;  0x64ce
    6558:	40 0f       	add	r20, r16
    655a:	51 1f       	adc	r21, r17
    655c:	80 91 c4 05 	lds	r24, 0x05C4
    6560:	90 91 c5 05 	lds	r25, 0x05C5
    6564:	84 17       	cp	r24, r20
    6566:	95 07       	cpc	r25, r21
    6568:	e9 f4       	brne	.+58     	;  0x65a4
    656a:	c6 17       	cp	r28, r22
    656c:	d7 07       	cpc	r29, r23
    656e:	d0 f4       	brcc	.+52     	;  0x65a4
    6570:	20 91 90 02 	lds	r18, 0x0290
    6574:	30 91 91 02 	lds	r19, 0x0291
    6578:	21 15       	cp	r18, r1
    657a:	31 05       	cpc	r19, r1
    657c:	41 f4       	brne	.+16     	;  0x658e
    657e:	2d b7       	in	r18, 0x3d	; 61
    6580:	3e b7       	in	r19, 0x3e	; 62
    6582:	80 91 8c 02 	lds	r24, 0x028C
    6586:	90 91 8d 02 	lds	r25, 0x028D
    658a:	28 1b       	sub	r18, r24
    658c:	39 0b       	sbc	r19, r25
    658e:	a2 16       	cp	r10, r18
    6590:	b3 06       	cpc	r11, r19
    6592:	c8 f4       	brcc	.+50     	;  0x65c6
    6594:	b0 92 c5 05 	sts	0x05C5, r11
    6598:	a0 92 c4 05 	sts	0x05C4, r10
    659c:	e7 01       	movw	r28, r14
    659e:	79 83       	std	Y+1, r23	; 0x01
    65a0:	68 83       	st	Y, r22
    65a2:	13 c0       	rjmp	.+38     	;  0x65ca
    65a4:	cb 01       	movw	r24, r22
    65a6:	0e 94 18 31 	call	0x6230	;  0x6230
    65aa:	ec 01       	movw	r28, r24
    65ac:	00 97       	sbiw	r24, 0x00	; 0
    65ae:	59 f0       	breq	.+22     	;  0x65c6
    65b0:	f7 01       	movw	r30, r14
    65b2:	40 81       	ld	r20, Z
    65b4:	51 81       	ldd	r21, Z+1	; 0x01
    65b6:	b8 01       	movw	r22, r16
    65b8:	0e 94 37 33 	call	0x666e	;  0x666e
    65bc:	c8 01       	movw	r24, r16
    65be:	0e 94 c5 31 	call	0x638a	;  0x638a
    65c2:	8e 01       	movw	r16, r28
    65c4:	02 c0       	rjmp	.+4      	;  0x65ca
    65c6:	00 e0       	ldi	r16, 0x00	; 0
    65c8:	10 e0       	ldi	r17, 0x00	; 0
    65ca:	c8 01       	movw	r24, r16
    65cc:	cd b7       	in	r28, 0x3d	; 61
    65ce:	de b7       	in	r29, 0x3e	; 62
    65d0:	ec e0       	ldi	r30, 0x0C	; 12
    65d2:	0c 94 1a 37 	jmp	0x6e34	;  0x6e34
    65d6:	1f 93       	push	r17
    65d8:	fc 01       	movw	r30, r24
    65da:	99 27       	eor	r25, r25
    65dc:	88 27       	eor	r24, r24
    65de:	bc 01       	movw	r22, r24
    65e0:	e8 94       	clt
    65e2:	11 91       	ld	r17, Z+
    65e4:	10 32       	cpi	r17, 0x20	; 32
    65e6:	e9 f3       	breq	.-6      	;  0x65e2
    65e8:	19 30       	cpi	r17, 0x09	; 9
    65ea:	10 f0       	brcs	.+4      	;  0x65f0
    65ec:	1e 30       	cpi	r17, 0x0E	; 14
    65ee:	c8 f3       	brcs	.-14     	;  0x65e2
    65f0:	1b 32       	cpi	r17, 0x2B	; 43
    65f2:	51 f0       	breq	.+20     	;  0x6608
    65f4:	1d 32       	cpi	r17, 0x2D	; 45
    65f6:	49 f4       	brne	.+18     	;  0x660a
    65f8:	68 94       	set
    65fa:	06 c0       	rjmp	.+12     	;  0x6608
    65fc:	0e 94 fd 33 	call	0x67fa	;  0x67fa
    6600:	61 0f       	add	r22, r17
    6602:	71 1d       	adc	r23, r1
    6604:	81 1d       	adc	r24, r1
    6606:	91 1d       	adc	r25, r1
    6608:	11 91       	ld	r17, Z+
    660a:	10 53       	subi	r17, 0x30	; 48
    660c:	1a 30       	cpi	r17, 0x0A	; 10
    660e:	b0 f3       	brcs	.-20     	;  0x65fc
    6610:	3e f4       	brtc	.+14     	;  0x6620
    6612:	90 95       	com	r25
    6614:	80 95       	com	r24
    6616:	70 95       	com	r23
    6618:	61 95       	neg	r22
    661a:	7f 4f       	sbci	r23, 0xFF	; 255
    661c:	8f 4f       	sbci	r24, 0xFF	; 255
    661e:	9f 4f       	sbci	r25, 0xFF	; 255
    6620:	1f 91       	pop	r17
    6622:	08 95       	ret
    6624:	91 11       	cpse	r25, r1
    6626:	31 c3       	rjmp	.+1634   	;  0x6c8a
    6628:	80 32       	cpi	r24, 0x20	; 32
    662a:	19 f0       	breq	.+6      	;  0x6632
    662c:	89 50       	subi	r24, 0x09	; 9
    662e:	85 50       	subi	r24, 0x05	; 5
    6630:	d0 f7       	brcc	.-12     	;  0x6626
    6632:	08 95       	ret
    6634:	91 11       	cpse	r25, r1
    6636:	08 95       	ret
    6638:	81 54       	subi	r24, 0x41	; 65
    663a:	8a 51       	subi	r24, 0x1A	; 26
    663c:	08 f4       	brcc	.+2      	;  0x6640
    663e:	80 5e       	subi	r24, 0xE0	; 224
    6640:	85 5a       	subi	r24, 0xA5	; 165
    6642:	08 95       	ret
    6644:	91 11       	cpse	r25, r1
    6646:	08 95       	ret
    6648:	81 56       	subi	r24, 0x61	; 97
    664a:	8a 51       	subi	r24, 0x1A	; 26
    664c:	08 f4       	brcc	.+2      	;  0x6650
    664e:	80 52       	subi	r24, 0x20	; 32
    6650:	85 58       	subi	r24, 0x85	; 133
    6652:	08 95       	ret
    6654:	fb 01       	movw	r30, r22
    6656:	dc 01       	movw	r26, r24
    6658:	04 c0       	rjmp	.+8      	;  0x6662
    665a:	8d 91       	ld	r24, X+
    665c:	01 90       	ld	r0, Z+
    665e:	80 19       	sub	r24, r0
    6660:	21 f4       	brne	.+8      	;  0x666a
    6662:	41 50       	subi	r20, 0x01	; 1
    6664:	50 40       	sbci	r21, 0x00	; 0
    6666:	c8 f7       	brcc	.-14     	;  0x665a
    6668:	88 1b       	sub	r24, r24
    666a:	99 0b       	sbc	r25, r25
    666c:	08 95       	ret
    666e:	fb 01       	movw	r30, r22
    6670:	dc 01       	movw	r26, r24
    6672:	02 c0       	rjmp	.+4      	;  0x6678
    6674:	01 90       	ld	r0, Z+
    6676:	0d 92       	st	X+, r0
    6678:	41 50       	subi	r20, 0x01	; 1
    667a:	50 40       	sbci	r21, 0x00	; 0
    667c:	d8 f7       	brcc	.-10     	;  0x6674
    667e:	08 95       	ret
    6680:	fb 01       	movw	r30, r22
    6682:	dc 01       	movw	r26, r24
    6684:	0d 90       	ld	r0, X+
    6686:	00 20       	and	r0, r0
    6688:	e9 f7       	brne	.-6      	;  0x6684
    668a:	11 97       	sbiw	r26, 0x01	; 1
    668c:	01 90       	ld	r0, Z+
    668e:	0d 92       	st	X+, r0
    6690:	00 20       	and	r0, r0
    6692:	e1 f7       	brne	.-8      	;  0x668c
    6694:	08 95       	ret
    6696:	fc 01       	movw	r30, r24
    6698:	81 91       	ld	r24, Z+
    669a:	86 17       	cp	r24, r22
    669c:	21 f0       	breq	.+8      	;  0x66a6
    669e:	88 23       	and	r24, r24
    66a0:	d9 f7       	brne	.-10     	;  0x6698
    66a2:	99 27       	eor	r25, r25
    66a4:	08 95       	ret
    66a6:	31 97       	sbiw	r30, 0x01	; 1
    66a8:	cf 01       	movw	r24, r30
    66aa:	08 95       	ret
    66ac:	fb 01       	movw	r30, r22
    66ae:	dc 01       	movw	r26, r24
    66b0:	8d 91       	ld	r24, X+
    66b2:	01 90       	ld	r0, Z+
    66b4:	80 19       	sub	r24, r0
    66b6:	01 10       	cpse	r0, r1
    66b8:	d9 f3       	breq	.-10     	;  0x66b0
    66ba:	99 0b       	sbc	r25, r25
    66bc:	08 95       	ret
    66be:	fb 01       	movw	r30, r22
    66c0:	dc 01       	movw	r26, r24
    66c2:	01 90       	ld	r0, Z+
    66c4:	0d 92       	st	X+, r0
    66c6:	00 20       	and	r0, r0
    66c8:	e1 f7       	brne	.-8      	;  0x66c2
    66ca:	08 95       	ret
    66cc:	fb 01       	movw	r30, r22
    66ce:	dc 01       	movw	r26, r24
    66d0:	41 50       	subi	r20, 0x01	; 1
    66d2:	50 40       	sbci	r21, 0x00	; 0
    66d4:	30 f0       	brcs	.+12     	;  0x66e2
    66d6:	8d 91       	ld	r24, X+
    66d8:	01 90       	ld	r0, Z+
    66da:	80 19       	sub	r24, r0
    66dc:	19 f4       	brne	.+6      	;  0x66e4
    66de:	00 20       	and	r0, r0
    66e0:	b9 f7       	brne	.-18     	;  0x66d0
    66e2:	88 1b       	sub	r24, r24
    66e4:	99 0b       	sbc	r25, r25
    66e6:	08 95       	ret
    66e8:	fb 01       	movw	r30, r22
    66ea:	dc 01       	movw	r26, r24
    66ec:	41 50       	subi	r20, 0x01	; 1
    66ee:	50 40       	sbci	r21, 0x00	; 0
    66f0:	48 f0       	brcs	.+18     	;  0x6704
    66f2:	01 90       	ld	r0, Z+
    66f4:	0d 92       	st	X+, r0
    66f6:	00 20       	and	r0, r0
    66f8:	c9 f7       	brne	.-14     	;  0x66ec
    66fa:	01 c0       	rjmp	.+2      	;  0x66fe
    66fc:	1d 92       	st	X+, r1
    66fe:	41 50       	subi	r20, 0x01	; 1
    6700:	50 40       	sbci	r21, 0x00	; 0
    6702:	e0 f7       	brcc	.-8      	;  0x66fc
    6704:	08 95       	ret
    6706:	fc 01       	movw	r30, r24
    6708:	81 e0       	ldi	r24, 0x01	; 1
    670a:	90 e0       	ldi	r25, 0x00	; 0
    670c:	01 90       	ld	r0, Z+
    670e:	06 16       	cp	r0, r22
    6710:	09 f4       	brne	.+2      	;  0x6714
    6712:	cf 01       	movw	r24, r30
    6714:	00 20       	and	r0, r0
    6716:	d1 f7       	brne	.-12     	;  0x670c
    6718:	01 97       	sbiw	r24, 0x01	; 1
    671a:	08 95       	ret
    671c:	fb 01       	movw	r30, r22
    671e:	51 91       	ld	r21, Z+
    6720:	55 23       	and	r21, r21
    6722:	a9 f0       	breq	.+42     	;  0x674e
    6724:	bf 01       	movw	r22, r30
    6726:	dc 01       	movw	r26, r24
    6728:	4d 91       	ld	r20, X+
    672a:	45 17       	cp	r20, r21
    672c:	41 11       	cpse	r20, r1
    672e:	e1 f7       	brne	.-8      	;  0x6728
    6730:	59 f4       	brne	.+22     	;  0x6748
    6732:	cd 01       	movw	r24, r26
    6734:	01 90       	ld	r0, Z+
    6736:	00 20       	and	r0, r0
    6738:	49 f0       	breq	.+18     	;  0x674c
    673a:	4d 91       	ld	r20, X+
    673c:	40 15       	cp	r20, r0
    673e:	41 11       	cpse	r20, r1
    6740:	c9 f3       	breq	.-14     	;  0x6734
    6742:	fb 01       	movw	r30, r22
    6744:	41 11       	cpse	r20, r1
    6746:	ef cf       	rjmp	.-34     	;  0x6726
    6748:	81 e0       	ldi	r24, 0x01	; 1
    674a:	90 e0       	ldi	r25, 0x00	; 0
    674c:	01 97       	sbiw	r24, 0x01	; 1
    674e:	08 95       	ret
    6750:	fb 01       	movw	r30, r22
    6752:	9f 01       	movw	r18, r30
    6754:	e8 94       	clt
    6756:	42 30       	cpi	r20, 0x02	; 2
    6758:	c4 f0       	brlt	.+48     	;  0x678a
    675a:	45 32       	cpi	r20, 0x25	; 37
    675c:	b4 f4       	brge	.+44     	;  0x678a
    675e:	4a 30       	cpi	r20, 0x0A	; 10
    6760:	29 f4       	brne	.+10     	;  0x676c
    6762:	97 fb       	bst	r25, 7
    6764:	1e f4       	brtc	.+6      	;  0x676c
    6766:	90 95       	com	r25
    6768:	81 95       	neg	r24
    676a:	9f 4f       	sbci	r25, 0xFF	; 255
    676c:	64 2f       	mov	r22, r20
    676e:	77 27       	eor	r23, r23
    6770:	0e 94 fe 30 	call	0x61fc	;  0x61fc
    6774:	80 5d       	subi	r24, 0xD0	; 208
    6776:	8a 33       	cpi	r24, 0x3A	; 58
    6778:	0c f0       	brlt	.+2      	;  0x677c
    677a:	89 5d       	subi	r24, 0xD9	; 217
    677c:	81 93       	st	Z+, r24
    677e:	cb 01       	movw	r24, r22
    6780:	00 97       	sbiw	r24, 0x00	; 0
    6782:	a1 f7       	brne	.-24     	;  0x676c
    6784:	16 f4       	brtc	.+4      	;  0x678a
    6786:	5d e2       	ldi	r21, 0x2D	; 45
    6788:	51 93       	st	Z+, r21
    678a:	10 82       	st	Z, r1
    678c:	c9 01       	movw	r24, r18
    678e:	0c 94 5e 36 	jmp	0x6cbc	;  0x6cbc
    6792:	fa 01       	movw	r30, r20
    6794:	cf 93       	push	r28
    6796:	ff 93       	push	r31
    6798:	ef 93       	push	r30
    679a:	22 30       	cpi	r18, 0x02	; 2
    679c:	44 f1       	brlt	.+80     	;  0x67ee
    679e:	25 32       	cpi	r18, 0x25	; 37
    67a0:	34 f5       	brge	.+76     	;  0x67ee
    67a2:	c2 2f       	mov	r28, r18
    67a4:	e8 94       	clt
    67a6:	ca 30       	cpi	r28, 0x0A	; 10
    67a8:	49 f4       	brne	.+18     	;  0x67bc
    67aa:	97 fb       	bst	r25, 7
    67ac:	3e f4       	brtc	.+14     	;  0x67bc
    67ae:	90 95       	com	r25
    67b0:	80 95       	com	r24
    67b2:	70 95       	com	r23
    67b4:	61 95       	neg	r22
    67b6:	7f 4f       	sbci	r23, 0xFF	; 255
    67b8:	8f 4f       	sbci	r24, 0xFF	; 255
    67ba:	9f 4f       	sbci	r25, 0xFF	; 255
    67bc:	2c 2f       	mov	r18, r28
    67be:	33 27       	eor	r19, r19
    67c0:	44 27       	eor	r20, r20
    67c2:	55 27       	eor	r21, r21
    67c4:	ff 93       	push	r31
    67c6:	ef 93       	push	r30
    67c8:	0e 94 c1 30 	call	0x6182	;  0x6182
    67cc:	ef 91       	pop	r30
    67ce:	ff 91       	pop	r31
    67d0:	60 5d       	subi	r22, 0xD0	; 208
    67d2:	6a 33       	cpi	r22, 0x3A	; 58
    67d4:	0c f0       	brlt	.+2      	;  0x67d8
    67d6:	69 5d       	subi	r22, 0xD9	; 217
    67d8:	61 93       	st	Z+, r22
    67da:	b9 01       	movw	r22, r18
    67dc:	ca 01       	movw	r24, r20
    67de:	60 50       	subi	r22, 0x00	; 0
    67e0:	70 40       	sbci	r23, 0x00	; 0
    67e2:	80 40       	sbci	r24, 0x00	; 0
    67e4:	90 40       	sbci	r25, 0x00	; 0
    67e6:	51 f7       	brne	.-44     	;  0x67bc
    67e8:	16 f4       	brtc	.+4      	;  0x67ee
    67ea:	cd e2       	ldi	r28, 0x2D	; 45
    67ec:	c1 93       	st	Z+, r28
    67ee:	10 82       	st	Z, r1
    67f0:	8f 91       	pop	r24
    67f2:	9f 91       	pop	r25
    67f4:	cf 91       	pop	r28
    67f6:	0c 94 5e 36 	jmp	0x6cbc	;  0x6cbc
    67fa:	59 2f       	mov	r21, r25
    67fc:	48 2f       	mov	r20, r24
    67fe:	37 2f       	mov	r19, r23
    6800:	26 2f       	mov	r18, r22
    6802:	66 0f       	add	r22, r22
    6804:	77 1f       	adc	r23, r23
    6806:	88 1f       	adc	r24, r24
    6808:	99 1f       	adc	r25, r25
    680a:	66 0f       	add	r22, r22
    680c:	77 1f       	adc	r23, r23
    680e:	88 1f       	adc	r24, r24
    6810:	99 1f       	adc	r25, r25
    6812:	62 0f       	add	r22, r18
    6814:	73 1f       	adc	r23, r19
    6816:	84 1f       	adc	r24, r20
    6818:	95 1f       	adc	r25, r21
    681a:	66 0f       	add	r22, r22
    681c:	77 1f       	adc	r23, r23
    681e:	88 1f       	adc	r24, r24
    6820:	99 1f       	adc	r25, r25
    6822:	08 95       	ret
    6824:	fa 01       	movw	r30, r20
    6826:	cf 93       	push	r28
    6828:	ff 93       	push	r31
    682a:	ef 93       	push	r30
    682c:	22 30       	cpi	r18, 0x02	; 2
    682e:	cc f0       	brlt	.+50     	;  0x6862
    6830:	25 32       	cpi	r18, 0x25	; 37
    6832:	bc f4       	brge	.+46     	;  0x6862
    6834:	c2 2f       	mov	r28, r18
    6836:	2c 2f       	mov	r18, r28
    6838:	33 27       	eor	r19, r19
    683a:	44 27       	eor	r20, r20
    683c:	55 27       	eor	r21, r21
    683e:	ff 93       	push	r31
    6840:	ef 93       	push	r30
    6842:	0e 94 c1 30 	call	0x6182	;  0x6182
    6846:	ef 91       	pop	r30
    6848:	ff 91       	pop	r31
    684a:	60 5d       	subi	r22, 0xD0	; 208
    684c:	6a 33       	cpi	r22, 0x3A	; 58
    684e:	0c f0       	brlt	.+2      	;  0x6852
    6850:	69 5d       	subi	r22, 0xD9	; 217
    6852:	61 93       	st	Z+, r22
    6854:	b9 01       	movw	r22, r18
    6856:	ca 01       	movw	r24, r20
    6858:	60 50       	subi	r22, 0x00	; 0
    685a:	70 40       	sbci	r23, 0x00	; 0
    685c:	80 40       	sbci	r24, 0x00	; 0
    685e:	90 40       	sbci	r25, 0x00	; 0
    6860:	51 f7       	brne	.-44     	;  0x6836
    6862:	10 82       	st	Z, r1
    6864:	8f 91       	pop	r24
    6866:	9f 91       	pop	r25
    6868:	cf 91       	pop	r28
    686a:	0c 94 5e 36 	jmp	0x6cbc	;  0x6cbc
    686e:	ae e0       	ldi	r26, 0x0E	; 14
    6870:	b0 e0       	ldi	r27, 0x00	; 0
    6872:	ed e3       	ldi	r30, 0x3D	; 61
    6874:	f4 e3       	ldi	r31, 0x34	; 52
    6876:	0c 94 06 37 	jmp	0x6e0c	;  0x6e0c
    687a:	0d 89       	ldd	r16, Y+21	; 0x15
    687c:	1e 89       	ldd	r17, Y+22	; 0x16
    687e:	8f 89       	ldd	r24, Y+23	; 0x17
    6880:	98 8d       	ldd	r25, Y+24	; 0x18
    6882:	97 ff       	sbrs	r25, 7
    6884:	02 c0       	rjmp	.+4      	;  0x688a
    6886:	80 e0       	ldi	r24, 0x00	; 0
    6888:	90 e8       	ldi	r25, 0x80	; 128
    688a:	01 97       	sbiw	r24, 0x01	; 1
    688c:	9e 83       	std	Y+6, r25	; 0x06
    688e:	8d 83       	std	Y+5, r24	; 0x05
    6890:	1a 83       	std	Y+2, r17	; 0x02
    6892:	09 83       	std	Y+1, r16	; 0x01
    6894:	86 e0       	ldi	r24, 0x06	; 6
    6896:	8c 83       	std	Y+4, r24	; 0x04
    6898:	9e 01       	movw	r18, r28
    689a:	25 5e       	subi	r18, 0xE5	; 229
    689c:	3f 4f       	sbci	r19, 0xFF	; 255
    689e:	ce 01       	movw	r24, r28
    68a0:	01 96       	adiw	r24, 0x01	; 1
    68a2:	69 8d       	ldd	r22, Y+25	; 0x19
    68a4:	7a 8d       	ldd	r23, Y+26	; 0x1a
    68a6:	a9 01       	movw	r20, r18
    68a8:	0e 94 68 34 	call	0x68d0	;  0x68d0
    68ac:	4d 81       	ldd	r20, Y+5	; 0x05
    68ae:	5e 81       	ldd	r21, Y+6	; 0x06
    68b0:	57 fd       	sbrc	r21, 7
    68b2:	0a c0       	rjmp	.+20     	;  0x68c8
    68b4:	2f 81       	ldd	r18, Y+7	; 0x07
    68b6:	38 85       	ldd	r19, Y+8	; 0x08
    68b8:	42 17       	cp	r20, r18
    68ba:	53 07       	cpc	r21, r19
    68bc:	0c f4       	brge	.+2      	;  0x68c0
    68be:	9a 01       	movw	r18, r20
    68c0:	02 0f       	add	r16, r18
    68c2:	13 1f       	adc	r17, r19
    68c4:	f8 01       	movw	r30, r16
    68c6:	10 82       	st	Z, r1
    68c8:	2e 96       	adiw	r28, 0x0e	; 14
    68ca:	e4 e0       	ldi	r30, 0x04	; 4
    68cc:	0c 94 22 37 	jmp	0x6e44	;  0x6e44
    68d0:	ab e0       	ldi	r26, 0x0B	; 11
    68d2:	b0 e0       	ldi	r27, 0x00	; 0
    68d4:	ee e6       	ldi	r30, 0x6E	; 110
    68d6:	f4 e3       	ldi	r31, 0x34	; 52
    68d8:	0c 94 f8 36 	jmp	0x6df0	;  0x6df0
    68dc:	3c 01       	movw	r6, r24
    68de:	2b 01       	movw	r4, r22
    68e0:	5a 01       	movw	r10, r20
    68e2:	fc 01       	movw	r30, r24
    68e4:	17 82       	std	Z+7, r1	; 0x07
    68e6:	16 82       	std	Z+6, r1	; 0x06
    68e8:	83 81       	ldd	r24, Z+3	; 0x03
    68ea:	81 fd       	sbrc	r24, 1
    68ec:	03 c0       	rjmp	.+6      	;  0x68f4
    68ee:	6f ef       	ldi	r22, 0xFF	; 255
    68f0:	7f ef       	ldi	r23, 0xFF	; 255
    68f2:	c6 c1       	rjmp	.+908    	;  0x6c80
    68f4:	9a e0       	ldi	r25, 0x0A	; 10
    68f6:	89 2e       	mov	r8, r25
    68f8:	1e 01       	movw	r2, r28
    68fa:	08 94       	sec
    68fc:	21 1c       	adc	r2, r1
    68fe:	31 1c       	adc	r3, r1
    6900:	f3 01       	movw	r30, r6
    6902:	23 81       	ldd	r18, Z+3	; 0x03
    6904:	f2 01       	movw	r30, r4
    6906:	23 fd       	sbrc	r18, 3
    6908:	85 91       	lpm	r24, Z+
    690a:	23 ff       	sbrs	r18, 3
    690c:	81 91       	ld	r24, Z+
    690e:	2f 01       	movw	r4, r30
    6910:	88 23       	and	r24, r24
    6912:	09 f4       	brne	.+2      	;  0x6916
    6914:	b2 c1       	rjmp	.+868    	;  0x6c7a
    6916:	85 32       	cpi	r24, 0x25	; 37
    6918:	39 f4       	brne	.+14     	;  0x6928
    691a:	23 fd       	sbrc	r18, 3
    691c:	85 91       	lpm	r24, Z+
    691e:	23 ff       	sbrs	r18, 3
    6920:	81 91       	ld	r24, Z+
    6922:	2f 01       	movw	r4, r30
    6924:	85 32       	cpi	r24, 0x25	; 37
    6926:	29 f4       	brne	.+10     	;  0x6932
    6928:	90 e0       	ldi	r25, 0x00	; 0
    692a:	b3 01       	movw	r22, r6
    692c:	0e 94 6e 36 	call	0x6cdc	;  0x6cdc
    6930:	e7 cf       	rjmp	.-50     	;  0x6900
    6932:	98 2f       	mov	r25, r24
    6934:	ff 24       	eor	r15, r15
    6936:	ee 24       	eor	r14, r14
    6938:	99 24       	eor	r9, r9
    693a:	ff e1       	ldi	r31, 0x1F	; 31
    693c:	ff 15       	cp	r31, r15
    693e:	d0 f0       	brcs	.+52     	;  0x6974
    6940:	9b 32       	cpi	r25, 0x2B	; 43
    6942:	69 f0       	breq	.+26     	;  0x695e
    6944:	9c 32       	cpi	r25, 0x2C	; 44
    6946:	28 f4       	brcc	.+10     	;  0x6952
    6948:	90 32       	cpi	r25, 0x20	; 32
    694a:	59 f0       	breq	.+22     	;  0x6962
    694c:	93 32       	cpi	r25, 0x23	; 35
    694e:	91 f4       	brne	.+36     	;  0x6974
    6950:	0e c0       	rjmp	.+28     	;  0x696e
    6952:	9d 32       	cpi	r25, 0x2D	; 45
    6954:	49 f0       	breq	.+18     	;  0x6968
    6956:	90 33       	cpi	r25, 0x30	; 48
    6958:	69 f4       	brne	.+26     	;  0x6974
    695a:	41 e0       	ldi	r20, 0x01	; 1
    695c:	24 c0       	rjmp	.+72     	;  0x69a6
    695e:	52 e0       	ldi	r21, 0x02	; 2
    6960:	f5 2a       	or	r15, r21
    6962:	84 e0       	ldi	r24, 0x04	; 4
    6964:	f8 2a       	or	r15, r24
    6966:	28 c0       	rjmp	.+80     	;  0x69b8
    6968:	98 e0       	ldi	r25, 0x08	; 8
    696a:	f9 2a       	or	r15, r25
    696c:	25 c0       	rjmp	.+74     	;  0x69b8
    696e:	e0 e1       	ldi	r30, 0x10	; 16
    6970:	fe 2a       	or	r15, r30
    6972:	22 c0       	rjmp	.+68     	;  0x69b8
    6974:	f7 fc       	sbrc	r15, 7
    6976:	29 c0       	rjmp	.+82     	;  0x69ca
    6978:	89 2f       	mov	r24, r25
    697a:	80 53       	subi	r24, 0x30	; 48
    697c:	8a 30       	cpi	r24, 0x0A	; 10
    697e:	70 f4       	brcc	.+28     	;  0x699c
    6980:	f6 fe       	sbrs	r15, 6
    6982:	05 c0       	rjmp	.+10     	;  0x698e
    6984:	98 9c       	mul	r9, r8
    6986:	90 2c       	mov	r9, r0
    6988:	11 24       	eor	r1, r1
    698a:	98 0e       	add	r9, r24
    698c:	15 c0       	rjmp	.+42     	;  0x69b8
    698e:	e8 9c       	mul	r14, r8
    6990:	e0 2c       	mov	r14, r0
    6992:	11 24       	eor	r1, r1
    6994:	e8 0e       	add	r14, r24
    6996:	f0 e2       	ldi	r31, 0x20	; 32
    6998:	ff 2a       	or	r15, r31
    699a:	0e c0       	rjmp	.+28     	;  0x69b8
    699c:	9e 32       	cpi	r25, 0x2E	; 46
    699e:	29 f4       	brne	.+10     	;  0x69aa
    69a0:	f6 fc       	sbrc	r15, 6
    69a2:	6b c1       	rjmp	.+726    	;  0x6c7a
    69a4:	40 e4       	ldi	r20, 0x40	; 64
    69a6:	f4 2a       	or	r15, r20
    69a8:	07 c0       	rjmp	.+14     	;  0x69b8
    69aa:	9c 36       	cpi	r25, 0x6C	; 108
    69ac:	19 f4       	brne	.+6      	;  0x69b4
    69ae:	50 e8       	ldi	r21, 0x80	; 128
    69b0:	f5 2a       	or	r15, r21
    69b2:	02 c0       	rjmp	.+4      	;  0x69b8
    69b4:	98 36       	cpi	r25, 0x68	; 104
    69b6:	49 f4       	brne	.+18     	;  0x69ca
    69b8:	f2 01       	movw	r30, r4
    69ba:	23 fd       	sbrc	r18, 3
    69bc:	95 91       	lpm	r25, Z+
    69be:	23 ff       	sbrs	r18, 3
    69c0:	91 91       	ld	r25, Z+
    69c2:	2f 01       	movw	r4, r30
    69c4:	99 23       	and	r25, r25
    69c6:	09 f0       	breq	.+2      	;  0x69ca
    69c8:	b8 cf       	rjmp	.-144    	;  0x693a
    69ca:	89 2f       	mov	r24, r25
    69cc:	85 54       	subi	r24, 0x45	; 69
    69ce:	83 30       	cpi	r24, 0x03	; 3
    69d0:	18 f0       	brcs	.+6      	;  0x69d8
    69d2:	80 52       	subi	r24, 0x20	; 32
    69d4:	83 30       	cpi	r24, 0x03	; 3
    69d6:	38 f4       	brcc	.+14     	;  0x69e6
    69d8:	44 e0       	ldi	r20, 0x04	; 4
    69da:	50 e0       	ldi	r21, 0x00	; 0
    69dc:	a4 0e       	add	r10, r20
    69de:	b5 1e       	adc	r11, r21
    69e0:	5f e3       	ldi	r21, 0x3F	; 63
    69e2:	59 83       	std	Y+1, r21	; 0x01
    69e4:	0f c0       	rjmp	.+30     	;  0x6a04
    69e6:	93 36       	cpi	r25, 0x63	; 99
    69e8:	31 f0       	breq	.+12     	;  0x69f6
    69ea:	93 37       	cpi	r25, 0x73	; 115
    69ec:	79 f0       	breq	.+30     	;  0x6a0c
    69ee:	93 35       	cpi	r25, 0x53	; 83
    69f0:	09 f0       	breq	.+2      	;  0x69f4
    69f2:	56 c0       	rjmp	.+172    	;  0x6aa0
    69f4:	20 c0       	rjmp	.+64     	;  0x6a36
    69f6:	f5 01       	movw	r30, r10
    69f8:	80 81       	ld	r24, Z
    69fa:	89 83       	std	Y+1, r24	; 0x01
    69fc:	42 e0       	ldi	r20, 0x02	; 2
    69fe:	50 e0       	ldi	r21, 0x00	; 0
    6a00:	a4 0e       	add	r10, r20
    6a02:	b5 1e       	adc	r11, r21
    6a04:	61 01       	movw	r12, r2
    6a06:	01 e0       	ldi	r16, 0x01	; 1
    6a08:	10 e0       	ldi	r17, 0x00	; 0
    6a0a:	12 c0       	rjmp	.+36     	;  0x6a30
    6a0c:	f5 01       	movw	r30, r10
    6a0e:	c0 80       	ld	r12, Z
    6a10:	d1 80       	ldd	r13, Z+1	; 0x01
    6a12:	f6 fc       	sbrc	r15, 6
    6a14:	03 c0       	rjmp	.+6      	;  0x6a1c
    6a16:	6f ef       	ldi	r22, 0xFF	; 255
    6a18:	7f ef       	ldi	r23, 0xFF	; 255
    6a1a:	02 c0       	rjmp	.+4      	;  0x6a20
    6a1c:	69 2d       	mov	r22, r9
    6a1e:	70 e0       	ldi	r23, 0x00	; 0
    6a20:	42 e0       	ldi	r20, 0x02	; 2
    6a22:	50 e0       	ldi	r21, 0x00	; 0
    6a24:	a4 0e       	add	r10, r20
    6a26:	b5 1e       	adc	r11, r21
    6a28:	c6 01       	movw	r24, r12
    6a2a:	0e 94 53 36 	call	0x6ca6	;  0x6ca6
    6a2e:	8c 01       	movw	r16, r24
    6a30:	5f e7       	ldi	r21, 0x7F	; 127
    6a32:	f5 22       	and	r15, r21
    6a34:	14 c0       	rjmp	.+40     	;  0x6a5e
    6a36:	f5 01       	movw	r30, r10
    6a38:	c0 80       	ld	r12, Z
    6a3a:	d1 80       	ldd	r13, Z+1	; 0x01
    6a3c:	f6 fc       	sbrc	r15, 6
    6a3e:	03 c0       	rjmp	.+6      	;  0x6a46
    6a40:	6f ef       	ldi	r22, 0xFF	; 255
    6a42:	7f ef       	ldi	r23, 0xFF	; 255
    6a44:	02 c0       	rjmp	.+4      	;  0x6a4a
    6a46:	69 2d       	mov	r22, r9
    6a48:	70 e0       	ldi	r23, 0x00	; 0
    6a4a:	42 e0       	ldi	r20, 0x02	; 2
    6a4c:	50 e0       	ldi	r21, 0x00	; 0
    6a4e:	a4 0e       	add	r10, r20
    6a50:	b5 1e       	adc	r11, r21
    6a52:	c6 01       	movw	r24, r12
    6a54:	0e 94 48 36 	call	0x6c90	;  0x6c90
    6a58:	8c 01       	movw	r16, r24
    6a5a:	50 e8       	ldi	r21, 0x80	; 128
    6a5c:	f5 2a       	or	r15, r21
    6a5e:	f3 fe       	sbrs	r15, 3
    6a60:	07 c0       	rjmp	.+14     	;  0x6a70
    6a62:	1a c0       	rjmp	.+52     	;  0x6a98
    6a64:	80 e2       	ldi	r24, 0x20	; 32
    6a66:	90 e0       	ldi	r25, 0x00	; 0
    6a68:	b3 01       	movw	r22, r6
    6a6a:	0e 94 6e 36 	call	0x6cdc	;  0x6cdc
    6a6e:	ea 94       	dec	r14
    6a70:	8e 2d       	mov	r24, r14
    6a72:	90 e0       	ldi	r25, 0x00	; 0
    6a74:	08 17       	cp	r16, r24
    6a76:	19 07       	cpc	r17, r25
    6a78:	a8 f3       	brcs	.-22     	;  0x6a64
    6a7a:	0e c0       	rjmp	.+28     	;  0x6a98
    6a7c:	f6 01       	movw	r30, r12
    6a7e:	f7 fc       	sbrc	r15, 7
    6a80:	85 91       	lpm	r24, Z+
    6a82:	f7 fe       	sbrs	r15, 7
    6a84:	81 91       	ld	r24, Z+
    6a86:	6f 01       	movw	r12, r30
    6a88:	90 e0       	ldi	r25, 0x00	; 0
    6a8a:	b3 01       	movw	r22, r6
    6a8c:	0e 94 6e 36 	call	0x6cdc	;  0x6cdc
    6a90:	e1 10       	cpse	r14, r1
    6a92:	ea 94       	dec	r14
    6a94:	01 50       	subi	r16, 0x01	; 1
    6a96:	10 40       	sbci	r17, 0x00	; 0
    6a98:	01 15       	cp	r16, r1
    6a9a:	11 05       	cpc	r17, r1
    6a9c:	79 f7       	brne	.-34     	;  0x6a7c
    6a9e:	ea c0       	rjmp	.+468    	;  0x6c74
    6aa0:	94 36       	cpi	r25, 0x64	; 100
    6aa2:	11 f0       	breq	.+4      	;  0x6aa8
    6aa4:	99 36       	cpi	r25, 0x69	; 105
    6aa6:	69 f5       	brne	.+90     	;  0x6b02
    6aa8:	f7 fe       	sbrs	r15, 7
    6aaa:	08 c0       	rjmp	.+16     	;  0x6abc
    6aac:	f5 01       	movw	r30, r10
    6aae:	20 81       	ld	r18, Z
    6ab0:	31 81       	ldd	r19, Z+1	; 0x01
    6ab2:	42 81       	ldd	r20, Z+2	; 0x02
    6ab4:	53 81       	ldd	r21, Z+3	; 0x03
    6ab6:	84 e0       	ldi	r24, 0x04	; 4
    6ab8:	90 e0       	ldi	r25, 0x00	; 0
    6aba:	0a c0       	rjmp	.+20     	;  0x6ad0
    6abc:	f5 01       	movw	r30, r10
    6abe:	80 81       	ld	r24, Z
    6ac0:	91 81       	ldd	r25, Z+1	; 0x01
    6ac2:	9c 01       	movw	r18, r24
    6ac4:	44 27       	eor	r20, r20
    6ac6:	37 fd       	sbrc	r19, 7
    6ac8:	40 95       	com	r20
    6aca:	54 2f       	mov	r21, r20
    6acc:	82 e0       	ldi	r24, 0x02	; 2
    6ace:	90 e0       	ldi	r25, 0x00	; 0
    6ad0:	a8 0e       	add	r10, r24
    6ad2:	b9 1e       	adc	r11, r25
    6ad4:	9f e6       	ldi	r25, 0x6F	; 111
    6ad6:	f9 22       	and	r15, r25
    6ad8:	57 ff       	sbrs	r21, 7
    6ada:	09 c0       	rjmp	.+18     	;  0x6aee
    6adc:	50 95       	com	r21
    6ade:	40 95       	com	r20
    6ae0:	30 95       	com	r19
    6ae2:	21 95       	neg	r18
    6ae4:	3f 4f       	sbci	r19, 0xFF	; 255
    6ae6:	4f 4f       	sbci	r20, 0xFF	; 255
    6ae8:	5f 4f       	sbci	r21, 0xFF	; 255
    6aea:	e0 e8       	ldi	r30, 0x80	; 128
    6aec:	fe 2a       	or	r15, r30
    6aee:	ca 01       	movw	r24, r20
    6af0:	b9 01       	movw	r22, r18
    6af2:	a1 01       	movw	r20, r2
    6af4:	2a e0       	ldi	r18, 0x0A	; 10
    6af6:	30 e0       	ldi	r19, 0x00	; 0
    6af8:	0e 94 9a 36 	call	0x6d34	;  0x6d34
    6afc:	d8 2e       	mov	r13, r24
    6afe:	d2 18       	sub	r13, r2
    6b00:	40 c0       	rjmp	.+128    	;  0x6b82
    6b02:	95 37       	cpi	r25, 0x75	; 117
    6b04:	29 f4       	brne	.+10     	;  0x6b10
    6b06:	1f 2d       	mov	r17, r15
    6b08:	1f 7e       	andi	r17, 0xEF	; 239
    6b0a:	2a e0       	ldi	r18, 0x0A	; 10
    6b0c:	30 e0       	ldi	r19, 0x00	; 0
    6b0e:	1d c0       	rjmp	.+58     	;  0x6b4a
    6b10:	1f 2d       	mov	r17, r15
    6b12:	19 7f       	andi	r17, 0xF9	; 249
    6b14:	9f 36       	cpi	r25, 0x6F	; 111
    6b16:	61 f0       	breq	.+24     	;  0x6b30
    6b18:	90 37       	cpi	r25, 0x70	; 112
    6b1a:	20 f4       	brcc	.+8      	;  0x6b24
    6b1c:	98 35       	cpi	r25, 0x58	; 88
    6b1e:	09 f0       	breq	.+2      	;  0x6b22
    6b20:	ac c0       	rjmp	.+344    	;  0x6c7a
    6b22:	0f c0       	rjmp	.+30     	;  0x6b42
    6b24:	90 37       	cpi	r25, 0x70	; 112
    6b26:	39 f0       	breq	.+14     	;  0x6b36
    6b28:	98 37       	cpi	r25, 0x78	; 120
    6b2a:	09 f0       	breq	.+2      	;  0x6b2e
    6b2c:	a6 c0       	rjmp	.+332    	;  0x6c7a
    6b2e:	04 c0       	rjmp	.+8      	;  0x6b38
    6b30:	28 e0       	ldi	r18, 0x08	; 8
    6b32:	30 e0       	ldi	r19, 0x00	; 0
    6b34:	0a c0       	rjmp	.+20     	;  0x6b4a
    6b36:	10 61       	ori	r17, 0x10	; 16
    6b38:	14 fd       	sbrc	r17, 4
    6b3a:	14 60       	ori	r17, 0x04	; 4
    6b3c:	20 e1       	ldi	r18, 0x10	; 16
    6b3e:	30 e0       	ldi	r19, 0x00	; 0
    6b40:	04 c0       	rjmp	.+8      	;  0x6b4a
    6b42:	14 fd       	sbrc	r17, 4
    6b44:	16 60       	ori	r17, 0x06	; 6
    6b46:	20 e1       	ldi	r18, 0x10	; 16
    6b48:	32 e0       	ldi	r19, 0x02	; 2
    6b4a:	17 ff       	sbrs	r17, 7
    6b4c:	08 c0       	rjmp	.+16     	;  0x6b5e
    6b4e:	f5 01       	movw	r30, r10
    6b50:	60 81       	ld	r22, Z
    6b52:	71 81       	ldd	r23, Z+1	; 0x01
    6b54:	82 81       	ldd	r24, Z+2	; 0x02
    6b56:	93 81       	ldd	r25, Z+3	; 0x03
    6b58:	44 e0       	ldi	r20, 0x04	; 4
    6b5a:	50 e0       	ldi	r21, 0x00	; 0
    6b5c:	08 c0       	rjmp	.+16     	;  0x6b6e
    6b5e:	f5 01       	movw	r30, r10
    6b60:	80 81       	ld	r24, Z
    6b62:	91 81       	ldd	r25, Z+1	; 0x01
    6b64:	bc 01       	movw	r22, r24
    6b66:	80 e0       	ldi	r24, 0x00	; 0
    6b68:	90 e0       	ldi	r25, 0x00	; 0
    6b6a:	42 e0       	ldi	r20, 0x02	; 2
    6b6c:	50 e0       	ldi	r21, 0x00	; 0
    6b6e:	a4 0e       	add	r10, r20
    6b70:	b5 1e       	adc	r11, r21
    6b72:	a1 01       	movw	r20, r2
    6b74:	0e 94 9a 36 	call	0x6d34	;  0x6d34
    6b78:	d8 2e       	mov	r13, r24
    6b7a:	d2 18       	sub	r13, r2
    6b7c:	8f e7       	ldi	r24, 0x7F	; 127
    6b7e:	f8 2e       	mov	r15, r24
    6b80:	f1 22       	and	r15, r17
    6b82:	f6 fe       	sbrs	r15, 6
    6b84:	0b c0       	rjmp	.+22     	;  0x6b9c
    6b86:	5e ef       	ldi	r21, 0xFE	; 254
    6b88:	f5 22       	and	r15, r21
    6b8a:	d9 14       	cp	r13, r9
    6b8c:	38 f4       	brcc	.+14     	;  0x6b9c
    6b8e:	f4 fe       	sbrs	r15, 4
    6b90:	07 c0       	rjmp	.+14     	;  0x6ba0
    6b92:	f2 fc       	sbrc	r15, 2
    6b94:	05 c0       	rjmp	.+10     	;  0x6ba0
    6b96:	8f ee       	ldi	r24, 0xEF	; 239
    6b98:	f8 22       	and	r15, r24
    6b9a:	02 c0       	rjmp	.+4      	;  0x6ba0
    6b9c:	1d 2d       	mov	r17, r13
    6b9e:	01 c0       	rjmp	.+2      	;  0x6ba2
    6ba0:	19 2d       	mov	r17, r9
    6ba2:	f4 fe       	sbrs	r15, 4
    6ba4:	0d c0       	rjmp	.+26     	;  0x6bc0
    6ba6:	fe 01       	movw	r30, r28
    6ba8:	ed 0d       	add	r30, r13
    6baa:	f1 1d       	adc	r31, r1
    6bac:	80 81       	ld	r24, Z
    6bae:	80 33       	cpi	r24, 0x30	; 48
    6bb0:	19 f4       	brne	.+6      	;  0x6bb8
    6bb2:	99 ee       	ldi	r25, 0xE9	; 233
    6bb4:	f9 22       	and	r15, r25
    6bb6:	08 c0       	rjmp	.+16     	;  0x6bc8
    6bb8:	1f 5f       	subi	r17, 0xFF	; 255
    6bba:	f2 fe       	sbrs	r15, 2
    6bbc:	05 c0       	rjmp	.+10     	;  0x6bc8
    6bbe:	03 c0       	rjmp	.+6      	;  0x6bc6
    6bc0:	8f 2d       	mov	r24, r15
    6bc2:	86 78       	andi	r24, 0x86	; 134
    6bc4:	09 f0       	breq	.+2      	;  0x6bc8
    6bc6:	1f 5f       	subi	r17, 0xFF	; 255
    6bc8:	0f 2d       	mov	r16, r15
    6bca:	f3 fc       	sbrc	r15, 3
    6bcc:	14 c0       	rjmp	.+40     	;  0x6bf6
    6bce:	f0 fe       	sbrs	r15, 0
    6bd0:	0f c0       	rjmp	.+30     	;  0x6bf0
    6bd2:	1e 15       	cp	r17, r14
    6bd4:	10 f0       	brcs	.+4      	;  0x6bda
    6bd6:	9d 2c       	mov	r9, r13
    6bd8:	0b c0       	rjmp	.+22     	;  0x6bf0
    6bda:	9d 2c       	mov	r9, r13
    6bdc:	9e 0c       	add	r9, r14
    6bde:	91 1a       	sub	r9, r17
    6be0:	1e 2d       	mov	r17, r14
    6be2:	06 c0       	rjmp	.+12     	;  0x6bf0
    6be4:	80 e2       	ldi	r24, 0x20	; 32
    6be6:	90 e0       	ldi	r25, 0x00	; 0
    6be8:	b3 01       	movw	r22, r6
    6bea:	0e 94 6e 36 	call	0x6cdc	;  0x6cdc
    6bee:	1f 5f       	subi	r17, 0xFF	; 255
    6bf0:	1e 15       	cp	r17, r14
    6bf2:	c0 f3       	brcs	.-16     	;  0x6be4
    6bf4:	04 c0       	rjmp	.+8      	;  0x6bfe
    6bf6:	1e 15       	cp	r17, r14
    6bf8:	10 f4       	brcc	.+4      	;  0x6bfe
    6bfa:	e1 1a       	sub	r14, r17
    6bfc:	01 c0       	rjmp	.+2      	;  0x6c00
    6bfe:	ee 24       	eor	r14, r14
    6c00:	04 ff       	sbrs	r16, 4
    6c02:	0f c0       	rjmp	.+30     	;  0x6c22
    6c04:	80 e3       	ldi	r24, 0x30	; 48
    6c06:	90 e0       	ldi	r25, 0x00	; 0
    6c08:	b3 01       	movw	r22, r6
    6c0a:	0e 94 6e 36 	call	0x6cdc	;  0x6cdc
    6c0e:	02 ff       	sbrs	r16, 2
    6c10:	1d c0       	rjmp	.+58     	;  0x6c4c
    6c12:	01 fd       	sbrc	r16, 1
    6c14:	03 c0       	rjmp	.+6      	;  0x6c1c
    6c16:	88 e7       	ldi	r24, 0x78	; 120
    6c18:	90 e0       	ldi	r25, 0x00	; 0
    6c1a:	0e c0       	rjmp	.+28     	;  0x6c38
    6c1c:	88 e5       	ldi	r24, 0x58	; 88
    6c1e:	90 e0       	ldi	r25, 0x00	; 0
    6c20:	0b c0       	rjmp	.+22     	;  0x6c38
    6c22:	80 2f       	mov	r24, r16
    6c24:	86 78       	andi	r24, 0x86	; 134
    6c26:	91 f0       	breq	.+36     	;  0x6c4c
    6c28:	01 ff       	sbrs	r16, 1
    6c2a:	02 c0       	rjmp	.+4      	;  0x6c30
    6c2c:	8b e2       	ldi	r24, 0x2B	; 43
    6c2e:	01 c0       	rjmp	.+2      	;  0x6c32
    6c30:	80 e2       	ldi	r24, 0x20	; 32
    6c32:	f7 fc       	sbrc	r15, 7
    6c34:	8d e2       	ldi	r24, 0x2D	; 45
    6c36:	90 e0       	ldi	r25, 0x00	; 0
    6c38:	b3 01       	movw	r22, r6
    6c3a:	0e 94 6e 36 	call	0x6cdc	;  0x6cdc
    6c3e:	06 c0       	rjmp	.+12     	;  0x6c4c
    6c40:	80 e3       	ldi	r24, 0x30	; 48
    6c42:	90 e0       	ldi	r25, 0x00	; 0
    6c44:	b3 01       	movw	r22, r6
    6c46:	0e 94 6e 36 	call	0x6cdc	;  0x6cdc
    6c4a:	9a 94       	dec	r9
    6c4c:	d9 14       	cp	r13, r9
    6c4e:	c0 f3       	brcs	.-16     	;  0x6c40
    6c50:	da 94       	dec	r13
    6c52:	f1 01       	movw	r30, r2
    6c54:	ed 0d       	add	r30, r13
    6c56:	f1 1d       	adc	r31, r1
    6c58:	80 81       	ld	r24, Z
    6c5a:	90 e0       	ldi	r25, 0x00	; 0
    6c5c:	b3 01       	movw	r22, r6
    6c5e:	0e 94 6e 36 	call	0x6cdc	;  0x6cdc
    6c62:	dd 20       	and	r13, r13
    6c64:	a9 f7       	brne	.-22     	;  0x6c50
    6c66:	06 c0       	rjmp	.+12     	;  0x6c74
    6c68:	80 e2       	ldi	r24, 0x20	; 32
    6c6a:	90 e0       	ldi	r25, 0x00	; 0
    6c6c:	b3 01       	movw	r22, r6
    6c6e:	0e 94 6e 36 	call	0x6cdc	;  0x6cdc
    6c72:	ea 94       	dec	r14
    6c74:	ee 20       	and	r14, r14
    6c76:	c1 f7       	brne	.-16     	;  0x6c68
    6c78:	43 ce       	rjmp	.-890    	;  0x6900
    6c7a:	f3 01       	movw	r30, r6
    6c7c:	66 81       	ldd	r22, Z+6	; 0x06
    6c7e:	77 81       	ldd	r23, Z+7	; 0x07
    6c80:	cb 01       	movw	r24, r22
    6c82:	2b 96       	adiw	r28, 0x0b	; 11
    6c84:	e2 e1       	ldi	r30, 0x12	; 18
    6c86:	0c 94 14 37 	jmp	0x6e28	;  0x6e28
    6c8a:	99 27       	eor	r25, r25
    6c8c:	88 27       	eor	r24, r24
    6c8e:	08 95       	ret
    6c90:	fc 01       	movw	r30, r24
    6c92:	05 90       	lpm	r0, Z+
    6c94:	61 50       	subi	r22, 0x01	; 1
    6c96:	70 40       	sbci	r23, 0x00	; 0
    6c98:	01 10       	cpse	r0, r1
    6c9a:	d8 f7       	brcc	.-10     	;  0x6c92
    6c9c:	80 95       	com	r24
    6c9e:	90 95       	com	r25
    6ca0:	8e 0f       	add	r24, r30
    6ca2:	9f 1f       	adc	r25, r31
    6ca4:	08 95       	ret
    6ca6:	fc 01       	movw	r30, r24
    6ca8:	61 50       	subi	r22, 0x01	; 1
    6caa:	70 40       	sbci	r23, 0x00	; 0
    6cac:	01 90       	ld	r0, Z+
    6cae:	01 10       	cpse	r0, r1
    6cb0:	d8 f7       	brcc	.-10     	;  0x6ca8
    6cb2:	80 95       	com	r24
    6cb4:	90 95       	com	r25
    6cb6:	8e 0f       	add	r24, r30
    6cb8:	9f 1f       	adc	r25, r31
    6cba:	08 95       	ret
    6cbc:	dc 01       	movw	r26, r24
    6cbe:	fc 01       	movw	r30, r24
    6cc0:	67 2f       	mov	r22, r23
    6cc2:	71 91       	ld	r23, Z+
    6cc4:	77 23       	and	r23, r23
    6cc6:	e1 f7       	brne	.-8      	;  0x6cc0
    6cc8:	32 97       	sbiw	r30, 0x02	; 2
    6cca:	04 c0       	rjmp	.+8      	;  0x6cd4
    6ccc:	7c 91       	ld	r23, X
    6cce:	6d 93       	st	X+, r22
    6cd0:	70 83       	st	Z, r23
    6cd2:	62 91       	ld	r22, -Z
    6cd4:	ae 17       	cp	r26, r30
    6cd6:	bf 07       	cpc	r27, r31
    6cd8:	c8 f3       	brcs	.-14     	;  0x6ccc
    6cda:	08 95       	ret
    6cdc:	0f 93       	push	r16
    6cde:	1f 93       	push	r17
    6ce0:	cf 93       	push	r28
    6ce2:	df 93       	push	r29
    6ce4:	8c 01       	movw	r16, r24
    6ce6:	eb 01       	movw	r28, r22
    6ce8:	8b 81       	ldd	r24, Y+3	; 0x03
    6cea:	81 ff       	sbrs	r24, 1
    6cec:	1b c0       	rjmp	.+54     	;  0x6d24
    6cee:	82 ff       	sbrs	r24, 2
    6cf0:	0d c0       	rjmp	.+26     	;  0x6d0c
    6cf2:	2e 81       	ldd	r18, Y+6	; 0x06
    6cf4:	3f 81       	ldd	r19, Y+7	; 0x07
    6cf6:	8c 81       	ldd	r24, Y+4	; 0x04
    6cf8:	9d 81       	ldd	r25, Y+5	; 0x05
    6cfa:	28 17       	cp	r18, r24
    6cfc:	39 07       	cpc	r19, r25
    6cfe:	64 f4       	brge	.+24     	;  0x6d18
    6d00:	e8 81       	ld	r30, Y
    6d02:	f9 81       	ldd	r31, Y+1	; 0x01
    6d04:	01 93       	st	Z+, r16
    6d06:	f9 83       	std	Y+1, r31	; 0x01
    6d08:	e8 83       	st	Y, r30
    6d0a:	06 c0       	rjmp	.+12     	;  0x6d18
    6d0c:	e8 85       	ldd	r30, Y+8	; 0x08
    6d0e:	f9 85       	ldd	r31, Y+9	; 0x09
    6d10:	80 2f       	mov	r24, r16
    6d12:	09 95       	icall
    6d14:	89 2b       	or	r24, r25
    6d16:	31 f4       	brne	.+12     	;  0x6d24
    6d18:	8e 81       	ldd	r24, Y+6	; 0x06
    6d1a:	9f 81       	ldd	r25, Y+7	; 0x07
    6d1c:	01 96       	adiw	r24, 0x01	; 1
    6d1e:	9f 83       	std	Y+7, r25	; 0x07
    6d20:	8e 83       	std	Y+6, r24	; 0x06
    6d22:	02 c0       	rjmp	.+4      	;  0x6d28
    6d24:	0f ef       	ldi	r16, 0xFF	; 255
    6d26:	1f ef       	ldi	r17, 0xFF	; 255
    6d28:	c8 01       	movw	r24, r16
    6d2a:	df 91       	pop	r29
    6d2c:	cf 91       	pop	r28
    6d2e:	1f 91       	pop	r17
    6d30:	0f 91       	pop	r16
    6d32:	08 95       	ret
    6d34:	fa 01       	movw	r30, r20
    6d36:	aa 27       	eor	r26, r26
    6d38:	28 30       	cpi	r18, 0x08	; 8
    6d3a:	51 f1       	breq	.+84     	;  0x6d90
    6d3c:	20 31       	cpi	r18, 0x10	; 16
    6d3e:	81 f1       	breq	.+96     	;  0x6da0
    6d40:	e8 94       	clt
    6d42:	6f 93       	push	r22
    6d44:	6e 7f       	andi	r22, 0xFE	; 254
    6d46:	6e 5f       	subi	r22, 0xFE	; 254
    6d48:	7f 4f       	sbci	r23, 0xFF	; 255
    6d4a:	8f 4f       	sbci	r24, 0xFF	; 255
    6d4c:	9f 4f       	sbci	r25, 0xFF	; 255
    6d4e:	af 4f       	sbci	r26, 0xFF	; 255
    6d50:	b1 e0       	ldi	r27, 0x01	; 1
    6d52:	3e d0       	rcall	.+124    	;  0x6dd0
    6d54:	b4 e0       	ldi	r27, 0x04	; 4
    6d56:	3c d0       	rcall	.+120    	;  0x6dd0
    6d58:	67 0f       	add	r22, r23
    6d5a:	78 1f       	adc	r23, r24
    6d5c:	89 1f       	adc	r24, r25
    6d5e:	9a 1f       	adc	r25, r26
    6d60:	a1 1d       	adc	r26, r1
    6d62:	68 0f       	add	r22, r24
    6d64:	79 1f       	adc	r23, r25
    6d66:	8a 1f       	adc	r24, r26
    6d68:	91 1d       	adc	r25, r1
    6d6a:	a1 1d       	adc	r26, r1
    6d6c:	6a 0f       	add	r22, r26
    6d6e:	71 1d       	adc	r23, r1
    6d70:	81 1d       	adc	r24, r1
    6d72:	91 1d       	adc	r25, r1
    6d74:	a1 1d       	adc	r26, r1
    6d76:	20 d0       	rcall	.+64     	;  0x6db8
    6d78:	09 f4       	brne	.+2      	;  0x6d7c
    6d7a:	68 94       	set
    6d7c:	3f 91       	pop	r19
    6d7e:	2a e0       	ldi	r18, 0x0A	; 10
    6d80:	26 9f       	mul	r18, r22
    6d82:	11 24       	eor	r1, r1
    6d84:	30 19       	sub	r19, r0
    6d86:	30 5d       	subi	r19, 0xD0	; 208
    6d88:	31 93       	st	Z+, r19
    6d8a:	de f6       	brtc	.-74     	;  0x6d42
    6d8c:	cf 01       	movw	r24, r30
    6d8e:	08 95       	ret
    6d90:	46 2f       	mov	r20, r22
    6d92:	47 70       	andi	r20, 0x07	; 7
    6d94:	40 5d       	subi	r20, 0xD0	; 208
    6d96:	41 93       	st	Z+, r20
    6d98:	b3 e0       	ldi	r27, 0x03	; 3
    6d9a:	0f d0       	rcall	.+30     	;  0x6dba
    6d9c:	c9 f7       	brne	.-14     	;  0x6d90
    6d9e:	f6 cf       	rjmp	.-20     	;  0x6d8c
    6da0:	46 2f       	mov	r20, r22
    6da2:	4f 70       	andi	r20, 0x0F	; 15
    6da4:	40 5d       	subi	r20, 0xD0	; 208
    6da6:	4a 33       	cpi	r20, 0x3A	; 58
    6da8:	18 f0       	brcs	.+6      	;  0x6db0
    6daa:	49 5d       	subi	r20, 0xD9	; 217
    6dac:	31 fd       	sbrc	r19, 1
    6dae:	40 52       	subi	r20, 0x20	; 32
    6db0:	41 93       	st	Z+, r20
    6db2:	02 d0       	rcall	.+4      	;  0x6db8
    6db4:	a9 f7       	brne	.-22     	;  0x6da0
    6db6:	ea cf       	rjmp	.-44     	;  0x6d8c
    6db8:	b4 e0       	ldi	r27, 0x04	; 4
    6dba:	a6 95       	lsr	r26
    6dbc:	97 95       	ror	r25
    6dbe:	87 95       	ror	r24
    6dc0:	77 95       	ror	r23
    6dc2:	67 95       	ror	r22
    6dc4:	ba 95       	dec	r27
    6dc6:	c9 f7       	brne	.-14     	;  0x6dba
    6dc8:	00 97       	sbiw	r24, 0x00	; 0
    6dca:	61 05       	cpc	r22, r1
    6dcc:	71 05       	cpc	r23, r1
    6dce:	08 95       	ret
    6dd0:	9b 01       	movw	r18, r22
    6dd2:	ac 01       	movw	r20, r24
    6dd4:	0a 2e       	mov	r0, r26
    6dd6:	06 94       	lsr	r0
    6dd8:	57 95       	ror	r21
    6dda:	47 95       	ror	r20
    6ddc:	37 95       	ror	r19
    6dde:	27 95       	ror	r18
    6de0:	ba 95       	dec	r27
    6de2:	c9 f7       	brne	.-14     	;  0x6dd6
    6de4:	62 0f       	add	r22, r18
    6de6:	73 1f       	adc	r23, r19
    6de8:	84 1f       	adc	r24, r20
    6dea:	95 1f       	adc	r25, r21
    6dec:	a0 1d       	adc	r26, r0
    6dee:	08 95       	ret
    6df0:	2f 92       	push	r2
    6df2:	3f 92       	push	r3
    6df4:	4f 92       	push	r4
    6df6:	5f 92       	push	r5
    6df8:	6f 92       	push	r6
    6dfa:	7f 92       	push	r7
    6dfc:	8f 92       	push	r8
    6dfe:	9f 92       	push	r9
    6e00:	af 92       	push	r10
    6e02:	bf 92       	push	r11
    6e04:	cf 92       	push	r12
    6e06:	df 92       	push	r13
    6e08:	ef 92       	push	r14
    6e0a:	ff 92       	push	r15
    6e0c:	0f 93       	push	r16
    6e0e:	1f 93       	push	r17
    6e10:	cf 93       	push	r28
    6e12:	df 93       	push	r29
    6e14:	cd b7       	in	r28, 0x3d	; 61
    6e16:	de b7       	in	r29, 0x3e	; 62
    6e18:	ca 1b       	sub	r28, r26
    6e1a:	db 0b       	sbc	r29, r27
    6e1c:	0f b6       	in	r0, 0x3f	; 63
    6e1e:	f8 94       	cli
    6e20:	de bf       	out	0x3e, r29	; 62
    6e22:	0f be       	out	0x3f, r0	; 63
    6e24:	cd bf       	out	0x3d, r28	; 61
    6e26:	09 94       	ijmp
    6e28:	2a 88       	ldd	r2, Y+18	; 0x12
    6e2a:	39 88       	ldd	r3, Y+17	; 0x11
    6e2c:	48 88       	ldd	r4, Y+16	; 0x10
    6e2e:	5f 84       	ldd	r5, Y+15	; 0x0f
    6e30:	6e 84       	ldd	r6, Y+14	; 0x0e
    6e32:	7d 84       	ldd	r7, Y+13	; 0x0d
    6e34:	8c 84       	ldd	r8, Y+12	; 0x0c
    6e36:	9b 84       	ldd	r9, Y+11	; 0x0b
    6e38:	aa 84       	ldd	r10, Y+10	; 0x0a
    6e3a:	b9 84       	ldd	r11, Y+9	; 0x09
    6e3c:	c8 84       	ldd	r12, Y+8	; 0x08
    6e3e:	df 80       	ldd	r13, Y+7	; 0x07
    6e40:	ee 80       	ldd	r14, Y+6	; 0x06
    6e42:	fd 80       	ldd	r15, Y+5	; 0x05
    6e44:	0c 81       	ldd	r16, Y+4	; 0x04
    6e46:	1b 81       	ldd	r17, Y+3	; 0x03
    6e48:	aa 81       	ldd	r26, Y+2	; 0x02
    6e4a:	b9 81       	ldd	r27, Y+1	; 0x01
    6e4c:	ce 0f       	add	r28, r30
    6e4e:	d1 1d       	adc	r29, r1
    6e50:	0f b6       	in	r0, 0x3f	; 63
    6e52:	f8 94       	cli
    6e54:	de bf       	out	0x3e, r29	; 62
    6e56:	0f be       	out	0x3f, r0	; 63
    6e58:	cd bf       	out	0x3d, r28	; 61
    6e5a:	ed 01       	movw	r28, r26
    6e5c:	08 95       	ret
    6e5e:	f8 94       	cli
    6e60:	ff cf       	rjmp	.-2      	;  0x6e60
